ccollections
defaultdict
p1
(c__builtin__
dict
p2
tRp3
S'/lib/x86_64-linux-gnu/libpthread-2.15.so'
p4
(dp5
S'0x692c'
p6
(S'__pthread_initialize_minimal_internal'
I140
S'nptl-init.c'
I359
tp7
sS'0xef45'
p8
(S'__libc_fcntl'
I133
S'../sysdeps/unix/sysv/linux/fcntl.c'
I40
tp9
sS'0x52b9'
p10
(S'_init'
I9
NNtp11
sS'0x68c2'
p12
(S'__pthread_initialize_minimal_internal'
I32
S'nptl-init.c'
I308
tp13
sS'0xd419'
p14
(S'pthread_once'
I105
S'../nptl/sysdeps/unix/sysv/linux/x86_64/pthread_once.S'
I129
tp15
sS'0xed10'
p16
(S'read'
I0
S'../sysdeps/unix/syscall-template.S'
I82
tp17
sS'0x6a0a'
p18
(S'__pthread_initialize_minimal_internal'
I362
S'nptl-init.c'
I390
tp19
sS'0x6ac5'
p20
(S'__pthread_initialize_minimal_internal'
I544
S'nptl-init.c'
I418
tp21
sS'0x6955'
p22
(S'__pthread_initialize_minimal_internal'
I181
S'nptl-init.c'
I360
tp23
sS'0xf570'
p24
(S'open64'
I0
S'../sysdeps/unix/syscall-template.S'
I82
tp25
sS'0x6a2f'
p26
(S'__pthread_initialize_minimal_internal'
I399
S'../sysdeps/unix/sysv/linux/bits/sigset.h'
I119
tp27
sS'0xfdb5'
p28
(S'__libc_sigaction'
I203
S'../sysdeps/unix/sysv/linux/x86_64/sigaction.c'
I67
tp29
ssS'/lib/x86_64-linux-gnu/libc-2.15.so'
p30
(dp31
S'0x810da'
p32
(S'_int_malloc'
I3546
S'malloc.c'
I2535
tp33
sS'0x7fc03'
p34
(S'_int_free'
I1657
S'malloc.c'
I4184
tp35
sS'0x7b402'
p36
(S'_IO_file_xsgetn'
I178
S'fileops.c'
I1479
tp37
sS'0x3b960'
p38
(S'__run_exit_handlers'
I240
S'exit.c'
I87
tp39
sS'0xec367'
p40
(S'__tcgetattr'
I3
S'../sysdeps/unix/sysv/linux/tcgetattr.c'
I41
tp41
sS'0xe88a7'
p42
(S'symlink'
I0
S'../sysdeps/unix/syscall-template.S'
I82
tp43
sS'0x81c79'
p44
(S'_int_realloc'
I169
S'malloc.c'
I4403
tp45
sS'0xb1dc2'
p46
(S'__tz_convert'
I306
S'tzset.c'
I626
tp47
sS'0xb207f'
p48
(S'__tzfile_read'
I399
S'tzfile.c'
I183
tp49
sS'0xbfb67'
p50
(S'uname'
I0
S'../sysdeps/unix/syscall-template.S'
I82
tp51
sS'0xe6e50'
p52
(S'__openat_nocancel'
I0
S'../sysdeps/unix/sysv/linux/wordsize-64/../openat.c'
I96
tp53
sS'0xbc3e8'
p54
(S'__fdopendir'
I88
S'../sysdeps/unix/fdopendir.c'
I51
tp55
sS'0xc0f87'
p56
(S'getgid'
I7
S'../sysdeps/unix/syscall-template.S'
I64
tp57
sS'0x6e840'
p58
(S'_IO_new_fclose'
I376
S'iofclose.c'
I62
tp59
sS'0x7a3e0'
p60
(S'_IO_new_file_close_it'
I304
S'fileops.c'
I170
tp61
sS'0x7a025'
p62
(S'_IO_new_file_xsputn'
I83
S'fileops.c'
I1371
tp63
sS'0x7974a'
p64
(S'new_do_write'
I74
S'fileops.c'
I544
tp65
sS'0xc0f67'
p66
(S'getuid'
I7
S'../sysdeps/unix/syscall-template.S'
I64
tp67
sS'0xc2125'
p68
(S'__GI___sysconf'
I848
S'../sysdeps/posix/sysconf.c'
I634
tp69
sS'0x7b32b'
p70
(S'_IO_file_read'
I27
S'fileops.c'
I1225
tp71
sS'0x5de47'
p72
(S'rename'
I0
S'../sysdeps/unix/syscall-template.S'
I82
tp73
sS'0x2c4da'
p74
(S'__GI_setlocale'
I266
S'setlocale.c'
I381
tp75
sS'0x3ab0a'
p76
(S'qsort_r'
I682
S'msort.c'
I190
tp77
sS'0xf28a8'
p78
(S'phys_pages_info'
I72
S'../sysdeps/unix/sysv/linux/getsysstats.c'
I310
tp79
sS'0x6f266'
p80
(S'__fopen_internal'
I117
S'../sysdeps/wordsize-64/../../libio/iofopen.c'
I93
tp81
sS'0xe6cb7'
p82
(S'chmod'
I0
S'../sysdeps/unix/syscall-template.S'
I82
tp83
sS'0x6fcdd'
p84
(S'_IO_fwrite'
I250
S'iofwrite.c'
I45
tp85
sS'0xe8847'
p86
(S'link'
I0
S'../sysdeps/unix/syscall-template.S'
I82
tp87
sS'0x7a629'
p88
(S'_IO_new_file_fopen'
I212
S'fileops.c'
I233
tp89
sS'0x45955'
p90
(S'__realpath'
I400
S'canonicalize.c'
I162
tp91
sS'0x7284b'
p92
(S'__GI_fseek'
I91
S'fseek.c'
I41
tp93
sS'0x74abe'
p94
(S'__GI_fread_unlocked'
I78
S'iofread_u.c'
I46
tp95
sS'0x82f95'
p96
(S'__GI___libc_malloc'
I117
S'malloc.c'
I2925
tp97
sS'0xbbf01'
p98
(S'__readdir'
I129
S'../sysdeps/unix/readdir.c'
I67
tp99
sS'0xe7040'
p100
(S'write'
I0
S'../sysdeps/unix/syscall-template.S'
I82
tp101
sS'0xed5c9'
p102
(S'__gethostname'
I36
S'../sysdeps/unix/sysv/gethostname.c'
I35
tp103
sS'0xecbfe'
p104
(S'__GI___sbrk'
I121
S'sbrk.c'
I44
tp105
sS'0xf287b'
p106
(S'phys_pages_info'
I43
S'../sysdeps/unix/sysv/linux/getsysstats.c'
I300
tp107
sS'0x6ecfb'
p108
(S'_IO_fflush'
I94
S'iofflush.c'
I43
tp109
sS'0x7adec'
p110
(S'_IO_new_file_fopen'
I2199
S'fileops.c'
I230
tp111
sS'0xb2119'
p112
(S'__tzfile_read'
I531
S'tzfile.c'
I205
tp113
sS'0xbc305'
p114
(S'__getdents'
I19
S'../sysdeps/unix/sysv/linux/getdents.c'
I105
tp115
sS'0xecb1a'
p116
(S'__brk'
I3
S'../sysdeps/unix/sysv/linux/x86_64/brk.c'
I32
tp117
sS'0x7b4a0'
p118
(S'_IO_file_xsgetn'
I328
S'fileops.c'
I1458
tp119
sS'0x2dd51'
p120
(S'_nl_load_locale_from_archive'
I1073
S'loadarchive.c'
I207
tp121
sS'0x729cd'
p122
(S'_IO_getc'
I165
S'getc.c'
I41
tp123
sS'0xe6df0'
p124
(S'open64'
I0
S'../sysdeps/unix/syscall-template.S'
I82
tp125
sS'0x7aeb5'
p126
(S'_IO_new_do_write'
I16
S'fileops.c'
I516
tp127
sS'0x7ea9c'
p128
(S'sYSTRIm'
I172
S'malloc.c'
I2812
tp129
sS'0x836fe'
p130
(S'__GI___libc_realloc'
I221
S'malloc.c'
I3062
tp131
sS'0xe89c7'
p132
(S'rmdir'
I0
S'../sysdeps/unix/syscall-template.S'
I82
tp133
sS'0x7c03e'
p134
(S'_IO_default_uflow'
I14
S'genops.c'
I441
tp135
sS'0xe7535'
p136
(S'__GI___libc_fcntl'
I133
S'../sysdeps/unix/sysv/linux/fcntl.c'
I40
tp137
sS'0xe882c'
p138
(S'__isatty'
I4
S'../sysdeps/posix/isatty.c'
I29
tp139
sS'0xbc3cb'
p140
(S'__fdopendir'
I59
S'../sysdeps/unix/fdopendir.c'
I42
tp141
sS'0xe6fe0'
p142
(S'read'
I0
S'../sysdeps/unix/syscall-template.S'
I82
tp143
sS'0x7aff8'
p144
(S'_IO_new_file_underflow'
I296
S'fileops.c'
I621
tp145
sS'0xb19a7'
p146
(S'tzset_internal'
I183
S'tzset.c'
I440
tp147
sS'0xe8907'
p148
(S'readlink'
I0
S'../sysdeps/unix/syscall-template.S'
I82
tp149
sS'0x7a1fe'
p150
(S'_IO_new_file_xsputn'
I574
S'fileops.c'
I1384
tp151
sS'0x856e9'
p152
(S'__GI___default_morecore'
I9
S'morecore.c'
I51
tp153
sS'0xecbc5'
p154
(S'__GI___sbrk'
I69
S'sbrk.c'
I55
tp155
sS'0xc0477'
p156
(S'__execve'
I0
S'../sysdeps/unix/sysv/linux/execve.c'
I60
tp157
sS'0x79c1d'
p158
(S'_IO_new_file_seekoff'
I765
S'fileops.c'
I1102
tp159
sS'0x79883'
p160
(S'_IO_new_file_write'
I67
S'fileops.c'
I1290
tp161
sS'0x2cdf3'
p162
(S'_nl_find_locale'
I195
S'findlocale.c'
I109
tp163
sS'0x2176d'
p164
(S'__libc_start_main'
I237
S'libc-start.c'
I258
tp165
sS'0xe7982'
p166
(S'__getcwd'
I120
S'../sysdeps/unix/sysv/linux/getcwd.c'
I111
tp167
sS'0xc0f97'
p168
(S'getegid'
I7
S'../sysdeps/unix/syscall-template.S'
I64
tp169
sS'0xc0f77'
p170
(S'geteuid'
I7
S'../sysdeps/unix/syscall-template.S'
I64
tp171
sS'0xc0458'
p172
(S'__GI__exit'
I48
S'../sysdeps/unix/sysv/linux/_exit.c'
I33
tp173
sS'0xe8967'
p174
(S'unlink'
I0
S'../sysdeps/unix/syscall-template.S'
I82
tp175
sS'0xe69e5'
p176
(S'__GI___lxstat'
I8
S'../sysdeps/unix/sysv/linux/wordsize-64/lxstat.c'
I38
tp177
sS'0xbbda6'
p178
(S'__alloc_dir'
I160
S'../sysdeps/unix/opendir.c'
I188
tp179
sS'0xbbe15'
p180
(S'__opendirat'
I21
S'../sysdeps/unix/opendir.c'
I127
tp181
sS'0xe6ca7'
p182
(S'umask'
I7
S'../sysdeps/unix/syscall-template.S'
I64
tp183
sS'0x79dc0'
p184
(S'_IO_new_file_sync'
I136
S'fileops.c'
I918
tp185
sS'0x6f783'
p186
(S'_IO_fread'
I133
S'iofread.c'
I44
tp187
sS'0x7018a'
p188
(S'_IO_getline_info'
I170
S'iogetline.c'
I75
tp189
sS'0x74bb0'
p190
(S'__GI_fgets_unlocked'
I80
S'iofgets_u.c'
I61
tp191
sS'0xec637'
p192
(S'getrlimit64'
I0
S'../sysdeps/unix/syscall-template.S'
I82
tp193
ssS'/lib/x86_64-linux-gnu/libcrypto.so.1.0.0'
p194
(dp195
S'0xe9ad2'
p196
(S'lh_insert'
I274
NNtp197
sS'0x61245'
p198
(S'CRYPTO_realloc'
I101
NNtp199
sS'0xed2fd'
p200
(S'ERR_load_crypto_strings'
I29
NNtp201
ssS'/lib/x86_64-linux-gnu/libssl.so.1.0.0'
p202
(dp203
S'0x3a7b9'
p204
(S'SSL_load_error_strings'
I9
NNtp205
ssS'/usr/local/bin/strace'
p206
(dp207
S'0x402a65'
p208
(S'_start'
I41
NNtp209
sS'0x41380f'
p210
(S'init'
I2458
S'strace.c'
I1882
tp211
sS'0x40298a'
p212
(S'main'
I10
S'strace.c'
I2397
tp213
sS'0x412e40'
p214
(S'startup_child'
I944
S'strace.c'
I1203
tp215
sS'0x40296c'
p216
(S'exec_or_die'
I268
S'strace.c'
I1118
tp217
ssS'/lib/x86_64-linux-gnu/ld-2.15.so'
p218
(dp219
S'0x88db'
p220
(S'_dl_map_object'
I1019
S'dl-load.c'
I2428
tp221
sS'0x18327'
p222
(S'access'
I0
S'../sysdeps/unix/syscall-template.S'
I82
tp223
sS'0x350d'
p224
(S'dl_main'
I3629
S'rtld.c'
I1828
tp225
sS'0xf176'
p226
(S'_dl_catch_error'
I102
S'dl-error.c'
I179
tp227
sS'0x5365'
p228
(S'_dl_start'
I848
S'rtld.c'
I338
tp229
sS'0x944d'
p230
(S'_dl_load_cache_lookup'
I477
S'dl-cache.c'
I205
tp231
sS'0x16e7a'
p232
(S'__brk'
I3
S'../sysdeps/unix/sysv/linux/x86_64/brk.c'
I32
tp233
sS'0x1331a'
p234
(S'_dl_open'
I181
S'dl-open.c'
I639
tp235
sS'0x3f79'
p236
(S'dl_main'
I6286
S'rtld.c'
I729
tp237
sS'0x182c7'
p238
(S'read'
I0
S'../sysdeps/unix/syscall-template.S'
I82
tp239
sS'0x892d'
p240
(S'_dl_map_object'
I1101
S'dl-load.c'
I2471
tp241
sS'0x101bc'
p242
(S'_dl_sysdep_read_whole_file'
I44
S'dl-misc.c'
I52
tp243
sS'0x92ce'
p244
(S'_dl_load_cache_lookup'
I94
S'dl-cache.c'
I265
tp245
sS'0xcfe2'
p246
(S'openaux'
I33
S'dl-deps.c'
I65
tp247
sS'0x3354'
p248
(S'dl_main'
I3188
S'rtld.c'
I1436
tp249
sS'0x15f7c'
p250
(S'_dl_important_hwcaps'
I368
S'../elf/dl-sysdep.c'
I420
tp251
sS'0x18267'
p252
(S'open64'
I0
S'../sysdeps/unix/syscall-template.S'
I82
tp253
sS'0x5d59'
p254
(S'open_verify'
I217
S'dl-load.c'
I1933
tp255
sS'0x5d2f'
p256
(S'open_verify'
I175
S'dl-load.c'
I1915
tp257
sS'0x862d'
p258
(S'_dl_map_object'
I333
S'dl-load.c'
I2509
tp259
sS'0x15ac9'
p260
(S'_dl_sysdep_start'
I345
S'../sysdeps/x86_64/dl-machine.h'
I224
tp261
sS'0x1005'
p262
(S'init_tls'
I239
S'rtld.c'
I787
tp263
sS'0x16b8'
p264
(S'_dl_start_user'
I0
NNtp265
sS'0x15b24'
p266
(S'_dl_sysdep_start'
I436
S'../elf/dl-sysdep.c'
I246
tp267
sS'0xd6be'
p268
(S'_dl_map_object_deps'
I558
S'dl-deps.c'
I260
tp269
sS'0x34cb'
p270
(S'dl_main'
I3546
S'rtld.c'
I1732
tp271
sS'0x1384b'
p272
(S'dl_open_worker'
I294
S'dl-open.c'
I225
tp273
sS'0x7fd6'
p274
(S'_dl_init_paths'
I54
S'dl-load.c'
I732
tp275
ssS'/lib/x86_64-linux-gnu/libdl-2.15.so'
p276
(dp277
S'0x152f'
p278
(S'_dlerror_run'
I93
S'dlerror.c'
I164
tp279
sS'0xf26'
p280
(S'dlopen_doit'
I102
S'dlopen.c'
I71
tp281
sS'0xfc1'
p282
(S'__dlopen'
I44
S'dlopen.c'
I88
tp283
sS'0x14ea'
p284
(S'_dlerror_run'
I58
S'dlerror.c'
I133
tp285
ssS'/lib/x86_64-linux-gnu/libz.so.1.2.3.4'
p286
(dp287
S'0x6ae8'
p288
(S'deflateInit2_'
I424
NNtp289
sS'0x6c84'
p290
(S'deflateInit_'
I36
NNtp291
ssS'/usr/bin/python2.7'
p292
(dp293
S'0x4e0dc4'
p294
(S'file_readlines.13263'
I292
NNtp295
sS'0x4fe1ae'
p296
(S'PySys_SetArgvEx'
I510
NNtp297
sS'0x48f639'
p298
(S'posix_umask.66110'
I41
NNtp299
sS'0x546afc'
p300
(S'Py_UniversalNewlineFgets'
I156
NNtp301
sS'0x4870ca'
p302
(S'PyEval_EvalFrameEx'
I3418
NNtp303
sS'0x4cc59e'
p304
(S'initerrno'
I1998
NNtp305
sS'0x4f7496'
p306
(S'PyObject_Call'
I54
NNtp307
sS'0x4866be'
p308
(S'PyEval_EvalFrameEx'
I846
NNtp309
sS'0x4a2adf'
p310
(S'open_the_file.13178'
I287
NNtp311
sS'0x43760e'
p312
(S'slot_tp_init.25612'
I62
NNtp313
sS'0x424522'
p314
(S'function_call'
I418
NNtp315
sS'0x550efa'
p316
(S'PyType_Ready'
I7386
NNtp317
sS'0x47aa14'
p318
(S'r_object.40112'
I852
NNtp319
sS'0x44cf3d'
p320
(S'zipimporter_init.69390'
I637
NNtp321
sS'0x52e7a1'
p322
(S'load_source_module.39052'
I481
NNtp323
sS'0x41b155'
p324
(S'_PyCodecRegistry_Init.36206'
I231
NNtp325
sS'0x5540ca'
p326
(S'PyString_InternInPlace'
I250
NNtp327
sS'0x49d782'
p328
(S'slot_tp_setattro.25472'
I34
NNtp329
sS'0x41fb3b'
p330
(S'load_package.39145'
I443
NNtp331
sS'0x47a7e1'
p332
(S'r_object.40112'
I289
NNtp333
sS'0x53aa85'
p334
(S'Py_InitializeEx'
I1461
NNtp335
sS'0x52edd3'
p336
(S'load_module.39095'
I163
NNtp337
sS'0x44cbda'
p338
(S'_PyImport_GetDynLoadFunc'
I234
NNtp339
sS'0x41fb1a'
p340
(S'load_package.39145'
I410
NNtp341
sS'0x52e501'
p342
(S'PyParser_ASTFromFile'
I129
NNtp343
sS'0x4991f6'
p344
(S'readahead_get_line_skip'
I374
NNtp345
sS'0x49930e'
p346
(S'file_iternext'
I30
NNtp347
sS'0x41bb31'
p348
(S'_start'
I41
NNtp349
sS'0x4c1eae'
p350
(S'_PyObject_GenericSetAttrWithDict'
I462
NNtp351
sS'0x4de61a'
p352
(S'file_readline.13080'
I90
NNtp353
sS'0x4bcd77'
p354
(S'posix_getgid.66072'
I7
NNtp355
sS'0x487179'
p356
(S'PyEval_EvalFrameEx'
I3593
NNtp357
sS'0x486e02'
p358
(S'PyEval_EvalFrameEx'
I2706
NNtp359
sS'0x4928f4'
p360
(S'file_flush'
I116
NNtp361
sS'0x52bcd6'
p362
(S'finisignal.49501'
I150
NNtp363
sS'0x49d412'
p364
(S'slot_mp_ass_subscript.25569'
I34
NNtp365
sS'0x4280ab'
p366
(S'builtin___import__.32787'
I171
NNtp367
sS'0x54e79d'
p368
(S'_PyObject_GC_Malloc'
I29
NNtp369
sS'0x489df8'
p370
(S'PyEval_EvalFrameEx'
I14984
NNtp371
sS'0x47ba58'
p372
(S'PyMarshal_ReadLastObjectFromFile'
I88
NNtp373
sS'0x4b0351'
p374
(S'slot_sq_contains.25383'
I81
NNtp375
sS'0x48776a'
p376
(S'PyEval_EvalFrameEx'
I5114
NNtp377
sS'0x488dc3'
p378
(S'PyEval_EvalFrameEx'
I10835
NNtp379
sS'0x49d995'
p380
(S'PyObject_CallFunction'
I309
NNtp381
sS'0x4bcd86'
p382
(S'posix_getegid.66080'
I6
NNtp383
sS'0x4239f8'
p384
(S'PyImport_ExecCodeModuleEx'
I456
NNtp385
sS'0x546e54'
p386
(S'Py_UniversalNewlineFread'
I180
NNtp387
sS'0x52df9a'
p388
(S'parsetok.2431'
I106
NNtp389
sS'0x44e3cb'
p390
(S'signal_signal.49507'
I187
NNtp391
sS'0x425a79'
p392
(S'Py_Main'
I761
NNtp393
sS'0x52f167'
p394
(S'import_submodule.39106'
I423
NNtp395
sS'0x51f07c'
p396
(S'file_isatty.13060'
I108
NNtp397
sS'0x4f8045'
p398
(S'wrapperdescr_call.11030'
I149
NNtp399
sS'0x4bcd67'
p400
(S'posix_getuid.66052'
I7
NNtp401
sS'0x4243f0'
p402
(S'function_call'
I112
NNtp403
sS'0x44a829'
p404
(S'dev_urandom_python'
I105
NNtp405
sS'0x53a8f7'
p406
(S'Py_InitializeEx'
I1063
NNtp407
sS'0x4f8113'
p408
(S'wrapperdescr_call.11030'
I355
NNtp409
sS'0x52f292'
p410
(S'import_submodule.39106'
I722
NNtp411
sS'0x489ac4'
p412
(S'PyEval_EvalFrameEx'
I14164
NNtp413
sS'0x509361'
p414
(S'PyZlib_compress.65233'
I161
NNtp415
sS'0x424631'
p416
(S'PyRun_FileExFlags'
I113
NNtp417
sS'0x43758e'
p418
(S'slot_tp_call.25635'
I62
NNtp419
sS'0x425acd'
p420
(S'Py_Main'
I845
NNtp421
sS'0x53a5ec'
p422
(S'Py_InitializeEx'
I284
NNtp423
sS'0x47a8f6'
p424
(S'r_object.40112'
I566
NNtp425
sS'0x51fc74'
p426
(S'PyDict_New'
I276
NNtp427
sS'0x425cb6'
p428
(S'Py_Main'
I1334
NNtp429
sS'0x52f19b'
p430
(S'import_submodule.39106'
I475
NNtp431
sS'0x52e731'
p432
(S'load_source_module.39052'
I369
NNtp433
sS'0x4dfc9e'
p434
(S'file_read.13271'
I270
NNtp435
sS'0x5401f5'
p436
(S'calculate_path.47652'
I229
NNtp437
sS'0x4fa73a'
p438
(S'_PyObject_GenericGetAttrWithDict'
I394
NNtp439
sS'0x4fedd7'
p440
(S'_PyBuiltin_Init'
I39
NNtp441
sS'0x48734b'
p442
(S'PyEval_EvalFrameEx'
I4059
NNtp443
sS'0x57a7d5'
p444
(S'r_long.40069'
I181
NNtp445
sS'0x491145'
p446
(S'socket_gethostname.59267'
I85
NNtp447
sS'0x4c62bf'
p448
(S'decoding_fgets.4100'
I79
NNtp449
sS'0x50876f'
p450
(S'wrap_objobjargproc.24838'
I79
NNtp451
sS'0x50393c'
p452
(S'initsignal'
I780
NNtp453
sS'0x47ba73'
p454
(S'PyMarshal_ReadLastObjectFromFile'
I115
NNtp455
sS'0x509317'
p456
(S'PyZlib_compress.65233'
I87
NNtp457
sS'0x44cf5d'
p458
(S'zipimporter_init.69390'
I669
NNtp459
sS'0x50c0f6'
p460
(S'type_call.25261'
I246
NNtp461
sS'0x52fc26'
p462
(S'import_module_level.isra.3.39132'
I1238
NNtp463
sS'0x49ee7d'
p464
(S'init_builtin.39040'
I141
NNtp465
sS'0x49c537'
p466
(S'PyObject_CallMethod'
I343
NNtp467
sS'0x5545ae'
p468
(S'slot_tp_descr_get.25329'
I190
NNtp469
sS'0x4924a1'
p470
(S'close_the_file.13066'
I161
NNtp471
sS'0x47baa4'
p472
(S'PyMarshal_ReadLastObjectFromFile'
I164
NNtp473
sS'0x50d7e2'
p474
(S'PyTuple_New'
I322
NNtp475
sS'0x4878d9'
p476
(S'PyEval_EvalFrameEx'
I5481
NNtp477
sS'0x424a8c'
p478
(S'PyRun_SimpleFileExFlags'
I812
NNtp479
sS'0x52bc15'
p480
(S'PyOS_setsig'
I53
NNtp481
sS'0x488862'
p482
(S'PyEval_EvalFrameEx'
I9458
NNtp483
sS'0x53a8d0'
p484
(S'Py_InitializeEx'
I1024
NNtp485
sS'0x53a756'
p486
(S'Py_InitializeEx'
I646
NNtp487
sS'0x4869f2'
p488
(S'PyEval_EvalFrameEx'
I1666
NNtp489
sS'0x4e3235'
p490
(S'posix_listdir.66130'
I181
NNtp491
sS'0x490c69'
p492
(S'posix_chmod.66146'
I105
NNtp493
sS'0x492616'
p494
(S'file_close.13069'
I22
NNtp495
sS'0x5038d5'
p496
(S'initsignal'
I677
NNtp497
sS'0x49d2b6'
p498
(S'call_method.25458'
I278
NNtp499
sS'0x467d96'
p500
(S'instance_getattr2.part.5.8642'
I198
NNtp501
sS'0x474b4e'
p502
(S'inittime'
I110
NNtp503
sS'0x491272'
p504
(S'posix_getcwd.66138'
I114
NNtp505
sS'0x47f148'
p506
(S'Py_Exit'
I8
NNtp507
sS'0x4c05ad'
p508
(S'load_next.39111'
I349
NNtp509
sS'0x52d274'
p510
(S'tok_get'
I276
NNtp511
sS'0x52fb73'
p512
(S'import_module_level.isra.3.39132'
I1059
NNtp513
sS'0x52f66a'
p514
(S'ensure_fromlist.part.7'
I586
NNtp515
sS'0x53ab4d'
p516
(S'Py_InitializeEx'
I1661
NNtp517
sS'0x46762a'
p518
(S'instancemethod_call.8548'
I186
NNtp519
sS'0x50c038'
p520
(S'type_call.25261'
I56
NNtp521
sS'0x49136a'
p522
(S'posix_1str'
I106
NNtp523
sS'0x47bacf'
p524
(S'PyMarshal_ReadLastObjectFromFile'
I207
NNtp525
sS'0x53a6b3'
p526
(S'Py_InitializeEx'
I483
NNtp527
sS'0x425b90'
p528
(S'Py_Main'
I1040
NNtp529
sS'0x53a765'
p530
(S'Py_InitializeEx'
I661
NNtp531
sS'0x493f88'
p532
(S'get_line.13076'
I504
NNtp533
sS'0x4b3aba'
p534
(S'PyList_Append'
I266
NNtp535
sS'0x4749bf'
p536
(S'inittimezone.52719'
I79
NNtp537
sS'0x53aa07'
p538
(S'Py_InitializeEx'
I1335
NNtp539
sS'0x47a8cf'
p540
(S'r_object.40112'
I527
NNtp541
sS'0x52e6cd'
p542
(S'load_source_module.39052'
I269
NNtp543
sS'0x4c0523'
p544
(S'load_next.39111'
I211
NNtp545
sS'0x5405cc'
p546
(S'calculate_path.47652'
I1212
NNtp547
sS'0x488576'
p548
(S'PyEval_EvalFrameEx'
I8710
NNtp549
sS'0x47a852'
p550
(S'r_object.40112'
I402
NNtp551
sS'0x4c30d8'
p552
(S'_PyCodec_Lookup'
I488
NNtp553
sS'0x53a67c'
p554
(S'Py_InitializeEx'
I428
NNtp555
sS'0x52fa64'
p556
(S'import_module_level.isra.3.39132'
I788
NNtp557
sS'0x4df4eb'
p558
(S'posix_readlink.66118'
I251
NNtp559
sS'0x55699b'
p560
(S'_Py_ReadyTypes'
I11
NNtp561
sS'0x4ca827'
p562
(S'_inscode'
I119
NNtp563
sS'0x5088d3'
p564
(S'builtin_getattr.32718'
I115
NNtp565
sS'0x4d033d'
p566
(S'enum_next.11428'
I45
NNtp567
sS'0x53a5bb'
p568
(S'Py_InitializeEx'
I235
NNtp569
sS'0x49ec09'
p570
(S'_PyImport_LoadDynamicModule'
I105
NNtp571
sS'0x4e32a7'
p572
(S'posix_listdir.66130'
I295
NNtp573
sS'0x53a76a'
p574
(S'Py_InitializeEx'
I666
NNtp575
sS'0x44dfba'
p576
(S'posix_urandom'
I74
NNtp577
sS'0x4c40e3'
p578
(S'PyImport_GetImporter'
I259
NNtp579
sS'0x4c303f'
p580
(S'_PyCodec_Lookup'
I335
NNtp581
sS'0x467e3b'
p582
(S'instance_getattr.8654'
I123
NNtp583
sS'0x48c09f'
p584
(S'PyEval_EvalFrameEx'
I23855
NNtp585
sS'0x486614'
p586
(S'PyEval_EvalFrameEx'
I676
NNtp587
sS'0x52e688'
p588
(S'load_source_module.39052'
I200
NNtp589
sS'0x486c6a'
p590
(S'PyEval_EvalFrameEx'
I2298
NNtp591
sS'0x425a36'
p592
(S'Py_Main'
I694
NNtp593
sS'0x42492e'
p594
(S'PyRun_SimpleFileExFlags'
I462
NNtp595
sS'0x47f27c'
p596
(S'handle_system_exit.42667'
I300
NNtp597
sS'0x44e0fa'
p598
(S'fcntl_fcntl.57669'
I218
NNtp599
sS'0x4c3f1f'
p600
(S'get_path_importer.38887'
I303
NNtp601
sS'0x52329f'
p602
(S'PyString_FromStringAndSize'
I111
NNtp603
sS'0x425c89'
p604
(S'Py_Main'
I1289
NNtp605
sS'0x4f778d'
p606
(S'slot_tp_new.24856'
I157
NNtp607
sS'0x4c20ed'
p608
(S'PyObject_SetAttr'
I109
NNtp609
sS'0x4a2d46'
p610
(S'file_init.13197'
I230
NNtp611
sS'0x4c2130'
p612
(S'PyObject_SetAttr'
I176
NNtp613
sS'0x48d930'
p614
(S'PyEval_EvalCodeEx'
I416
NNtp615
sS'0x425bf7'
p616
(S'Py_Main'
I1143
NNtp617
sS'0x5629f6'
p618
(S'posix_geteuid.66076'
I6
NNtp619
sS'0x47ebbd'
p620
(S'Py_Finalize'
I237
NNtp621
sS'0x52fefa'
p622
(S'PyImport_ImportModuleLevel'
I58
NNtp623
sS'0x4246a1'
p624
(S'PyRun_FileExFlags'
I225
NNtp625
sS'0x47aa2a'
p626
(S'r_object.40112'
I874
NNtp627
sS'0x426bef'
p628
(S'PyImport_Import'
I271
NNtp629
sS'0x4f87cb'
p630
(S'PyObject_CallFunctionObjArgs'
I171
NNtp631
sS'0x486bb8'
p632
(S'PyEval_EvalFrameEx'
I2120
NNtp633
sS'0x4a00f5'
p634
(S'find_module.38895'
I821
NNtp635
sS'0x5508ef'
p636
(S'PyType_Ready'
I5839
NNtp637
sS'0x48fbfe'
p638
(S'posix_2str'
I110
NNtp639
sS'0x52bc60'
p640
(S'finisignal.49501'
I32
NNtp641
sS'0x4bffbd'
p642
(S'Py_InitModule4_64'
I221
NNtp643
sS'0x491537'
p644
(S'posix_do_stat.isra.1'
I135
NNtp645
sS'0x4230da'
p646
(S'gen_send_ex.isra.0'
I154
NNtp647
sS'0x53a852'
p648
(S'Py_InitializeEx'
I898
NNtp649
sS'0x488418'
p650
(S'PyEval_EvalFrameEx'
I8360
NNtp651
sS'0x4248db'
p652
(S'PyRun_SimpleFileExFlags'
I379
NNtp653
sS'0x44cf82'
p654
(S'zipimporter_init.69390'
I706
NNtp655
sS'0x5373ef'
p656
(S'init_ssl'
I159
NNtp657
sS'0x4f7aa6'
p658
(S'PyEval_CallObjectWithKeywords'
I54
NNtp659
sS'0x52cb8e'
p660
(S'tok_nextc'
I238
NNtp661
sS'0x48c1b6'
p662
(S'PyEval_EvalFrameEx'
I24134
NNtp663
sS'0x490d48'
p664
(S'posix_open.65953'
I136
NNtp665
sS'0x44a87c'
p666
(S'dev_urandom_python'
I188
NNtp667
sS'0x4bd8bf'
p668
(S'dictresize.18189'
I111
NNtp669
sS'0x4fe185'
p670
(S'PySys_SetArgvEx'
I469
NNtp671
sS'0x53f9de'
p672
(S'PyInterpreterState_New'
I14
NNtp673
sS'0x4e5b5b'
p674
(S'file_write.13091'
I203
NNtp675
sS'0x547d38'
p676
(S'PyObject_Malloc'
I552
NNtp677
sS'0x45ea38'
p678
(S'_PySys_Init'
I1320
NNtp679
ss.