(dp0
S'content'
p1
(imystruct
Struct
p2
(dp3
S'omitmicro'
p4
(lp5
(I18
I19
tp6
a(I18
I20
tp7
a(I18
I21
tp8
a(I18
I22
tp9
a(I18
I23
tp10
a(I18
I24
tp11
a(I18
I25
tp12
a(I18
I28
tp13
a(I18
I29
tp14
a(I18
I31
tp15
a(I18
I32
tp16
a(I18
I33
tp17
a(I18
I34
tp18
a(I18
I35
tp19
a(I18
I36
tp20
a(I18
I37
tp21
a(I18
I39
tp22
a(I18
I42
tp23
a(I18
I43
tp24
a(I18
I44
tp25
a(I19
I20
tp26
a(I19
I21
tp27
a(I19
I22
tp28
a(I19
I23
tp29
a(I19
I24
tp30
a(I19
I25
tp31
a(I19
I28
tp32
a(I19
I29
tp33
a(I19
I31
tp34
a(I19
I32
tp35
a(I19
I33
tp36
a(I19
I34
tp37
a(I19
I35
tp38
a(I19
I36
tp39
a(I19
I37
tp40
a(I19
I39
tp41
a(I19
I42
tp42
a(I19
I43
tp43
a(I19
I44
tp44
a(I20
I21
tp45
a(I20
I22
tp46
a(I20
I23
tp47
a(I20
I24
tp48
a(I20
I25
tp49
a(I20
I28
tp50
a(I20
I29
tp51
a(I20
I31
tp52
a(I20
I32
tp53
a(I20
I33
tp54
a(I20
I34
tp55
a(I20
I35
tp56
a(I20
I36
tp57
a(I20
I37
tp58
a(I20
I39
tp59
a(I20
I42
tp60
a(I20
I43
tp61
a(I20
I44
tp62
a(I21
I22
tp63
a(I21
I23
tp64
a(I21
I24
tp65
a(I21
I25
tp66
a(I21
I28
tp67
a(I21
I29
tp68
a(I21
I31
tp69
a(I21
I32
tp70
a(I21
I33
tp71
a(I21
I34
tp72
a(I21
I35
tp73
a(I21
I36
tp74
a(I21
I37
tp75
a(I21
I39
tp76
a(I21
I42
tp77
a(I21
I43
tp78
a(I21
I44
tp79
a(I24
I25
tp80
a(I24
I28
tp81
a(I24
I29
tp82
a(I24
I31
tp83
a(I24
I32
tp84
a(I24
I33
tp85
a(I24
I34
tp86
a(I24
I35
tp87
a(I24
I36
tp88
a(I24
I37
tp89
a(I24
I39
tp90
a(I24
I42
tp91
a(I24
I43
tp92
a(I24
I44
tp93
a(I31
I32
tp94
a(I31
I33
tp95
a(I31
I34
tp96
a(I31
I35
tp97
a(I31
I36
tp98
a(I31
I37
tp99
a(I31
I39
tp100
a(I31
I42
tp101
a(I31
I43
tp102
a(I31
I44
tp103
a(I32
I33
tp104
a(I32
I34
tp105
a(I32
I35
tp106
a(I32
I36
tp107
a(I32
I37
tp108
a(I32
I39
tp109
a(I32
I42
tp110
a(I32
I43
tp111
a(I32
I44
tp112
a(I33
I34
tp113
a(I33
I35
tp114
a(I33
I36
tp115
a(I33
I37
tp116
a(I33
I39
tp117
a(I33
I42
tp118
a(I33
I43
tp119
a(I33
I44
tp120
a(I34
I35
tp121
a(I34
I36
tp122
a(I34
I37
tp123
a(I34
I39
tp124
a(I34
I42
tp125
a(I34
I43
tp126
a(I34
I44
tp127
a(I35
I36
tp128
a(I35
I37
tp129
a(I35
I39
tp130
a(I35
I42
tp131
a(I35
I43
tp132
a(I35
I44
tp133
a(I37
I39
tp134
a(I37
I42
tp135
a(I37
I43
tp136
a(I37
I44
tp137
a(I42
I43
tp138
a(I42
I44
tp139
asS'omit_one'
p140
(dp141
S'aligned'
p142
(lp143
((I31
I0
tp144
(I31
I1
tp145
tp146
a(g144
(I31
I2
tp147
tp148
a(g144
(I31
I3
tp149
tp150
a(g144
(I31
I4
tp151
tp152
a(g144
(I31
I5
tp153
tp154
a(g144
(I31
I6
tp155
tp156
a(g144
(I31
I7
tp157
tp158
a((I31
I1
tp159
(I31
I2
tp160
tp161
a(g159
(I31
I3
tp162
tp163
a(g159
(I31
I4
tp164
tp165
a(g159
(I31
I5
tp166
tp167
a(g159
(I31
I6
tp168
tp169
a(g159
(I31
I7
tp170
tp171
a((I31
I2
tp172
(I31
I3
tp173
tp174
a(g172
(I31
I4
tp175
tp176
a(g172
(I31
I5
tp177
tp178
a(g172
(I31
I6
tp179
tp180
a(g172
(I31
I7
tp181
tp182
a((I31
I3
tp183
(I31
I4
tp184
tp185
a(g183
(I31
I5
tp186
tp187
a(g183
(I31
I6
tp188
tp189
a(g183
(I31
I7
tp190
tp191
a((I31
I4
tp192
(I31
I5
tp193
tp194
a(g192
(I31
I6
tp195
tp196
a(g192
(I31
I7
tp197
tp198
a((I31
I5
tp199
(I31
I6
tp200
tp201
a(g199
(I31
I7
tp202
tp203
a((I31
I6
tp204
(I31
I7
tp205
tp206
asS'three'
p207
(lp208
sS'one'
p209
(lp210
ssS'prefix'
p211
(dp212
g142
(lp213
(I0
I0
tp214
a(I1
I0
tp215
a(I3
I1
tp216
a(I4
I2
tp217
a(I4
I5
tp218
a(I5
I1
tp219
a(I6
I2
tp220
a(I6
I5
tp221
a(I7
I1
tp222
a(I8
I2
tp223
a(I8
I5
tp224
a(I9
I1
tp225
a(I10
I2
tp226
a(I10
I5
tp227
a(I11
I1
tp228
a(I12
I2
tp229
a(I12
I5
tp230
a(I13
I1
tp231
a(I14
I2
tp232
a(I14
I5
tp233
a(I15
I1
tp234
a(I16
I2
tp235
a(I16
I5
tp236
a(I17
I1
tp237
a(I18
I2
tp238
a(I18
I5
tp239
a(I19
I0
tp240
a(I20
I0
tp241
a(I21
I0
tp242
a(I22
I0
tp243
a(I23
I0
tp244
a(I24
I0
tp245
a(I25
I2
tp246
a(I25
I5
tp247
a(I26
I0
tp248
a(I27
I0
tp249
a(I28
I2
tp250
a(I28
I5
tp251
a(I29
I2
tp252
a(I29
I5
tp253
a(I30
I0
tp254
a(I31
I0
tp255
a(I31
I1
tp256
a(I31
I2
tp257
a(I31
I3
tp258
a(I31
I4
tp259
a(I31
I5
tp260
a(I31
I6
tp261
a(I31
I7
tp262
a(I32
I0
tp263
a(I33
I0
tp264
a(I34
I0
tp265
a(I35
I0
tp266
a(I36
I0
tp267
a(I37
I0
tp268
a(I38
I0
tp269
a(I39
I0
tp270
a(I41
I0
tp271
a(I42
I0
tp272
a(I43
I8
tp273
a(I44
I1
tp274
asg207
(lp275
(I0
I0
tp276
a(I1
I0
tp277
a(I3
I5
tp278
a(I4
I5
tp279
a(I5
I5
tp280
a(I6
I5
tp281
a(I7
I5
tp282
a(I8
I5
tp283
a(I9
I5
tp284
a(I10
I5
tp285
a(I11
I5
tp286
a(I12
I5
tp287
a(I13
I5
tp288
a(I14
I5
tp289
a(I15
I5
tp290
a(I16
I5
tp291
a(I17
I5
tp292
a(I18
I5
tp293
a(I19
I2
tp294
a(I20
I2
tp295
a(I21
I2
tp296
a(I22
I0
tp297
a(I23
I0
tp298
a(I24
I1
tp299
a(I25
I17
tp300
a(I26
I0
tp301
a(I27
I0
tp302
a(I28
I17
tp303
a(I29
I17
tp304
a(I30
I0
tp305
a(I31
I2
tp306
a(I32
I1
tp307
a(I33
I1
tp308
a(I34
I2
tp309
a(I35
I2
tp310
a(I36
I0
tp311
a(I37
I1
tp312
a(I38
I0
tp313
a(I39
I2
tp314
a(I41
I0
tp315
a(I42
I1
tp316
a(I43
I3
tp317
a(I44
I3
tp318
asg209
(lp319
(I0
I0
tp320
a(I1
I0
tp321
a(I3
I1
tp322
a(I4
I5
tp323
a(I5
I1
tp324
a(I6
I5
tp325
a(I7
I1
tp326
a(I8
I5
tp327
a(I9
I1
tp328
a(I10
I5
tp329
a(I11
I1
tp330
a(I12
I5
tp331
a(I13
I1
tp332
a(I14
I5
tp333
a(I15
I1
tp334
a(I16
I5
tp335
a(I17
I1
tp336
a(I18
I5
tp337
a(I19
I0
tp338
a(I20
I0
tp339
a(I21
I0
tp340
a(I22
I0
tp341
a(I23
I0
tp342
a(I24
I0
tp343
a(I25
I5
tp344
a(I26
I0
tp345
a(I27
I0
tp346
a(I28
I5
tp347
a(I29
I5
tp348
a(I30
I0
tp349
a(I31
I0
tp350
a(I32
I0
tp351
a(I33
I0
tp352
a(I34
I0
tp353
a(I35
I0
tp354
a(I36
I0
tp355
a(I37
I0
tp356
a(I38
I0
tp357
a(I39
I0
tp358
a(I41
I0
tp359
a(I42
I0
tp360
a(I43
I1
tp361
a(I44
I1
tp362
assbsS'checksums'
p363
S'22373   176\n'
p364
s.