(dp0
S'content'
p1
(imystruct
Struct
p2
(dp3
S'omitmicro'
p4
(lp5
(I18
I19
tp6
a(I18
I20
tp7
a(I18
I21
tp8
a(I18
I22
tp9
a(I18
I23
tp10
a(I18
I24
tp11
a(I19
I20
tp12
a(I19
I21
tp13
a(I19
I22
tp14
a(I19
I23
tp15
a(I19
I24
tp16
a(I19
I25
tp17
a(I19
I28
tp18
a(I19
I29
tp19
a(I19
I31
tp20
a(I19
I32
tp21
a(I19
I33
tp22
a(I19
I34
tp23
a(I19
I35
tp24
a(I19
I36
tp25
a(I19
I37
tp26
a(I19
I39
tp27
a(I19
I42
tp28
a(I19
I43
tp29
a(I19
I44
tp30
a(I20
I21
tp31
a(I20
I22
tp32
a(I20
I23
tp33
a(I20
I24
tp34
a(I20
I25
tp35
a(I20
I28
tp36
a(I20
I29
tp37
a(I20
I31
tp38
a(I20
I32
tp39
a(I20
I33
tp40
a(I20
I34
tp41
a(I20
I35
tp42
a(I20
I36
tp43
a(I20
I37
tp44
a(I20
I39
tp45
a(I20
I42
tp46
a(I20
I43
tp47
a(I20
I44
tp48
a(I21
I22
tp49
a(I21
I23
tp50
a(I21
I24
tp51
a(I21
I25
tp52
a(I21
I28
tp53
a(I21
I29
tp54
a(I21
I31
tp55
a(I21
I32
tp56
a(I21
I33
tp57
a(I21
I34
tp58
a(I21
I35
tp59
a(I21
I36
tp60
a(I21
I37
tp61
a(I21
I39
tp62
a(I21
I42
tp63
a(I21
I43
tp64
a(I21
I44
tp65
a(I24
I25
tp66
a(I24
I28
tp67
a(I24
I29
tp68
a(I24
I31
tp69
a(I24
I32
tp70
a(I24
I33
tp71
a(I24
I34
tp72
a(I24
I35
tp73
a(I24
I36
tp74
a(I24
I37
tp75
a(I24
I39
tp76
a(I24
I42
tp77
a(I24
I43
tp78
a(I24
I44
tp79
a(I31
I32
tp80
a(I31
I33
tp81
a(I31
I34
tp82
a(I31
I35
tp83
a(I31
I36
tp84
a(I31
I37
tp85
a(I31
I39
tp86
a(I31
I42
tp87
a(I31
I43
tp88
a(I31
I44
tp89
a(I32
I33
tp90
a(I32
I34
tp91
a(I32
I35
tp92
a(I32
I36
tp93
a(I32
I37
tp94
a(I32
I39
tp95
a(I32
I42
tp96
a(I32
I43
tp97
a(I32
I44
tp98
a(I33
I34
tp99
a(I33
I35
tp100
a(I33
I36
tp101
a(I33
I37
tp102
a(I33
I39
tp103
a(I33
I42
tp104
a(I33
I43
tp105
a(I33
I44
tp106
a(I34
I35
tp107
a(I34
I36
tp108
a(I34
I37
tp109
a(I34
I39
tp110
a(I34
I42
tp111
a(I34
I43
tp112
a(I34
I44
tp113
a(I35
I36
tp114
a(I35
I37
tp115
a(I35
I39
tp116
a(I35
I42
tp117
a(I35
I43
tp118
a(I35
I44
tp119
a(I37
I39
tp120
a(I37
I42
tp121
a(I37
I43
tp122
a(I37
I44
tp123
a(I42
I43
tp124
a(I42
I44
tp125
asS'omit_one'
p126
(dp127
S'aligned'
p128
(lp129
((I31
I0
tp130
(I31
I1
tp131
tp132
a(g130
(I31
I2
tp133
tp134
a(g130
(I31
I3
tp135
tp136
a(g130
(I31
I4
tp137
tp138
a(g130
(I31
I5
tp139
tp140
a(g130
(I31
I6
tp141
tp142
a(g130
(I31
I7
tp143
tp144
a((I31
I1
tp145
(I31
I2
tp146
tp147
a(g145
(I31
I3
tp148
tp149
a(g145
(I31
I4
tp150
tp151
a(g145
(I31
I5
tp152
tp153
a(g145
(I31
I6
tp154
tp155
a(g145
(I31
I7
tp156
tp157
a((I31
I2
tp158
(I31
I3
tp159
tp160
a(g158
(I31
I4
tp161
tp162
a(g158
(I31
I5
tp163
tp164
a(g158
(I31
I6
tp165
tp166
a(g158
(I31
I7
tp167
tp168
a((I31
I3
tp169
(I31
I4
tp170
tp171
a(g169
(I31
I5
tp172
tp173
a(g169
(I31
I6
tp174
tp175
a(g169
(I31
I7
tp176
tp177
a((I31
I4
tp178
(I31
I5
tp179
tp180
a(g178
(I31
I6
tp181
tp182
a(g178
(I31
I7
tp183
tp184
a((I31
I5
tp185
(I31
I6
tp186
tp187
a(g185
(I31
I7
tp188
tp189
a((I31
I6
tp190
(I31
I7
tp191
tp192
asS'three'
p193
(lp194
sS'one'
p195
(lp196
ssS'prefix'
p197
(dp198
g128
(lp199
(I0
I0
tp200
a(I1
I0
tp201
a(I3
I0
tp202
a(I3
I1
tp203
a(I4
I0
tp204
a(I4
I1
tp205
a(I4
I2
tp206
a(I4
I3
tp207
a(I4
I4
tp208
a(I4
I5
tp209
a(I5
I0
tp210
a(I5
I1
tp211
a(I6
I0
tp212
a(I6
I1
tp213
a(I6
I2
tp214
a(I6
I3
tp215
a(I6
I4
tp216
a(I6
I5
tp217
a(I7
I0
tp218
a(I7
I1
tp219
a(I8
I0
tp220
a(I8
I1
tp221
a(I8
I2
tp222
a(I8
I3
tp223
a(I8
I4
tp224
a(I8
I5
tp225
a(I9
I0
tp226
a(I9
I1
tp227
a(I10
I0
tp228
a(I10
I1
tp229
a(I10
I2
tp230
a(I10
I3
tp231
a(I10
I4
tp232
a(I10
I5
tp233
a(I11
I0
tp234
a(I11
I1
tp235
a(I12
I0
tp236
a(I12
I1
tp237
a(I12
I2
tp238
a(I12
I3
tp239
a(I12
I4
tp240
a(I12
I5
tp241
a(I13
I0
tp242
a(I13
I1
tp243
a(I14
I0
tp244
a(I14
I1
tp245
a(I14
I2
tp246
a(I14
I3
tp247
a(I14
I4
tp248
a(I14
I5
tp249
a(I15
I0
tp250
a(I15
I1
tp251
a(I16
I0
tp252
a(I16
I1
tp253
a(I16
I2
tp254
a(I16
I3
tp255
a(I16
I4
tp256
a(I16
I5
tp257
a(I17
I0
tp258
a(I17
I1
tp259
a(I18
I0
tp260
a(I18
I1
tp261
a(I18
I2
tp262
a(I18
I3
tp263
a(I18
I4
tp264
a(I18
I5
tp265
a(I19
I0
tp266
a(I20
I0
tp267
a(I21
I0
tp268
a(I22
I0
tp269
a(I23
I0
tp270
a(I24
I0
tp271
a(I25
I0
tp272
a(I25
I1
tp273
a(I25
I2
tp274
a(I25
I3
tp275
a(I25
I4
tp276
a(I25
I5
tp277
a(I26
I0
tp278
a(I27
I0
tp279
a(I28
I0
tp280
a(I28
I1
tp281
a(I28
I2
tp282
a(I28
I3
tp283
a(I28
I4
tp284
a(I28
I5
tp285
a(I29
I0
tp286
a(I29
I1
tp287
a(I29
I2
tp288
a(I29
I3
tp289
a(I29
I4
tp290
a(I29
I5
tp291
a(I30
I0
tp292
a(I31
I0
tp293
a(I31
I1
tp294
a(I31
I2
tp295
a(I31
I3
tp296
a(I31
I4
tp297
a(I31
I5
tp298
a(I31
I6
tp299
a(I31
I7
tp300
a(I32
I0
tp301
a(I33
I0
tp302
a(I34
I0
tp303
a(I35
I0
tp304
a(I36
I0
tp305
a(I37
I0
tp306
a(I38
I0
tp307
a(I39
I0
tp308
a(I41
I0
tp309
a(I42
I0
tp310
a(I43
I8
tp311
a(I44
I1
tp312
asg193
(lp313
(I0
I0
tp314
a(I1
I0
tp315
a(I3
I5
tp316
a(I4
I5
tp317
a(I5
I5
tp318
a(I6
I5
tp319
a(I7
I5
tp320
a(I8
I5
tp321
a(I9
I5
tp322
a(I10
I5
tp323
a(I11
I5
tp324
a(I12
I5
tp325
a(I13
I5
tp326
a(I14
I5
tp327
a(I15
I5
tp328
a(I16
I5
tp329
a(I17
I5
tp330
a(I18
I5
tp331
a(I19
I2
tp332
a(I20
I2
tp333
a(I21
I2
tp334
a(I22
I0
tp335
a(I23
I0
tp336
a(I24
I1
tp337
a(I25
I17
tp338
a(I26
I0
tp339
a(I27
I0
tp340
a(I28
I17
tp341
a(I29
I17
tp342
a(I30
I0
tp343
a(I31
I2
tp344
a(I32
I1
tp345
a(I33
I1
tp346
a(I34
I2
tp347
a(I35
I2
tp348
a(I36
I0
tp349
a(I37
I1
tp350
a(I38
I0
tp351
a(I39
I2
tp352
a(I41
I0
tp353
a(I42
I1
tp354
a(I43
I3
tp355
a(I44
I3
tp356
asg195
(lp357
(I0
I0
tp358
a(I1
I0
tp359
a(I3
I0
tp360
a(I3
I1
tp361
a(I4
I0
tp362
a(I4
I1
tp363
a(I4
I2
tp364
a(I4
I3
tp365
a(I4
I4
tp366
a(I4
I5
tp367
a(I5
I0
tp368
a(I5
I1
tp369
a(I6
I0
tp370
a(I6
I1
tp371
a(I6
I2
tp372
a(I6
I3
tp373
a(I6
I4
tp374
a(I6
I5
tp375
a(I7
I0
tp376
a(I7
I1
tp377
a(I8
I0
tp378
a(I8
I1
tp379
a(I8
I2
tp380
a(I8
I3
tp381
a(I8
I4
tp382
a(I8
I5
tp383
a(I9
I0
tp384
a(I9
I1
tp385
a(I10
I0
tp386
a(I10
I1
tp387
a(I10
I2
tp388
a(I10
I3
tp389
a(I10
I4
tp390
a(I10
I5
tp391
a(I11
I0
tp392
a(I11
I1
tp393
a(I12
I0
tp394
a(I12
I1
tp395
a(I12
I2
tp396
a(I12
I3
tp397
a(I12
I4
tp398
a(I12
I5
tp399
a(I13
I0
tp400
a(I13
I1
tp401
a(I14
I0
tp402
a(I14
I1
tp403
a(I14
I2
tp404
a(I14
I3
tp405
a(I14
I4
tp406
a(I14
I5
tp407
a(I15
I0
tp408
a(I15
I1
tp409
a(I16
I0
tp410
a(I16
I1
tp411
a(I16
I2
tp412
a(I16
I3
tp413
a(I16
I4
tp414
a(I16
I5
tp415
a(I17
I0
tp416
a(I17
I1
tp417
a(I18
I0
tp418
a(I18
I1
tp419
a(I18
I2
tp420
a(I18
I3
tp421
a(I18
I4
tp422
a(I18
I5
tp423
a(I19
I0
tp424
a(I20
I0
tp425
a(I21
I0
tp426
a(I22
I0
tp427
a(I23
I0
tp428
a(I24
I0
tp429
a(I25
I0
tp430
a(I25
I1
tp431
a(I25
I2
tp432
a(I25
I3
tp433
a(I25
I4
tp434
a(I25
I5
tp435
a(I26
I0
tp436
a(I27
I0
tp437
a(I28
I0
tp438
a(I28
I1
tp439
a(I28
I2
tp440
a(I28
I3
tp441
a(I28
I4
tp442
a(I28
I5
tp443
a(I29
I0
tp444
a(I29
I1
tp445
a(I29
I2
tp446
a(I29
I3
tp447
a(I29
I4
tp448
a(I29
I5
tp449
a(I30
I0
tp450
a(I31
I0
tp451
a(I32
I0
tp452
a(I33
I0
tp453
a(I34
I0
tp454
a(I35
I0
tp455
a(I36
I0
tp456
a(I37
I0
tp457
a(I38
I0
tp458
a(I39
I0
tp459
a(I41
I0
tp460
a(I42
I0
tp461
a(I43
I1
tp462
a(I44
I1
tp463
assbsS'checksums'
p464
S'22373   176\n'
p465
s.