(dp0
S'content'
p1
(imystruct
Struct
p2
(dp3
S'omitmicro'
p4
(lp5
(I0
I1
tp6
a(I0
I3
tp7
a(I0
I4
tp8
a(I0
I5
tp9
a(I0
I6
tp10
a(I0
I7
tp11
a(I0
I8
tp12
a(I0
I9
tp13
a(I0
I10
tp14
a(I0
I11
tp15
a(I0
I12
tp16
a(I0
I13
tp17
a(I0
I14
tp18
a(I0
I15
tp19
a(I0
I16
tp20
a(I0
I17
tp21
a(I0
I18
tp22
a(I0
I19
tp23
a(I0
I20
tp24
a(I0
I21
tp25
a(I0
I22
tp26
a(I0
I23
tp27
a(I0
I24
tp28
a(I3
I4
tp29
a(I3
I5
tp30
a(I3
I6
tp31
a(I3
I7
tp32
a(I3
I8
tp33
a(I3
I9
tp34
a(I3
I10
tp35
a(I3
I11
tp36
a(I3
I12
tp37
a(I3
I13
tp38
a(I3
I14
tp39
a(I3
I15
tp40
a(I3
I16
tp41
a(I3
I17
tp42
a(I3
I18
tp43
a(I3
I19
tp44
a(I3
I20
tp45
a(I3
I21
tp46
a(I3
I22
tp47
a(I3
I23
tp48
a(I3
I24
tp49
a(I3
I25
tp50
a(I3
I28
tp51
a(I3
I29
tp52
a(I3
I31
tp53
a(I3
I32
tp54
a(I3
I33
tp55
a(I3
I34
tp56
a(I3
I35
tp57
a(I3
I36
tp58
a(I3
I37
tp59
a(I3
I39
tp60
a(I3
I42
tp61
a(I3
I43
tp62
a(I3
I44
tp63
a(I4
I5
tp64
a(I4
I6
tp65
a(I4
I7
tp66
a(I4
I8
tp67
a(I4
I9
tp68
a(I4
I10
tp69
a(I4
I11
tp70
a(I4
I12
tp71
a(I4
I13
tp72
a(I4
I14
tp73
a(I4
I15
tp74
a(I4
I16
tp75
a(I4
I17
tp76
a(I4
I18
tp77
a(I4
I19
tp78
a(I4
I20
tp79
a(I4
I21
tp80
a(I4
I22
tp81
a(I4
I23
tp82
a(I4
I24
tp83
a(I4
I25
tp84
a(I4
I28
tp85
a(I4
I29
tp86
a(I4
I31
tp87
a(I4
I32
tp88
a(I4
I33
tp89
a(I4
I34
tp90
a(I4
I35
tp91
a(I4
I36
tp92
a(I4
I37
tp93
a(I4
I39
tp94
a(I4
I42
tp95
a(I4
I43
tp96
a(I4
I44
tp97
a(I5
I6
tp98
a(I5
I7
tp99
a(I5
I8
tp100
a(I5
I9
tp101
a(I5
I10
tp102
a(I5
I11
tp103
a(I5
I12
tp104
a(I5
I13
tp105
a(I5
I14
tp106
a(I5
I15
tp107
a(I5
I16
tp108
a(I5
I17
tp109
a(I5
I18
tp110
a(I5
I19
tp111
a(I5
I20
tp112
a(I5
I21
tp113
a(I5
I22
tp114
a(I5
I23
tp115
a(I5
I24
tp116
a(I5
I25
tp117
a(I5
I28
tp118
a(I5
I29
tp119
a(I5
I31
tp120
a(I5
I32
tp121
a(I5
I33
tp122
a(I5
I34
tp123
a(I5
I35
tp124
a(I5
I36
tp125
a(I5
I37
tp126
a(I5
I39
tp127
a(I5
I42
tp128
a(I5
I43
tp129
a(I5
I44
tp130
a(I6
I7
tp131
a(I6
I8
tp132
a(I6
I9
tp133
a(I6
I10
tp134
a(I6
I11
tp135
a(I6
I12
tp136
a(I6
I13
tp137
a(I6
I14
tp138
a(I6
I15
tp139
a(I6
I16
tp140
a(I6
I17
tp141
a(I6
I18
tp142
a(I6
I19
tp143
a(I6
I20
tp144
a(I6
I21
tp145
a(I6
I22
tp146
a(I6
I23
tp147
a(I6
I24
tp148
a(I6
I25
tp149
a(I6
I28
tp150
a(I6
I29
tp151
a(I6
I31
tp152
a(I6
I32
tp153
a(I6
I33
tp154
a(I6
I34
tp155
a(I6
I35
tp156
a(I6
I36
tp157
a(I6
I37
tp158
a(I6
I39
tp159
a(I6
I42
tp160
a(I6
I43
tp161
a(I6
I44
tp162
a(I7
I8
tp163
a(I7
I9
tp164
a(I7
I10
tp165
a(I7
I11
tp166
a(I7
I12
tp167
a(I7
I13
tp168
a(I7
I14
tp169
a(I7
I15
tp170
a(I7
I16
tp171
a(I7
I17
tp172
a(I7
I18
tp173
a(I7
I19
tp174
a(I7
I20
tp175
a(I7
I21
tp176
a(I7
I22
tp177
a(I7
I23
tp178
a(I7
I24
tp179
a(I7
I25
tp180
a(I7
I28
tp181
a(I7
I29
tp182
a(I7
I31
tp183
a(I7
I32
tp184
a(I7
I33
tp185
a(I7
I34
tp186
a(I7
I35
tp187
a(I7
I36
tp188
a(I7
I37
tp189
a(I7
I39
tp190
a(I7
I42
tp191
a(I7
I43
tp192
a(I7
I44
tp193
a(I8
I9
tp194
a(I8
I10
tp195
a(I8
I11
tp196
a(I8
I12
tp197
a(I8
I13
tp198
a(I8
I14
tp199
a(I8
I15
tp200
a(I8
I16
tp201
a(I8
I17
tp202
a(I8
I18
tp203
a(I8
I19
tp204
a(I8
I20
tp205
a(I8
I21
tp206
a(I8
I22
tp207
a(I8
I23
tp208
a(I8
I24
tp209
a(I8
I25
tp210
a(I8
I28
tp211
a(I8
I29
tp212
a(I8
I31
tp213
a(I8
I32
tp214
a(I8
I33
tp215
a(I8
I34
tp216
a(I8
I35
tp217
a(I8
I36
tp218
a(I8
I37
tp219
a(I8
I39
tp220
a(I8
I42
tp221
a(I8
I43
tp222
a(I8
I44
tp223
a(I9
I10
tp224
a(I9
I11
tp225
a(I9
I12
tp226
a(I9
I13
tp227
a(I9
I14
tp228
a(I9
I15
tp229
a(I9
I16
tp230
a(I9
I17
tp231
a(I9
I18
tp232
a(I9
I19
tp233
a(I9
I20
tp234
a(I9
I21
tp235
a(I9
I22
tp236
a(I9
I23
tp237
a(I9
I24
tp238
a(I9
I25
tp239
a(I9
I28
tp240
a(I9
I29
tp241
a(I9
I31
tp242
a(I9
I32
tp243
a(I9
I33
tp244
a(I9
I34
tp245
a(I9
I35
tp246
a(I9
I36
tp247
a(I9
I37
tp248
a(I9
I39
tp249
a(I9
I42
tp250
a(I9
I43
tp251
a(I9
I44
tp252
a(I10
I11
tp253
a(I10
I12
tp254
a(I10
I13
tp255
a(I10
I14
tp256
a(I10
I15
tp257
a(I10
I16
tp258
a(I10
I17
tp259
a(I10
I18
tp260
a(I10
I19
tp261
a(I10
I20
tp262
a(I10
I21
tp263
a(I10
I22
tp264
a(I10
I23
tp265
a(I10
I24
tp266
a(I10
I25
tp267
a(I10
I28
tp268
a(I10
I29
tp269
a(I10
I31
tp270
a(I10
I32
tp271
a(I10
I33
tp272
a(I10
I34
tp273
a(I10
I35
tp274
a(I10
I36
tp275
a(I10
I37
tp276
a(I10
I39
tp277
a(I10
I42
tp278
a(I10
I43
tp279
a(I10
I44
tp280
a(I11
I12
tp281
a(I11
I13
tp282
a(I11
I14
tp283
a(I11
I15
tp284
a(I11
I16
tp285
a(I11
I17
tp286
a(I11
I18
tp287
a(I11
I19
tp288
a(I11
I20
tp289
a(I11
I21
tp290
a(I11
I22
tp291
a(I11
I23
tp292
a(I11
I24
tp293
a(I11
I25
tp294
a(I11
I28
tp295
a(I11
I29
tp296
a(I11
I31
tp297
a(I11
I32
tp298
a(I11
I33
tp299
a(I11
I34
tp300
a(I11
I35
tp301
a(I11
I36
tp302
a(I11
I37
tp303
a(I11
I39
tp304
a(I11
I42
tp305
a(I11
I43
tp306
a(I11
I44
tp307
a(I12
I13
tp308
a(I12
I14
tp309
a(I12
I15
tp310
a(I12
I16
tp311
a(I12
I17
tp312
a(I12
I18
tp313
a(I12
I19
tp314
a(I12
I20
tp315
a(I12
I21
tp316
a(I12
I22
tp317
a(I12
I23
tp318
a(I12
I24
tp319
a(I12
I25
tp320
a(I12
I28
tp321
a(I12
I29
tp322
a(I12
I31
tp323
a(I12
I32
tp324
a(I12
I33
tp325
a(I12
I34
tp326
a(I12
I35
tp327
a(I12
I36
tp328
a(I12
I37
tp329
a(I12
I39
tp330
a(I12
I42
tp331
a(I12
I43
tp332
a(I12
I44
tp333
a(I13
I14
tp334
a(I13
I15
tp335
a(I13
I16
tp336
a(I13
I17
tp337
a(I13
I18
tp338
a(I13
I19
tp339
a(I13
I20
tp340
a(I13
I21
tp341
a(I13
I22
tp342
a(I13
I23
tp343
a(I13
I24
tp344
a(I13
I25
tp345
a(I13
I28
tp346
a(I13
I29
tp347
a(I13
I31
tp348
a(I13
I32
tp349
a(I13
I33
tp350
a(I13
I34
tp351
a(I13
I35
tp352
a(I13
I36
tp353
a(I13
I37
tp354
a(I13
I39
tp355
a(I13
I42
tp356
a(I13
I43
tp357
a(I13
I44
tp358
a(I14
I15
tp359
a(I14
I16
tp360
a(I14
I17
tp361
a(I14
I18
tp362
a(I14
I19
tp363
a(I14
I20
tp364
a(I14
I21
tp365
a(I14
I22
tp366
a(I14
I23
tp367
a(I14
I24
tp368
a(I14
I25
tp369
a(I14
I28
tp370
a(I14
I29
tp371
a(I14
I31
tp372
a(I14
I32
tp373
a(I14
I33
tp374
a(I14
I34
tp375
a(I14
I35
tp376
a(I14
I36
tp377
a(I14
I37
tp378
a(I14
I39
tp379
a(I14
I42
tp380
a(I14
I43
tp381
a(I14
I44
tp382
a(I15
I16
tp383
a(I15
I17
tp384
a(I15
I18
tp385
a(I15
I19
tp386
a(I15
I20
tp387
a(I15
I21
tp388
a(I15
I22
tp389
a(I15
I23
tp390
a(I15
I24
tp391
a(I15
I25
tp392
a(I15
I28
tp393
a(I15
I29
tp394
a(I15
I31
tp395
a(I15
I32
tp396
a(I15
I33
tp397
a(I15
I34
tp398
a(I15
I35
tp399
a(I15
I36
tp400
a(I15
I37
tp401
a(I15
I39
tp402
a(I15
I42
tp403
a(I15
I43
tp404
a(I15
I44
tp405
a(I16
I17
tp406
a(I16
I18
tp407
a(I16
I19
tp408
a(I16
I20
tp409
a(I16
I21
tp410
a(I16
I22
tp411
a(I16
I23
tp412
a(I16
I24
tp413
a(I16
I25
tp414
a(I16
I28
tp415
a(I16
I29
tp416
a(I16
I31
tp417
a(I16
I32
tp418
a(I16
I33
tp419
a(I16
I34
tp420
a(I16
I35
tp421
a(I16
I36
tp422
a(I16
I37
tp423
a(I16
I39
tp424
a(I16
I42
tp425
a(I16
I43
tp426
a(I16
I44
tp427
a(I17
I18
tp428
a(I17
I19
tp429
a(I17
I20
tp430
a(I17
I21
tp431
a(I17
I22
tp432
a(I17
I23
tp433
a(I17
I24
tp434
a(I17
I25
tp435
a(I17
I28
tp436
a(I17
I29
tp437
a(I17
I31
tp438
a(I17
I32
tp439
a(I17
I33
tp440
a(I17
I34
tp441
a(I17
I35
tp442
a(I17
I36
tp443
a(I17
I37
tp444
a(I17
I39
tp445
a(I17
I42
tp446
a(I17
I43
tp447
a(I17
I44
tp448
a(I18
I19
tp449
a(I18
I20
tp450
a(I18
I21
tp451
a(I18
I22
tp452
a(I18
I23
tp453
a(I18
I24
tp454
a(I18
I25
tp455
a(I18
I28
tp456
a(I18
I29
tp457
a(I18
I31
tp458
a(I18
I32
tp459
a(I18
I33
tp460
a(I18
I34
tp461
a(I18
I35
tp462
a(I18
I36
tp463
a(I18
I37
tp464
a(I18
I39
tp465
a(I18
I42
tp466
a(I18
I43
tp467
a(I18
I44
tp468
a(I19
I20
tp469
a(I19
I21
tp470
a(I19
I22
tp471
a(I19
I23
tp472
a(I19
I24
tp473
a(I19
I25
tp474
a(I19
I28
tp475
a(I19
I29
tp476
a(I19
I31
tp477
a(I19
I32
tp478
a(I19
I33
tp479
a(I19
I34
tp480
a(I19
I35
tp481
a(I19
I36
tp482
a(I19
I37
tp483
a(I19
I39
tp484
a(I19
I42
tp485
a(I19
I43
tp486
a(I19
I44
tp487
a(I20
I21
tp488
a(I20
I22
tp489
a(I20
I23
tp490
a(I20
I24
tp491
a(I20
I25
tp492
a(I20
I28
tp493
a(I20
I29
tp494
a(I20
I31
tp495
a(I20
I32
tp496
a(I20
I33
tp497
a(I20
I34
tp498
a(I20
I35
tp499
a(I20
I36
tp500
a(I20
I37
tp501
a(I20
I39
tp502
a(I20
I42
tp503
a(I20
I43
tp504
a(I20
I44
tp505
a(I21
I22
tp506
a(I21
I23
tp507
a(I21
I24
tp508
a(I21
I25
tp509
a(I21
I28
tp510
a(I21
I29
tp511
a(I21
I31
tp512
a(I21
I32
tp513
a(I21
I33
tp514
a(I21
I34
tp515
a(I21
I35
tp516
a(I21
I36
tp517
a(I21
I37
tp518
a(I21
I39
tp519
a(I21
I42
tp520
a(I21
I43
tp521
a(I21
I44
tp522
a(I24
I25
tp523
a(I24
I28
tp524
a(I24
I29
tp525
a(I24
I31
tp526
a(I24
I32
tp527
a(I24
I33
tp528
a(I24
I34
tp529
a(I24
I35
tp530
a(I24
I36
tp531
a(I24
I37
tp532
a(I24
I39
tp533
a(I24
I42
tp534
a(I24
I43
tp535
a(I24
I44
tp536
a(I28
I29
tp537
a(I31
I32
tp538
a(I31
I33
tp539
a(I31
I34
tp540
a(I31
I35
tp541
a(I31
I36
tp542
a(I31
I37
tp543
a(I31
I39
tp544
a(I31
I42
tp545
a(I31
I43
tp546
a(I31
I44
tp547
a(I32
I33
tp548
a(I32
I34
tp549
a(I32
I35
tp550
a(I32
I36
tp551
a(I32
I37
tp552
a(I32
I39
tp553
a(I32
I42
tp554
a(I32
I43
tp555
a(I32
I44
tp556
a(I33
I34
tp557
a(I33
I35
tp558
a(I33
I36
tp559
a(I33
I37
tp560
a(I33
I39
tp561
a(I33
I42
tp562
a(I33
I43
tp563
a(I33
I44
tp564
a(I34
I35
tp565
a(I34
I36
tp566
a(I34
I37
tp567
a(I34
I39
tp568
a(I34
I42
tp569
a(I34
I43
tp570
a(I34
I44
tp571
a(I35
I36
tp572
a(I35
I37
tp573
a(I35
I39
tp574
a(I35
I42
tp575
a(I35
I43
tp576
a(I35
I44
tp577
a(I37
I39
tp578
a(I37
I42
tp579
a(I37
I43
tp580
a(I37
I44
tp581
a(I42
I43
tp582
a(I42
I44
tp583
a(I43
I44
tp584
asS'omit_one'
p585
(dp586
S'aligned'
p587
(lp588
((I31
I0
tp589
(I31
I1
tp590
tp591
a(g589
(I31
I2
tp592
tp593
a(g589
(I31
I3
tp594
tp595
a(g589
(I31
I4
tp596
tp597
a(g589
(I31
I5
tp598
tp599
a(g589
(I31
I6
tp600
tp601
a(g589
(I31
I7
tp602
tp603
a((I31
I1
tp604
(I31
I2
tp605
tp606
a(g604
(I31
I3
tp607
tp608
a(g604
(I31
I4
tp609
tp610
a(g604
(I31
I5
tp611
tp612
a(g604
(I31
I6
tp613
tp614
a(g604
(I31
I7
tp615
tp616
a((I31
I2
tp617
(I31
I3
tp618
tp619
a(g617
(I31
I4
tp620
tp621
a(g617
(I31
I5
tp622
tp623
a(g617
(I31
I6
tp624
tp625
a(g617
(I31
I7
tp626
tp627
a((I31
I3
tp628
(I31
I4
tp629
tp630
a(g628
(I31
I5
tp631
tp632
a(g628
(I31
I6
tp633
tp634
a(g628
(I31
I7
tp635
tp636
a((I31
I4
tp637
(I31
I5
tp638
tp639
a(g637
(I31
I6
tp640
tp641
a(g637
(I31
I7
tp642
tp643
a((I31
I5
tp644
(I31
I6
tp645
tp646
a(g644
(I31
I7
tp647
tp648
a((I31
I6
tp649
(I31
I7
tp650
tp651
asS'three'
p652
(lp653
sS'one'
p654
(lp655
ssS'prefix'
p656
(dp657
g587
(lp658
(I0
I0
tp659
a(I1
I0
tp660
a(I3
I1
tp661
a(I4
I2
tp662
a(I4
I5
tp663
a(I5
I1
tp664
a(I6
I2
tp665
a(I6
I5
tp666
a(I7
I1
tp667
a(I8
I2
tp668
a(I8
I5
tp669
a(I9
I1
tp670
a(I10
I2
tp671
a(I10
I5
tp672
a(I11
I1
tp673
a(I12
I2
tp674
a(I12
I5
tp675
a(I13
I1
tp676
a(I14
I2
tp677
a(I14
I5
tp678
a(I15
I1
tp679
a(I16
I2
tp680
a(I16
I5
tp681
a(I17
I1
tp682
a(I18
I2
tp683
a(I18
I5
tp684
a(I19
I0
tp685
a(I20
I0
tp686
a(I21
I0
tp687
a(I22
I0
tp688
a(I23
I0
tp689
a(I24
I0
tp690
a(I25
I2
tp691
a(I25
I5
tp692
a(I26
I0
tp693
a(I27
I0
tp694
a(I28
I2
tp695
a(I28
I5
tp696
a(I29
I2
tp697
a(I29
I5
tp698
a(I30
I0
tp699
a(I31
I0
tp700
a(I31
I1
tp701
a(I31
I2
tp702
a(I31
I3
tp703
a(I31
I4
tp704
a(I31
I5
tp705
a(I31
I6
tp706
a(I31
I7
tp707
a(I32
I0
tp708
a(I33
I0
tp709
a(I34
I0
tp710
a(I35
I0
tp711
a(I36
I0
tp712
a(I37
I0
tp713
a(I38
I0
tp714
a(I39
I0
tp715
a(I41
I0
tp716
a(I42
I0
tp717
a(I43
I8
tp718
a(I44
I1
tp719
asg652
(lp720
(I0
I0
tp721
a(I1
I0
tp722
a(I3
I5
tp723
a(I4
I5
tp724
a(I5
I5
tp725
a(I6
I5
tp726
a(I7
I5
tp727
a(I8
I5
tp728
a(I9
I5
tp729
a(I10
I5
tp730
a(I11
I5
tp731
a(I12
I5
tp732
a(I13
I5
tp733
a(I14
I5
tp734
a(I15
I5
tp735
a(I16
I5
tp736
a(I17
I5
tp737
a(I18
I5
tp738
a(I19
I2
tp739
a(I20
I2
tp740
a(I21
I2
tp741
a(I22
I0
tp742
a(I23
I0
tp743
a(I24
I1
tp744
a(I25
I17
tp745
a(I26
I0
tp746
a(I27
I0
tp747
a(I28
I17
tp748
a(I29
I17
tp749
a(I30
I0
tp750
a(I31
I2
tp751
a(I32
I1
tp752
a(I33
I1
tp753
a(I34
I2
tp754
a(I35
I2
tp755
a(I36
I0
tp756
a(I37
I1
tp757
a(I38
I0
tp758
a(I39
I2
tp759
a(I41
I0
tp760
a(I42
I1
tp761
a(I43
I3
tp762
a(I44
I3
tp763
asg654
(lp764
(I0
I0
tp765
a(I1
I0
tp766
a(I3
I1
tp767
a(I4
I5
tp768
a(I5
I1
tp769
a(I6
I5
tp770
a(I7
I1
tp771
a(I8
I5
tp772
a(I9
I1
tp773
a(I10
I5
tp774
a(I11
I1
tp775
a(I12
I5
tp776
a(I13
I1
tp777
a(I14
I5
tp778
a(I15
I1
tp779
a(I16
I5
tp780
a(I17
I1
tp781
a(I18
I5
tp782
a(I19
I0
tp783
a(I20
I0
tp784
a(I21
I0
tp785
a(I22
I0
tp786
a(I23
I0
tp787
a(I24
I0
tp788
a(I25
I5
tp789
a(I26
I0
tp790
a(I27
I0
tp791
a(I28
I5
tp792
a(I29
I5
tp793
a(I30
I0
tp794
a(I31
I0
tp795
a(I32
I0
tp796
a(I33
I0
tp797
a(I34
I0
tp798
a(I35
I0
tp799
a(I36
I0
tp800
a(I37
I0
tp801
a(I38
I0
tp802
a(I39
I0
tp803
a(I41
I0
tp804
a(I42
I0
tp805
a(I43
I1
tp806
a(I44
I1
tp807
assbsS'checksums'
p808
S'22373   176\n'
p809
s.