(dp0
S'content'
p1
(imystruct
Struct
p2
(dp3
S'omitmicro'
p4
(lp5
(I0
I1
tp6
a(I0
I3
tp7
a(I0
I4
tp8
a(I0
I5
tp9
a(I0
I6
tp10
a(I0
I7
tp11
a(I0
I8
tp12
a(I0
I9
tp13
a(I0
I10
tp14
a(I0
I11
tp15
a(I0
I12
tp16
a(I0
I13
tp17
a(I0
I14
tp18
a(I0
I15
tp19
a(I0
I16
tp20
a(I0
I17
tp21
a(I0
I18
tp22
a(I0
I19
tp23
a(I0
I20
tp24
a(I0
I21
tp25
a(I0
I22
tp26
a(I0
I23
tp27
a(I0
I24
tp28
a(I0
I25
tp29
a(I1
I3
tp30
a(I1
I4
tp31
a(I1
I5
tp32
a(I1
I6
tp33
a(I1
I7
tp34
a(I1
I8
tp35
a(I1
I9
tp36
a(I1
I10
tp37
a(I1
I11
tp38
a(I1
I12
tp39
a(I1
I13
tp40
a(I1
I14
tp41
a(I1
I15
tp42
a(I1
I16
tp43
a(I1
I17
tp44
a(I1
I18
tp45
a(I1
I19
tp46
a(I1
I20
tp47
a(I1
I21
tp48
a(I1
I22
tp49
a(I1
I23
tp50
a(I1
I24
tp51
a(I1
I25
tp52
a(I3
I4
tp53
a(I3
I5
tp54
a(I3
I6
tp55
a(I3
I7
tp56
a(I3
I8
tp57
a(I3
I9
tp58
a(I3
I10
tp59
a(I3
I11
tp60
a(I3
I12
tp61
a(I3
I13
tp62
a(I3
I14
tp63
a(I3
I15
tp64
a(I3
I16
tp65
a(I3
I17
tp66
a(I3
I18
tp67
a(I3
I19
tp68
a(I3
I20
tp69
a(I3
I21
tp70
a(I3
I22
tp71
a(I3
I23
tp72
a(I3
I24
tp73
a(I3
I25
tp74
a(I3
I28
tp75
a(I3
I29
tp76
a(I3
I31
tp77
a(I3
I32
tp78
a(I3
I33
tp79
a(I3
I34
tp80
a(I3
I35
tp81
a(I3
I36
tp82
a(I3
I37
tp83
a(I3
I39
tp84
a(I3
I42
tp85
a(I3
I43
tp86
a(I3
I44
tp87
a(I4
I5
tp88
a(I4
I6
tp89
a(I4
I7
tp90
a(I4
I8
tp91
a(I4
I9
tp92
a(I4
I10
tp93
a(I4
I11
tp94
a(I4
I12
tp95
a(I4
I13
tp96
a(I4
I14
tp97
a(I4
I15
tp98
a(I4
I16
tp99
a(I4
I17
tp100
a(I4
I18
tp101
a(I4
I19
tp102
a(I4
I20
tp103
a(I4
I21
tp104
a(I4
I22
tp105
a(I4
I23
tp106
a(I4
I24
tp107
a(I4
I25
tp108
a(I4
I28
tp109
a(I4
I29
tp110
a(I4
I31
tp111
a(I4
I32
tp112
a(I4
I33
tp113
a(I4
I34
tp114
a(I4
I35
tp115
a(I4
I36
tp116
a(I4
I37
tp117
a(I4
I39
tp118
a(I4
I42
tp119
a(I4
I43
tp120
a(I4
I44
tp121
a(I5
I6
tp122
a(I5
I7
tp123
a(I5
I8
tp124
a(I5
I9
tp125
a(I5
I10
tp126
a(I5
I11
tp127
a(I5
I12
tp128
a(I5
I13
tp129
a(I5
I14
tp130
a(I5
I15
tp131
a(I5
I16
tp132
a(I5
I17
tp133
a(I5
I18
tp134
a(I5
I19
tp135
a(I5
I20
tp136
a(I5
I21
tp137
a(I5
I22
tp138
a(I5
I23
tp139
a(I5
I24
tp140
a(I5
I25
tp141
a(I5
I28
tp142
a(I5
I29
tp143
a(I5
I31
tp144
a(I5
I32
tp145
a(I5
I33
tp146
a(I5
I34
tp147
a(I5
I35
tp148
a(I5
I36
tp149
a(I5
I37
tp150
a(I5
I39
tp151
a(I5
I42
tp152
a(I5
I43
tp153
a(I5
I44
tp154
a(I6
I7
tp155
a(I6
I8
tp156
a(I6
I9
tp157
a(I6
I10
tp158
a(I6
I11
tp159
a(I6
I12
tp160
a(I6
I13
tp161
a(I6
I14
tp162
a(I6
I15
tp163
a(I6
I16
tp164
a(I6
I17
tp165
a(I6
I18
tp166
a(I6
I19
tp167
a(I6
I20
tp168
a(I6
I21
tp169
a(I6
I22
tp170
a(I6
I23
tp171
a(I6
I24
tp172
a(I6
I25
tp173
a(I6
I28
tp174
a(I6
I29
tp175
a(I6
I31
tp176
a(I6
I32
tp177
a(I6
I33
tp178
a(I6
I34
tp179
a(I6
I35
tp180
a(I6
I36
tp181
a(I6
I37
tp182
a(I6
I39
tp183
a(I6
I42
tp184
a(I6
I43
tp185
a(I6
I44
tp186
a(I7
I8
tp187
a(I7
I9
tp188
a(I7
I10
tp189
a(I7
I11
tp190
a(I7
I12
tp191
a(I7
I13
tp192
a(I7
I14
tp193
a(I7
I15
tp194
a(I7
I16
tp195
a(I7
I17
tp196
a(I7
I18
tp197
a(I7
I19
tp198
a(I7
I20
tp199
a(I7
I21
tp200
a(I7
I22
tp201
a(I7
I23
tp202
a(I7
I24
tp203
a(I7
I25
tp204
a(I7
I28
tp205
a(I7
I29
tp206
a(I7
I31
tp207
a(I7
I32
tp208
a(I7
I33
tp209
a(I7
I34
tp210
a(I7
I35
tp211
a(I7
I36
tp212
a(I7
I37
tp213
a(I7
I39
tp214
a(I7
I42
tp215
a(I7
I43
tp216
a(I7
I44
tp217
a(I8
I9
tp218
a(I8
I10
tp219
a(I8
I11
tp220
a(I8
I12
tp221
a(I8
I13
tp222
a(I8
I14
tp223
a(I8
I15
tp224
a(I8
I16
tp225
a(I8
I17
tp226
a(I8
I18
tp227
a(I8
I19
tp228
a(I8
I20
tp229
a(I8
I21
tp230
a(I8
I22
tp231
a(I8
I23
tp232
a(I8
I24
tp233
a(I8
I25
tp234
a(I8
I28
tp235
a(I8
I29
tp236
a(I8
I31
tp237
a(I8
I32
tp238
a(I8
I33
tp239
a(I8
I34
tp240
a(I8
I35
tp241
a(I8
I36
tp242
a(I8
I37
tp243
a(I8
I39
tp244
a(I8
I42
tp245
a(I8
I43
tp246
a(I8
I44
tp247
a(I9
I10
tp248
a(I9
I11
tp249
a(I9
I12
tp250
a(I9
I13
tp251
a(I9
I14
tp252
a(I9
I15
tp253
a(I9
I16
tp254
a(I9
I17
tp255
a(I9
I18
tp256
a(I9
I19
tp257
a(I9
I20
tp258
a(I9
I21
tp259
a(I9
I22
tp260
a(I9
I23
tp261
a(I9
I24
tp262
a(I9
I25
tp263
a(I9
I28
tp264
a(I9
I29
tp265
a(I9
I31
tp266
a(I9
I32
tp267
a(I9
I33
tp268
a(I9
I34
tp269
a(I9
I35
tp270
a(I9
I36
tp271
a(I9
I37
tp272
a(I9
I39
tp273
a(I9
I42
tp274
a(I9
I43
tp275
a(I9
I44
tp276
a(I10
I11
tp277
a(I10
I12
tp278
a(I10
I13
tp279
a(I10
I14
tp280
a(I10
I15
tp281
a(I10
I16
tp282
a(I10
I17
tp283
a(I10
I18
tp284
a(I10
I19
tp285
a(I10
I20
tp286
a(I10
I21
tp287
a(I10
I22
tp288
a(I10
I23
tp289
a(I10
I24
tp290
a(I10
I25
tp291
a(I10
I28
tp292
a(I10
I29
tp293
a(I10
I31
tp294
a(I10
I32
tp295
a(I10
I33
tp296
a(I10
I34
tp297
a(I10
I35
tp298
a(I10
I36
tp299
a(I10
I37
tp300
a(I10
I39
tp301
a(I10
I42
tp302
a(I10
I43
tp303
a(I10
I44
tp304
a(I11
I12
tp305
a(I11
I13
tp306
a(I11
I14
tp307
a(I11
I15
tp308
a(I11
I16
tp309
a(I11
I17
tp310
a(I11
I18
tp311
a(I11
I19
tp312
a(I11
I20
tp313
a(I11
I21
tp314
a(I11
I22
tp315
a(I11
I23
tp316
a(I11
I24
tp317
a(I11
I25
tp318
a(I11
I28
tp319
a(I11
I29
tp320
a(I11
I31
tp321
a(I11
I32
tp322
a(I11
I33
tp323
a(I11
I34
tp324
a(I11
I35
tp325
a(I11
I36
tp326
a(I11
I37
tp327
a(I11
I39
tp328
a(I11
I42
tp329
a(I11
I43
tp330
a(I11
I44
tp331
a(I12
I13
tp332
a(I12
I14
tp333
a(I12
I15
tp334
a(I12
I16
tp335
a(I12
I17
tp336
a(I12
I18
tp337
a(I12
I19
tp338
a(I12
I20
tp339
a(I12
I21
tp340
a(I12
I22
tp341
a(I12
I23
tp342
a(I12
I24
tp343
a(I12
I25
tp344
a(I12
I28
tp345
a(I12
I29
tp346
a(I12
I31
tp347
a(I12
I32
tp348
a(I12
I33
tp349
a(I12
I34
tp350
a(I12
I35
tp351
a(I12
I36
tp352
a(I12
I37
tp353
a(I12
I39
tp354
a(I12
I42
tp355
a(I12
I43
tp356
a(I12
I44
tp357
a(I13
I14
tp358
a(I13
I15
tp359
a(I13
I16
tp360
a(I13
I17
tp361
a(I13
I18
tp362
a(I13
I19
tp363
a(I13
I20
tp364
a(I13
I21
tp365
a(I13
I22
tp366
a(I13
I23
tp367
a(I13
I24
tp368
a(I13
I25
tp369
a(I13
I28
tp370
a(I13
I29
tp371
a(I13
I31
tp372
a(I13
I32
tp373
a(I13
I33
tp374
a(I13
I34
tp375
a(I13
I35
tp376
a(I13
I36
tp377
a(I13
I37
tp378
a(I13
I39
tp379
a(I13
I42
tp380
a(I13
I43
tp381
a(I13
I44
tp382
a(I14
I15
tp383
a(I14
I16
tp384
a(I14
I17
tp385
a(I14
I18
tp386
a(I14
I19
tp387
a(I14
I20
tp388
a(I14
I21
tp389
a(I14
I22
tp390
a(I14
I23
tp391
a(I14
I24
tp392
a(I14
I25
tp393
a(I14
I28
tp394
a(I14
I29
tp395
a(I14
I31
tp396
a(I14
I32
tp397
a(I14
I33
tp398
a(I14
I34
tp399
a(I14
I35
tp400
a(I14
I36
tp401
a(I14
I37
tp402
a(I14
I39
tp403
a(I14
I42
tp404
a(I14
I43
tp405
a(I14
I44
tp406
a(I15
I16
tp407
a(I15
I17
tp408
a(I15
I18
tp409
a(I15
I19
tp410
a(I15
I20
tp411
a(I15
I21
tp412
a(I15
I22
tp413
a(I15
I23
tp414
a(I15
I24
tp415
a(I15
I25
tp416
a(I15
I28
tp417
a(I15
I29
tp418
a(I15
I31
tp419
a(I15
I32
tp420
a(I15
I33
tp421
a(I15
I34
tp422
a(I15
I35
tp423
a(I15
I36
tp424
a(I15
I37
tp425
a(I15
I39
tp426
a(I15
I42
tp427
a(I15
I43
tp428
a(I15
I44
tp429
a(I16
I17
tp430
a(I16
I18
tp431
a(I16
I19
tp432
a(I16
I20
tp433
a(I16
I21
tp434
a(I16
I22
tp435
a(I16
I23
tp436
a(I16
I24
tp437
a(I16
I25
tp438
a(I16
I28
tp439
a(I16
I29
tp440
a(I16
I31
tp441
a(I16
I32
tp442
a(I16
I33
tp443
a(I16
I34
tp444
a(I16
I35
tp445
a(I16
I36
tp446
a(I16
I37
tp447
a(I16
I39
tp448
a(I16
I42
tp449
a(I16
I43
tp450
a(I16
I44
tp451
a(I17
I18
tp452
a(I17
I19
tp453
a(I17
I20
tp454
a(I17
I21
tp455
a(I17
I22
tp456
a(I17
I23
tp457
a(I17
I24
tp458
a(I17
I25
tp459
a(I17
I28
tp460
a(I17
I29
tp461
a(I17
I31
tp462
a(I17
I32
tp463
a(I17
I33
tp464
a(I17
I34
tp465
a(I17
I35
tp466
a(I17
I36
tp467
a(I17
I37
tp468
a(I17
I39
tp469
a(I17
I42
tp470
a(I17
I43
tp471
a(I17
I44
tp472
a(I18
I19
tp473
a(I18
I20
tp474
a(I18
I21
tp475
a(I18
I22
tp476
a(I18
I23
tp477
a(I18
I24
tp478
a(I18
I25
tp479
a(I18
I28
tp480
a(I18
I29
tp481
a(I18
I31
tp482
a(I18
I32
tp483
a(I18
I33
tp484
a(I18
I34
tp485
a(I18
I35
tp486
a(I18
I36
tp487
a(I18
I37
tp488
a(I18
I39
tp489
a(I18
I42
tp490
a(I18
I43
tp491
a(I18
I44
tp492
a(I19
I20
tp493
a(I19
I21
tp494
a(I19
I22
tp495
a(I19
I23
tp496
a(I19
I24
tp497
a(I19
I25
tp498
a(I19
I28
tp499
a(I19
I29
tp500
a(I19
I31
tp501
a(I19
I32
tp502
a(I19
I33
tp503
a(I19
I34
tp504
a(I19
I35
tp505
a(I19
I36
tp506
a(I19
I37
tp507
a(I19
I39
tp508
a(I19
I42
tp509
a(I19
I43
tp510
a(I19
I44
tp511
a(I20
I21
tp512
a(I20
I22
tp513
a(I20
I23
tp514
a(I20
I24
tp515
a(I20
I25
tp516
a(I20
I28
tp517
a(I20
I29
tp518
a(I20
I31
tp519
a(I20
I32
tp520
a(I20
I33
tp521
a(I20
I34
tp522
a(I20
I35
tp523
a(I20
I36
tp524
a(I20
I37
tp525
a(I20
I39
tp526
a(I20
I42
tp527
a(I20
I43
tp528
a(I20
I44
tp529
a(I21
I22
tp530
a(I21
I23
tp531
a(I21
I24
tp532
a(I21
I25
tp533
a(I21
I28
tp534
a(I21
I29
tp535
a(I21
I31
tp536
a(I21
I32
tp537
a(I21
I33
tp538
a(I21
I34
tp539
a(I21
I35
tp540
a(I21
I36
tp541
a(I21
I37
tp542
a(I21
I39
tp543
a(I21
I42
tp544
a(I21
I43
tp545
a(I21
I44
tp546
a(I24
I25
tp547
a(I24
I28
tp548
a(I24
I29
tp549
a(I24
I31
tp550
a(I24
I32
tp551
a(I24
I33
tp552
a(I24
I34
tp553
a(I24
I35
tp554
a(I24
I36
tp555
a(I24
I37
tp556
a(I24
I39
tp557
a(I24
I42
tp558
a(I24
I43
tp559
a(I24
I44
tp560
a(I28
I29
tp561
a(I31
I32
tp562
a(I31
I33
tp563
a(I31
I34
tp564
a(I31
I35
tp565
a(I31
I36
tp566
a(I31
I37
tp567
a(I31
I39
tp568
a(I31
I42
tp569
a(I31
I43
tp570
a(I31
I44
tp571
a(I32
I33
tp572
a(I32
I34
tp573
a(I32
I35
tp574
a(I32
I36
tp575
a(I32
I37
tp576
a(I32
I39
tp577
a(I32
I42
tp578
a(I32
I43
tp579
a(I32
I44
tp580
a(I33
I34
tp581
a(I33
I35
tp582
a(I33
I36
tp583
a(I33
I37
tp584
a(I33
I39
tp585
a(I33
I42
tp586
a(I33
I43
tp587
a(I33
I44
tp588
a(I34
I35
tp589
a(I34
I36
tp590
a(I34
I37
tp591
a(I34
I39
tp592
a(I34
I42
tp593
a(I34
I43
tp594
a(I34
I44
tp595
a(I35
I36
tp596
a(I35
I37
tp597
a(I35
I39
tp598
a(I35
I42
tp599
a(I35
I43
tp600
a(I35
I44
tp601
a(I37
I39
tp602
a(I37
I42
tp603
a(I37
I43
tp604
a(I37
I44
tp605
a(I42
I43
tp606
a(I42
I44
tp607
a(I43
I44
tp608
asS'omit_one'
p609
(dp610
S'aligned'
p611
(lp612
((I31
I0
tp613
(I31
I1
tp614
tp615
a(g613
(I31
I2
tp616
tp617
a(g613
(I31
I3
tp618
tp619
a(g613
(I31
I4
tp620
tp621
a(g613
(I31
I5
tp622
tp623
a(g613
(I31
I6
tp624
tp625
a(g613
(I31
I7
tp626
tp627
a((I31
I1
tp628
(I31
I2
tp629
tp630
a(g628
(I31
I3
tp631
tp632
a(g628
(I31
I4
tp633
tp634
a(g628
(I31
I5
tp635
tp636
a(g628
(I31
I6
tp637
tp638
a(g628
(I31
I7
tp639
tp640
a((I31
I2
tp641
(I31
I3
tp642
tp643
a(g641
(I31
I4
tp644
tp645
a(g641
(I31
I5
tp646
tp647
a(g641
(I31
I6
tp648
tp649
a(g641
(I31
I7
tp650
tp651
a((I31
I3
tp652
(I31
I4
tp653
tp654
a(g652
(I31
I5
tp655
tp656
a(g652
(I31
I6
tp657
tp658
a(g652
(I31
I7
tp659
tp660
a((I31
I4
tp661
(I31
I5
tp662
tp663
a(g661
(I31
I6
tp664
tp665
a(g661
(I31
I7
tp666
tp667
a((I31
I5
tp668
(I31
I6
tp669
tp670
a(g668
(I31
I7
tp671
tp672
a((I31
I6
tp673
(I31
I7
tp674
tp675
asS'three'
p676
(lp677
sS'one'
p678
(lp679
ssS'prefix'
p680
(dp681
g611
(lp682
(I0
I0
tp683
a(I1
I0
tp684
a(I3
I1
tp685
a(I4
I2
tp686
a(I4
I5
tp687
a(I5
I1
tp688
a(I6
I2
tp689
a(I6
I5
tp690
a(I7
I1
tp691
a(I8
I2
tp692
a(I8
I5
tp693
a(I9
I1
tp694
a(I10
I2
tp695
a(I10
I5
tp696
a(I11
I1
tp697
a(I12
I2
tp698
a(I12
I5
tp699
a(I13
I1
tp700
a(I14
I2
tp701
a(I14
I5
tp702
a(I15
I1
tp703
a(I16
I2
tp704
a(I16
I5
tp705
a(I17
I1
tp706
a(I18
I2
tp707
a(I18
I5
tp708
a(I19
I0
tp709
a(I20
I0
tp710
a(I21
I0
tp711
a(I22
I0
tp712
a(I23
I0
tp713
a(I24
I0
tp714
a(I25
I2
tp715
a(I25
I5
tp716
a(I26
I0
tp717
a(I27
I0
tp718
a(I28
I2
tp719
a(I28
I5
tp720
a(I29
I2
tp721
a(I29
I5
tp722
a(I30
I0
tp723
a(I31
I0
tp724
a(I31
I1
tp725
a(I31
I2
tp726
a(I31
I3
tp727
a(I31
I4
tp728
a(I31
I5
tp729
a(I31
I6
tp730
a(I31
I7
tp731
a(I32
I0
tp732
a(I33
I0
tp733
a(I34
I0
tp734
a(I35
I0
tp735
a(I36
I0
tp736
a(I37
I0
tp737
a(I38
I0
tp738
a(I39
I0
tp739
a(I41
I0
tp740
a(I42
I0
tp741
a(I43
I8
tp742
a(I44
I1
tp743
asg676
(lp744
(I0
I0
tp745
a(I1
I0
tp746
a(I3
I5
tp747
a(I4
I5
tp748
a(I5
I5
tp749
a(I6
I5
tp750
a(I7
I5
tp751
a(I8
I5
tp752
a(I9
I5
tp753
a(I10
I5
tp754
a(I11
I5
tp755
a(I12
I5
tp756
a(I13
I5
tp757
a(I14
I5
tp758
a(I15
I5
tp759
a(I16
I5
tp760
a(I17
I5
tp761
a(I18
I5
tp762
a(I19
I2
tp763
a(I20
I2
tp764
a(I21
I2
tp765
a(I22
I0
tp766
a(I23
I0
tp767
a(I24
I1
tp768
a(I25
I17
tp769
a(I26
I0
tp770
a(I27
I0
tp771
a(I28
I17
tp772
a(I29
I17
tp773
a(I30
I0
tp774
a(I31
I2
tp775
a(I32
I1
tp776
a(I33
I1
tp777
a(I34
I2
tp778
a(I35
I2
tp779
a(I36
I0
tp780
a(I37
I1
tp781
a(I38
I0
tp782
a(I39
I2
tp783
a(I41
I0
tp784
a(I42
I1
tp785
a(I43
I3
tp786
a(I44
I3
tp787
asg678
(lp788
(I0
I0
tp789
a(I1
I0
tp790
a(I3
I1
tp791
a(I4
I5
tp792
a(I5
I1
tp793
a(I6
I5
tp794
a(I7
I1
tp795
a(I8
I5
tp796
a(I9
I1
tp797
a(I10
I5
tp798
a(I11
I1
tp799
a(I12
I5
tp800
a(I13
I1
tp801
a(I14
I5
tp802
a(I15
I1
tp803
a(I16
I5
tp804
a(I17
I1
tp805
a(I18
I5
tp806
a(I19
I0
tp807
a(I20
I0
tp808
a(I21
I0
tp809
a(I22
I0
tp810
a(I23
I0
tp811
a(I24
I0
tp812
a(I25
I5
tp813
a(I26
I0
tp814
a(I27
I0
tp815
a(I28
I5
tp816
a(I29
I5
tp817
a(I30
I0
tp818
a(I31
I0
tp819
a(I32
I0
tp820
a(I33
I0
tp821
a(I34
I0
tp822
a(I35
I0
tp823
a(I36
I0
tp824
a(I37
I0
tp825
a(I38
I0
tp826
a(I39
I0
tp827
a(I41
I0
tp828
a(I42
I0
tp829
a(I43
I1
tp830
a(I44
I1
tp831
assbsS'checksums'
p832
S'22373   176\n'
p833
s.