(dp0
S'content'
p1
(imystruct
Struct
p2
(dp3
S'omitmicro'
p4
(lp5
(I0
I1
tp6
a(I18
I19
tp7
a(I18
I20
tp8
a(I18
I21
tp9
a(I18
I22
tp10
a(I18
I23
tp11
a(I18
I24
tp12
a(I18
I25
tp13
a(I18
I28
tp14
a(I18
I29
tp15
a(I18
I31
tp16
a(I18
I32
tp17
a(I18
I33
tp18
a(I18
I34
tp19
a(I18
I35
tp20
a(I18
I36
tp21
a(I18
I37
tp22
a(I18
I39
tp23
a(I18
I42
tp24
a(I19
I20
tp25
a(I19
I21
tp26
a(I19
I22
tp27
a(I19
I23
tp28
a(I19
I24
tp29
a(I19
I25
tp30
a(I19
I28
tp31
a(I19
I29
tp32
a(I19
I31
tp33
a(I19
I32
tp34
a(I19
I33
tp35
a(I19
I34
tp36
a(I19
I35
tp37
a(I19
I36
tp38
a(I19
I37
tp39
a(I19
I39
tp40
a(I19
I42
tp41
a(I20
I21
tp42
a(I20
I22
tp43
a(I20
I23
tp44
a(I20
I24
tp45
a(I20
I25
tp46
a(I20
I28
tp47
a(I20
I29
tp48
a(I20
I31
tp49
a(I20
I32
tp50
a(I20
I33
tp51
a(I20
I34
tp52
a(I20
I35
tp53
a(I20
I36
tp54
a(I20
I37
tp55
a(I20
I39
tp56
a(I20
I42
tp57
a(I21
I22
tp58
a(I21
I23
tp59
a(I21
I24
tp60
a(I21
I25
tp61
a(I21
I28
tp62
a(I21
I29
tp63
a(I21
I31
tp64
a(I21
I32
tp65
a(I21
I33
tp66
a(I21
I34
tp67
a(I21
I35
tp68
a(I21
I36
tp69
a(I21
I37
tp70
a(I21
I39
tp71
a(I21
I42
tp72
a(I24
I25
tp73
a(I24
I28
tp74
a(I24
I29
tp75
a(I24
I31
tp76
a(I24
I32
tp77
a(I24
I33
tp78
a(I24
I34
tp79
a(I24
I35
tp80
a(I24
I36
tp81
a(I24
I37
tp82
a(I24
I39
tp83
a(I24
I42
tp84
a(I31
I32
tp85
a(I31
I33
tp86
a(I31
I34
tp87
a(I31
I35
tp88
a(I31
I36
tp89
a(I31
I37
tp90
a(I31
I39
tp91
a(I31
I42
tp92
a(I32
I33
tp93
a(I32
I34
tp94
a(I32
I35
tp95
a(I32
I36
tp96
a(I32
I37
tp97
a(I32
I39
tp98
a(I32
I42
tp99
a(I33
I34
tp100
a(I33
I35
tp101
a(I33
I36
tp102
a(I33
I37
tp103
a(I33
I39
tp104
a(I33
I42
tp105
a(I34
I35
tp106
a(I34
I36
tp107
a(I34
I37
tp108
a(I34
I39
tp109
a(I34
I42
tp110
a(I35
I36
tp111
a(I35
I37
tp112
a(I35
I39
tp113
a(I35
I42
tp114
a(I37
I39
tp115
a(I37
I42
tp116
asS'omit_one'
p117
(dp118
S'aligned'
p119
(lp120
((I31
I0
tp121
(I31
I1
tp122
tp123
a(g121
(I31
I2
tp124
tp125
a(g121
(I31
I3
tp126
tp127
a(g121
(I31
I4
tp128
tp129
a(g121
(I31
I5
tp130
tp131
a(g121
(I31
I6
tp132
tp133
a(g121
(I31
I7
tp134
tp135
a((I31
I1
tp136
(I31
I2
tp137
tp138
a(g136
(I31
I3
tp139
tp140
a(g136
(I31
I4
tp141
tp142
a(g136
(I31
I5
tp143
tp144
a(g136
(I31
I6
tp145
tp146
a(g136
(I31
I7
tp147
tp148
a((I31
I2
tp149
(I31
I3
tp150
tp151
a(g149
(I31
I4
tp152
tp153
a(g149
(I31
I5
tp154
tp155
a(g149
(I31
I6
tp156
tp157
a(g149
(I31
I7
tp158
tp159
a((I31
I3
tp160
(I31
I4
tp161
tp162
a(g160
(I31
I5
tp163
tp164
a(g160
(I31
I6
tp165
tp166
a(g160
(I31
I7
tp167
tp168
a((I31
I4
tp169
(I31
I5
tp170
tp171
a(g169
(I31
I6
tp172
tp173
a(g169
(I31
I7
tp174
tp175
a((I31
I5
tp176
(I31
I6
tp177
tp178
a(g176
(I31
I7
tp179
tp180
a((I31
I6
tp181
(I31
I7
tp182
tp183
asS'three'
p184
(lp185
sS'one'
p186
(lp187
ssS'prefix'
p188
(dp189
g119
(lp190
(I0
I0
tp191
a(I1
I0
tp192
a(I3
I1
tp193
a(I4
I2
tp194
a(I4
I5
tp195
a(I5
I1
tp196
a(I6
I2
tp197
a(I6
I5
tp198
a(I7
I1
tp199
a(I8
I2
tp200
a(I8
I5
tp201
a(I9
I1
tp202
a(I10
I2
tp203
a(I10
I5
tp204
a(I11
I1
tp205
a(I12
I2
tp206
a(I12
I5
tp207
a(I13
I1
tp208
a(I14
I2
tp209
a(I14
I5
tp210
a(I15
I1
tp211
a(I16
I2
tp212
a(I16
I5
tp213
a(I17
I1
tp214
a(I18
I2
tp215
a(I18
I5
tp216
a(I19
I0
tp217
a(I20
I0
tp218
a(I21
I0
tp219
a(I22
I0
tp220
a(I23
I0
tp221
a(I24
I0
tp222
a(I25
I2
tp223
a(I25
I5
tp224
a(I26
I0
tp225
a(I27
I0
tp226
a(I28
I2
tp227
a(I28
I5
tp228
a(I29
I2
tp229
a(I29
I5
tp230
a(I30
I0
tp231
a(I31
I0
tp232
a(I31
I1
tp233
a(I31
I2
tp234
a(I31
I3
tp235
a(I31
I4
tp236
a(I31
I5
tp237
a(I31
I6
tp238
a(I31
I7
tp239
a(I32
I0
tp240
a(I33
I0
tp241
a(I34
I0
tp242
a(I35
I0
tp243
a(I36
I0
tp244
a(I37
I0
tp245
a(I38
I0
tp246
a(I39
I0
tp247
a(I41
I0
tp248
a(I42
I0
tp249
a(I43
I8
tp250
a(I44
I1
tp251
asg184
(lp252
(I0
I0
tp253
a(I1
I0
tp254
a(I3
I5
tp255
a(I4
I5
tp256
a(I5
I5
tp257
a(I6
I5
tp258
a(I7
I5
tp259
a(I8
I5
tp260
a(I9
I5
tp261
a(I10
I5
tp262
a(I11
I5
tp263
a(I12
I5
tp264
a(I13
I5
tp265
a(I14
I5
tp266
a(I15
I5
tp267
a(I16
I5
tp268
a(I17
I5
tp269
a(I18
I5
tp270
a(I19
I2
tp271
a(I20
I2
tp272
a(I21
I2
tp273
a(I22
I0
tp274
a(I23
I0
tp275
a(I24
I1
tp276
a(I25
I17
tp277
a(I26
I0
tp278
a(I27
I0
tp279
a(I28
I17
tp280
a(I29
I17
tp281
a(I30
I0
tp282
a(I31
I2
tp283
a(I32
I1
tp284
a(I33
I1
tp285
a(I34
I2
tp286
a(I35
I2
tp287
a(I36
I0
tp288
a(I37
I1
tp289
a(I38
I0
tp290
a(I39
I2
tp291
a(I41
I0
tp292
a(I42
I1
tp293
a(I43
I3
tp294
a(I44
I3
tp295
asg186
(lp296
(I0
I0
tp297
a(I1
I0
tp298
a(I3
I1
tp299
a(I4
I5
tp300
a(I5
I1
tp301
a(I6
I5
tp302
a(I7
I1
tp303
a(I8
I5
tp304
a(I9
I1
tp305
a(I10
I5
tp306
a(I11
I1
tp307
a(I12
I5
tp308
a(I13
I1
tp309
a(I14
I5
tp310
a(I15
I1
tp311
a(I16
I5
tp312
a(I17
I1
tp313
a(I18
I5
tp314
a(I19
I0
tp315
a(I20
I0
tp316
a(I21
I0
tp317
a(I22
I0
tp318
a(I23
I0
tp319
a(I24
I0
tp320
a(I25
I5
tp321
a(I26
I0
tp322
a(I27
I0
tp323
a(I28
I5
tp324
a(I29
I5
tp325
a(I30
I0
tp326
a(I31
I0
tp327
a(I32
I0
tp328
a(I33
I0
tp329
a(I34
I0
tp330
a(I35
I0
tp331
a(I36
I0
tp332
a(I37
I0
tp333
a(I38
I0
tp334
a(I39
I0
tp335
a(I41
I0
tp336
a(I42
I0
tp337
a(I43
I1
tp338
a(I44
I1
tp339
assbsS'checksums'
p340
S'22373   176\n'
p341
s.