ccollections
defaultdict
p1
(c__builtin__
dict
p2
tRp3
S'/lib/x86_64-linux-gnu/libpthread-2.15.so'
p4
(dp5
S'0x692c'
p6
(S'__pthread_initialize_minimal_internal'
I140
S'nptl-init.c'
I359
tp7
sS'0xef45'
p8
(S'__libc_fcntl'
I133
S'../sysdeps/unix/sysv/linux/fcntl.c'
I40
tp9
sS'0x52b9'
p10
(S'_init'
I9
NNtp11
sS'0xecb0'
p12
(S'write'
I0
S'../sysdeps/unix/syscall-template.S'
I82
tp13
sS'0x68c2'
p14
(S'__pthread_initialize_minimal_internal'
I32
S'nptl-init.c'
I308
tp15
sS'0xd419'
p16
(S'pthread_once'
I105
S'../nptl/sysdeps/unix/sysv/linux/x86_64/pthread_once.S'
I129
tp17
sS'0xed10'
p18
(S'read'
I0
S'../sysdeps/unix/syscall-template.S'
I82
tp19
sS'0xf633'
p20
(S'pread64'
I0
S'../sysdeps/unix/syscall-template.S'
I82
tp21
sS'0x6a0a'
p22
(S'__pthread_initialize_minimal_internal'
I362
S'nptl-init.c'
I390
tp23
sS'0x6ac5'
p24
(S'__pthread_initialize_minimal_internal'
I544
S'nptl-init.c'
I418
tp25
sS'0x6955'
p26
(S'__pthread_initialize_minimal_internal'
I181
S'nptl-init.c'
I360
tp27
sS'0xf570'
p28
(S'open64'
I0
S'../sysdeps/unix/syscall-template.S'
I82
tp29
sS'0x6a2f'
p30
(S'__pthread_initialize_minimal_internal'
I399
S'../sysdeps/unix/sysv/linux/bits/sigset.h'
I119
tp31
sS'0xf6a3'
p32
(S'pwrite64'
I0
S'../sysdeps/unix/syscall-template.S'
I82
tp33
sS'0xfdb5'
p34
(S'__libc_sigaction'
I203
S'../sysdeps/unix/sysv/linux/x86_64/sigaction.c'
I67
tp35
ssS'/lib/x86_64-linux-gnu/libc-2.15.so'
p36
(dp37
S'0x810da'
p38
(S'_int_malloc'
I3546
S'malloc.c'
I2535
tp39
sS'0xe6e50'
p40
(S'__openat_nocancel'
I0
S'../sysdeps/unix/sysv/linux/wordsize-64/../openat.c'
I96
tp41
sS'0x45813'
p42
(S'__realpath'
I70
S'canonicalize.c'
I89
tp43
sS'0x3b960'
p44
(S'__run_exit_handlers'
I240
S'exit.c'
I87
tp45
sS'0x7aeb5'
p46
(S'_IO_new_do_write'
I16
S'fileops.c'
I516
tp47
sS'0xec367'
p48
(S'__tcgetattr'
I3
S'../sysdeps/unix/sysv/linux/tcgetattr.c'
I41
tp49
sS'0xe8907'
p50
(S'readlink'
I0
S'../sysdeps/unix/syscall-template.S'
I82
tp51
sS'0xb1dc2'
p52
(S'__tz_convert'
I306
S'tzset.c'
I626
tp53
sS'0xb207f'
p54
(S'__tzfile_read'
I399
S'tzfile.c'
I183
tp55
sS'0xf2b93'
p56
(S'__get_nprocs'
I131
S'../sysdeps/unix/sysv/linux/getsysstats.c'
I157
tp57
sS'0xc2135'
p58
(S'__GI___sysconf'
I864
S'../sysdeps/posix/sysconf.c'
I631
tp59
sS'0xc0f87'
p60
(S'getgid'
I7
S'../sysdeps/unix/syscall-template.S'
I64
tp61
sS'0x7fc03'
p62
(S'_int_free'
I1657
S'malloc.c'
I4184
tp63
sS'0xec637'
p64
(S'getrlimit64'
I0
S'../sysdeps/unix/syscall-template.S'
I82
tp65
sS'0x7a025'
p66
(S'_IO_new_file_xsputn'
I83
S'fileops.c'
I1371
tp67
sS'0x7974a'
p68
(S'new_do_write'
I74
S'fileops.c'
I544
tp69
sS'0xc0f67'
p70
(S'getuid'
I7
S'../sysdeps/unix/syscall-template.S'
I64
tp71
sS'0xc2125'
p72
(S'__GI___sysconf'
I848
S'../sysdeps/posix/sysconf.c'
I634
tp73
sS'0x7b32b'
p74
(S'_IO_file_read'
I27
S'fileops.c'
I1225
tp75
sS'0x2c4da'
p76
(S'__GI_setlocale'
I266
S'setlocale.c'
I381
tp77
sS'0xf2a12'
p78
(S'next_line'
I214
S'../sysdeps/unix/sysv/linux/getsysstats.c'
I92
tp79
sS'0x3ab0a'
p80
(S'qsort_r'
I682
S'msort.c'
I190
tp81
sS'0xf28a8'
p82
(S'phys_pages_info'
I72
S'../sysdeps/unix/sysv/linux/getsysstats.c'
I310
tp83
sS'0x6f266'
p84
(S'__fopen_internal'
I117
S'../sysdeps/wordsize-64/../../libio/iofopen.c'
I93
tp85
sS'0x7a629'
p86
(S'_IO_new_file_fopen'
I212
S'fileops.c'
I233
tp87
sS'0x45955'
p88
(S'__realpath'
I400
S'canonicalize.c'
I162
tp89
sS'0x7284b'
p90
(S'__GI_fseek'
I91
S'fseek.c'
I41
tp91
sS'0x74abe'
p92
(S'__GI_fread_unlocked'
I78
S'iofread_u.c'
I46
tp93
sS'0x82f95'
p94
(S'__GI___libc_malloc'
I117
S'malloc.c'
I2925
tp95
sS'0xbbf01'
p96
(S'__readdir'
I129
S'../sysdeps/unix/readdir.c'
I67
tp97
sS'0x7b402'
p98
(S'_IO_file_xsgetn'
I178
S'fileops.c'
I1479
tp99
sS'0xe7040'
p100
(S'write'
I0
S'../sysdeps/unix/syscall-template.S'
I82
tp101
sS'0xecbfe'
p102
(S'__GI___sbrk'
I121
S'sbrk.c'
I44
tp103
sS'0xf287b'
p104
(S'phys_pages_info'
I43
S'../sysdeps/unix/sysv/linux/getsysstats.c'
I300
tp105
sS'0xf2bbc'
p106
(S'__get_nprocs'
I172
S'../sysdeps/unix/sysv/linux/getsysstats.c'
I160
tp107
sS'0x7adec'
p108
(S'_IO_new_file_fopen'
I2199
S'fileops.c'
I230
tp109
sS'0xb2119'
p110
(S'__tzfile_read'
I531
S'tzfile.c'
I205
tp111
sS'0xbc305'
p112
(S'__getdents'
I19
S'../sysdeps/unix/sysv/linux/getdents.c'
I105
tp113
sS'0xecb1a'
p114
(S'__brk'
I3
S'../sysdeps/unix/sysv/linux/x86_64/brk.c'
I32
tp115
sS'0x7b4a0'
p116
(S'_IO_file_xsgetn'
I328
S'fileops.c'
I1458
tp117
sS'0x2dd51'
p118
(S'_nl_load_locale_from_archive'
I1073
S'loadarchive.c'
I207
tp119
sS'0x729cd'
p120
(S'_IO_getc'
I165
S'getc.c'
I41
tp121
sS'0x21774'
p122
(S'__libc_start_main'
I244
S'libc-start.c'
I106
tp123
sS'0x7ea9c'
p124
(S'sYSTRIm'
I172
S'malloc.c'
I2812
tp125
sS'0x7c03e'
p126
(S'_IO_default_uflow'
I14
S'genops.c'
I441
tp127
sS'0xecbc5'
p128
(S'__GI___sbrk'
I69
S'sbrk.c'
I55
tp129
sS'0xc0f77'
p130
(S'geteuid'
I7
S'../sysdeps/unix/syscall-template.S'
I64
tp131
sS'0xbbd3b'
p132
(S'__alloc_dir'
I75
S'../sysdeps/unix/opendir.c'
I203
tp133
sS'0xe6fe0'
p134
(S'read'
I0
S'../sysdeps/unix/syscall-template.S'
I82
tp135
sS'0x7aff8'
p136
(S'_IO_new_file_underflow'
I296
S'fileops.c'
I621
tp137
sS'0xb19a7'
p138
(S'tzset_internal'
I183
S'tzset.c'
I440
tp139
sS'0x6f5ed'
p140
(S'__GI__IO_fputs'
I157
S'iofputs.c'
I38
tp141
sS'0xe882c'
p142
(S'__isatty'
I4
S'../sysdeps/posix/isatty.c'
I29
tp143
sS'0x856e9'
p144
(S'__GI___default_morecore'
I9
S'morecore.c'
I51
tp145
sS'0xc0477'
p146
(S'__execve'
I0
S'../sysdeps/unix/sysv/linux/execve.c'
I60
tp147
sS'0x79c1d'
p148
(S'_IO_new_file_seekoff'
I765
S'fileops.c'
I1102
tp149
sS'0x79883'
p150
(S'_IO_new_file_write'
I67
S'fileops.c'
I1290
tp151
sS'0x2cdf3'
p152
(S'_nl_find_locale'
I195
S'findlocale.c'
I109
tp153
sS'0x2176d'
p154
(S'__libc_start_main'
I237
S'libc-start.c'
I258
tp155
sS'0xe7982'
p156
(S'__getcwd'
I120
S'../sysdeps/unix/sysv/linux/getcwd.c'
I111
tp157
sS'0xc0f97'
p158
(S'getegid'
I7
S'../sysdeps/unix/syscall-template.S'
I64
tp159
sS'0xe6df0'
p160
(S'open64'
I0
S'../sysdeps/unix/syscall-template.S'
I82
tp161
sS'0xc0458'
p162
(S'__GI__exit'
I48
S'../sysdeps/unix/sysv/linux/_exit.c'
I33
tp163
sS'0xe69e5'
p164
(S'__GI___lxstat'
I8
S'../sysdeps/unix/sysv/linux/wordsize-64/lxstat.c'
I38
tp165
sS'0xbbe15'
p166
(S'__opendirat'
I21
S'../sysdeps/unix/opendir.c'
I127
tp167
sS'0x6f783'
p168
(S'_IO_fread'
I133
S'iofread.c'
I44
tp169
sS'0x7018a'
p170
(S'_IO_getline_info'
I170
S'iogetline.c'
I75
tp171
sS'0x74bb0'
p172
(S'__GI_fgets_unlocked'
I80
S'iofgets_u.c'
I61
tp173
sS'0xed980'
p174
(S'fdatasync'
I0
S'../sysdeps/unix/syscall-template.S'
I82
tp175
ssS'/usr/lib/python2.7/dist-packages/bsddb3/_pybsddb.so'
p176
(dp177
S'0x1a4d9'
p178
(S'DBEnv_construct'
I185
S'Modules/_bsddb.c'
I1174
tp179
sS'0x1291a'
p180
(S'DBEnv_close'
I58
S'Modules/_bsddb.c'
I4918
tp181
sS'0x127e7'
p182
(S'DBEnv_close_internal'
I55
S'Modules/_bsddb.c'
I4901
tp183
sS'0x9400'
p184
(S'DB_close_internal'
I304
S'Modules/_bsddb.c'
I1736
tp185
sS'0x17c28'
p186
(S'DB_put'
I345
S'Modules/_bsddb.c'
I2487
tp187
sS'0x17fcd'
p188
(S'DB_open'
I445
S'Modules/_bsddb.c'
I2441
tp189
sS'0x17a81'
p190
(S'_DB_put'
I81
S'Modules/_bsddb.c'
I824
tp191
sS'0x1c23d'
p192
(S'init_bsddb'
I6285
S'Modules/_bsddb.c'
I10259
tp193
sS'0x945c'
p194
(S'DB_close'
I60
S'Modules/_bsddb.c'
I1751
tp195
sS'0x9a4d'
p196
(S'DBTxn_commit'
I141
S'Modules/_bsddb.c'
I8154
tp197
sS'0x125d7'
p198
(S'DBEnv_open'
I119
S'Modules/_bsddb.c'
I4934
tp199
ssS'/usr/local/bin/strace'
p200
(dp201
S'0x402ae5'
p202
(S'_start'
I41
NNtp203
sS'0x402a0a'
p204
(S'main'
I10
S'strace.c'
I2397
tp205
sS'0x4138df'
p206
(S'init'
I2458
S'strace.c'
I1882
tp207
sS'0x412f10'
p208
(S'startup_child'
I944
S'strace.c'
I1203
tp209
sS'0x4029ec'
p210
(S'exec_or_die'
I268
S'strace.c'
I1118
tp211
ssS'/lib/x86_64-linux-gnu/ld-2.15.so'
p212
(dp213
S'0x88db'
p214
(S'_dl_map_object'
I1019
S'dl-load.c'
I2428
tp215
sS'0x18327'
p216
(S'access'
I0
S'../sysdeps/unix/syscall-template.S'
I82
tp217
sS'0x350d'
p218
(S'dl_main'
I3629
S'rtld.c'
I1828
tp219
sS'0xf176'
p220
(S'_dl_catch_error'
I102
S'dl-error.c'
I179
tp221
sS'0x5365'
p222
(S'_dl_start'
I848
S'rtld.c'
I338
tp223
sS'0x944d'
p224
(S'_dl_load_cache_lookup'
I477
S'dl-cache.c'
I205
tp225
sS'0x16e7a'
p226
(S'__brk'
I3
S'../sysdeps/unix/sysv/linux/x86_64/brk.c'
I32
tp227
sS'0x1331a'
p228
(S'_dl_open'
I181
S'dl-open.c'
I639
tp229
sS'0x3f79'
p230
(S'dl_main'
I6286
S'rtld.c'
I729
tp231
sS'0x182c7'
p232
(S'read'
I0
S'../sysdeps/unix/syscall-template.S'
I82
tp233
sS'0x892d'
p234
(S'_dl_map_object'
I1101
S'dl-load.c'
I2471
tp235
sS'0x101bc'
p236
(S'_dl_sysdep_read_whole_file'
I44
S'dl-misc.c'
I52
tp237
sS'0x92ce'
p238
(S'_dl_load_cache_lookup'
I94
S'dl-cache.c'
I265
tp239
sS'0xcfe2'
p240
(S'openaux'
I33
S'dl-deps.c'
I65
tp241
sS'0x3354'
p242
(S'dl_main'
I3188
S'rtld.c'
I1436
tp243
sS'0x15f7c'
p244
(S'_dl_important_hwcaps'
I368
S'../elf/dl-sysdep.c'
I420
tp245
sS'0x18267'
p246
(S'open64'
I0
S'../sysdeps/unix/syscall-template.S'
I82
tp247
sS'0x5d59'
p248
(S'open_verify'
I217
S'dl-load.c'
I1933
tp249
sS'0x5d2f'
p250
(S'open_verify'
I175
S'dl-load.c'
I1915
tp251
sS'0x862d'
p252
(S'_dl_map_object'
I333
S'dl-load.c'
I2509
tp253
sS'0x15ac9'
p254
(S'_dl_sysdep_start'
I345
S'../sysdeps/x86_64/dl-machine.h'
I224
tp255
sS'0x138a9'
p256
(S'dl_open_worker'
I425
S'dl-open.c'
I266
tp257
sS'0x1005'
p258
(S'init_tls'
I239
S'rtld.c'
I787
tp259
sS'0x16b8'
p260
(S'_dl_start_user'
I0
NNtp261
sS'0x15b24'
p262
(S'_dl_sysdep_start'
I436
S'../elf/dl-sysdep.c'
I246
tp263
sS'0xd6be'
p264
(S'_dl_map_object_deps'
I558
S'dl-deps.c'
I260
tp265
sS'0x34cb'
p266
(S'dl_main'
I3546
S'rtld.c'
I1732
tp267
sS'0x1384b'
p268
(S'dl_open_worker'
I294
S'dl-open.c'
I225
tp269
sS'0x7fd6'
p270
(S'_dl_init_paths'
I54
S'dl-load.c'
I732
tp271
ssS'/lib/x86_64-linux-gnu/libdl-2.15.so'
p272
(dp273
S'0x152f'
p274
(S'_dlerror_run'
I93
S'dlerror.c'
I164
tp275
sS'0xf26'
p276
(S'dlopen_doit'
I102
S'dlopen.c'
I71
tp277
sS'0xfc1'
p278
(S'__dlopen'
I44
S'dlopen.c'
I88
tp279
sS'0x14ea'
p280
(S'_dlerror_run'
I58
S'dlerror.c'
I133
tp281
ssS'/usr/bin/python2.7'
p282
(dp283
S'0x4e0dc4'
p284
(S'file_readlines.13263'
I292
NNtp285
sS'0x4fe1ae'
p286
(S'PySys_SetArgvEx'
I510
NNtp287
sS'0x546afc'
p288
(S'Py_UniversalNewlineFgets'
I156
NNtp289
sS'0x4870ca'
p290
(S'PyEval_EvalFrameEx'
I3418
NNtp291
sS'0x4cc59e'
p292
(S'initerrno'
I1998
NNtp293
sS'0x4f7496'
p294
(S'PyObject_Call'
I54
NNtp295
sS'0x4a2adf'
p296
(S'open_the_file.13178'
I287
NNtp297
sS'0x43760e'
p298
(S'slot_tp_init.25612'
I62
NNtp299
sS'0x52fb73'
p300
(S'import_module_level.isra.3.39132'
I1059
NNtp301
sS'0x550efa'
p302
(S'PyType_Ready'
I7386
NNtp303
sS'0x49ee7d'
p304
(S'init_builtin.39040'
I141
NNtp305
sS'0x52e7a1'
p306
(S'load_source_module.39052'
I481
NNtp307
sS'0x41b155'
p308
(S'_PyCodecRegistry_Init.36206'
I231
NNtp309
sS'0x54e79d'
p310
(S'_PyObject_GC_Malloc'
I29
NNtp311
sS'0x5540ca'
p312
(S'PyString_InternInPlace'
I250
NNtp313
sS'0x52ccb6'
p314
(S'tok_nextc'
I534
NNtp315
sS'0x4862f5'
p316
(S'PyRun_StringFlags'
I229
NNtp317
sS'0x52edd3'
p318
(S'load_module.39095'
I163
NNtp319
sS'0x44cbda'
p320
(S'_PyImport_GetDynLoadFunc'
I234
NNtp321
sS'0x41fb1a'
p322
(S'load_package.39145'
I410
NNtp323
sS'0x52e501'
p324
(S'PyParser_ASTFromFile'
I129
NNtp325
sS'0x4991f6'
p326
(S'readahead_get_line_skip'
I374
NNtp327
sS'0x49ec09'
p328
(S'_PyImport_LoadDynamicModule'
I105
NNtp329
sS'0x41bb31'
p330
(S'_start'
I41
NNtp331
sS'0x4c1eae'
p332
(S'_PyObject_GenericSetAttrWithDict'
I462
NNtp333
sS'0x4de61a'
p334
(S'file_readline.13080'
I90
NNtp335
sS'0x4bcd77'
p336
(S'posix_getgid.66072'
I7
NNtp337
sS'0x487179'
p338
(S'PyEval_EvalFrameEx'
I3593
NNtp339
sS'0x486e02'
p340
(S'PyEval_EvalFrameEx'
I2706
NNtp341
sS'0x47ec4c'
p342
(S'Py_Finalize'
I380
NNtp343
sS'0x4280ab'
p344
(S'builtin___import__.32787'
I171
NNtp345
sS'0x549b4b'
p346
(S'PyParser_New'
I59
NNtp347
sS'0x489df8'
p348
(S'PyEval_EvalFrameEx'
I14984
NNtp349
sS'0x47ba58'
p350
(S'PyMarshal_ReadLastObjectFromFile'
I88
NNtp351
sS'0x488dc3'
p352
(S'PyEval_EvalFrameEx'
I10835
NNtp353
sS'0x49d995'
p354
(S'PyObject_CallFunction'
I309
NNtp355
sS'0x4c62bf'
p356
(S'decoding_fgets.4100'
I79
NNtp357
sS'0x4239f8'
p358
(S'PyImport_ExecCodeModuleEx'
I456
NNtp359
sS'0x546e54'
p360
(S'Py_UniversalNewlineFread'
I180
NNtp361
sS'0x52df9a'
p362
(S'parsetok.2431'
I106
NNtp363
sS'0x425a79'
p364
(S'Py_Main'
I761
NNtp365
sS'0x53a756'
p366
(S'Py_InitializeEx'
I646
NNtp367
sS'0x51f07c'
p368
(S'file_isatty.13060'
I108
NNtp369
sS'0x5038d5'
p370
(S'initsignal'
I677
NNtp371
sS'0x4bcd67'
p372
(S'posix_getuid.66052'
I7
NNtp373
sS'0x4243f0'
p374
(S'function_call'
I112
NNtp375
sS'0x52f292'
p376
(S'import_submodule.39106'
I722
NNtp377
sS'0x424631'
p378
(S'PyRun_FileExFlags'
I113
NNtp379
sS'0x4c40e3'
p380
(S'PyImport_GetImporter'
I259
NNtp381
sS'0x44c23a'
p382
(S'PyFile_WriteString'
I314
NNtp383
sS'0x425acd'
p384
(S'Py_Main'
I845
NNtp385
sS'0x53a5ec'
p386
(S'Py_InitializeEx'
I284
NNtp387
sS'0x51fc74'
p388
(S'PyDict_New'
I276
NNtp389
sS'0x425cb6'
p390
(S'Py_Main'
I1334
NNtp391
sS'0x52f19b'
p392
(S'import_submodule.39106'
I475
NNtp393
sS'0x52e731'
p394
(S'load_source_module.39052'
I369
NNtp395
sS'0x5401f5'
p396
(S'calculate_path.47652'
I229
NNtp397
sS'0x4588d2'
p398
(S'class_dealloc.8529'
I114
NNtp399
sS'0x48734b'
p400
(S'PyEval_EvalFrameEx'
I4059
NNtp401
sS'0x57a7d5'
p402
(S'r_long.40069'
I181
NNtp403
sS'0x52df53'
p404
(S'parsetok.2431'
I35
NNtp405
sS'0x50393c'
p406
(S'initsignal'
I780
NNtp407
sS'0x47ba73'
p408
(S'PyMarshal_ReadLastObjectFromFile'
I115
NNtp409
sS'0x4861f3'
p410
(S'PyParser_ASTFromString'
I227
NNtp411
sS'0x44cf5d'
p412
(S'zipimporter_init.69390'
I669
NNtp413
sS'0x50c0f6'
p414
(S'type_call.25261'
I246
NNtp415
sS'0x52fc26'
p416
(S'import_module_level.isra.3.39132'
I1238
NNtp417
sS'0x44cf3d'
p418
(S'zipimporter_init.69390'
I637
NNtp419
sS'0x49c537'
p420
(S'PyObject_CallMethod'
I343
NNtp421
sS'0x48626f'
p422
(S'PyRun_StringFlags'
I95
NNtp423
sS'0x458da0'
p424
(S'instance_dealloc.8658'
I528
NNtp425
sS'0x477c55'
p426
(S'func_dealloc.15050'
I293
NNtp427
sS'0x4248db'
p428
(S'PyRun_SimpleFileExFlags'
I379
NNtp429
sS'0x52bc15'
p430
(S'PyOS_setsig'
I53
NNtp431
sS'0x53a8d0'
p432
(S'Py_InitializeEx'
I1024
NNtp433
sS'0x4869f2'
p434
(S'PyEval_EvalFrameEx'
I1666
NNtp435
sS'0x4e3235'
p436
(S'posix_listdir.66130'
I181
NNtp437
sS'0x4898f7'
p438
(S'PyEval_EvalFrameEx'
I13703
NNtp439
sS'0x425b3a'
p440
(S'Py_Main'
I954
NNtp441
sS'0x474b4e'
p442
(S'inittime'
I110
NNtp443
sS'0x53aa85'
p444
(S'Py_InitializeEx'
I1461
NNtp445
sS'0x4c05ad'
p446
(S'load_next.39111'
I349
NNtp447
sS'0x52d274'
p448
(S'tok_get'
I276
NNtp449
sS'0x52f66a'
p450
(S'ensure_fromlist.part.7'
I586
NNtp451
sS'0x53ab4d'
p452
(S'Py_InitializeEx'
I1661
NNtp453
sS'0x46762a'
p454
(S'instancemethod_call.8548'
I186
NNtp455
sS'0x50c038'
p456
(S'type_call.25261'
I56
NNtp457
sS'0x52f167'
p458
(S'import_submodule.39106'
I423
NNtp459
sS'0x53a6b3'
p460
(S'Py_InitializeEx'
I483
NNtp461
sS'0x425b90'
p462
(S'Py_Main'
I1040
NNtp463
sS'0x53a765'
p464
(S'Py_InitializeEx'
I661
NNtp465
sS'0x54878d'
p466
(S'dict_dealloc.18156'
I365
NNtp467
sS'0x493f88'
p468
(S'get_line.13076'
I504
NNtp469
sS'0x4fedd7'
p470
(S'_PyBuiltin_Init'
I39
NNtp471
sS'0x4749bf'
p472
(S'inittimezone.52719'
I79
NNtp473
sS'0x53aa07'
p474
(S'Py_InitializeEx'
I1335
NNtp475
sS'0x5629f6'
p476
(S'posix_geteuid.66076'
I6
NNtp477
sS'0x52e6cd'
p478
(S'load_source_module.39052'
I269
NNtp479
sS'0x4c0523'
p480
(S'load_next.39111'
I211
NNtp481
sS'0x5405cc'
p482
(S'calculate_path.47652'
I1212
NNtp483
sS'0x488576'
p484
(S'PyEval_EvalFrameEx'
I8710
NNtp485
sS'0x4c30d8'
p486
(S'_PyCodec_Lookup'
I488
NNtp487
sS'0x53a67c'
p488
(S'Py_InitializeEx'
I428
NNtp489
sS'0x52fa64'
p490
(S'import_module_level.isra.3.39132'
I788
NNtp491
sS'0x4df4eb'
p492
(S'posix_readlink.66118'
I251
NNtp493
sS'0x55699b'
p494
(S'_Py_ReadyTypes'
I11
NNtp495
sS'0x4d033d'
p496
(S'enum_next.11428'
I45
NNtp497
sS'0x53a5bb'
p498
(S'Py_InitializeEx'
I235
NNtp499
sS'0x4bcd86'
p500
(S'posix_getegid.66080'
I6
NNtp501
sS'0x4e32a7'
p502
(S'posix_listdir.66130'
I295
NNtp503
sS'0x53a76a'
p504
(S'Py_InitializeEx'
I666
NNtp505
sS'0x555d65'
p506
(S'insertdict.18183'
I645
NNtp507
sS'0x49930e'
p508
(S'file_iternext'
I30
NNtp509
sS'0x4c303f'
p510
(S'_PyCodec_Lookup'
I335
NNtp511
sS'0x49ec34'
p512
(S'_PyImport_LoadDynamicModule'
I148
NNtp513
sS'0x48c09f'
p514
(S'PyEval_EvalFrameEx'
I23855
NNtp515
sS'0x486614'
p516
(S'PyEval_EvalFrameEx'
I676
NNtp517
sS'0x52e688'
p518
(S'load_source_module.39052'
I200
NNtp519
sS'0x486c6a'
p520
(S'PyEval_EvalFrameEx'
I2298
NNtp521
sS'0x425a36'
p522
(S'Py_Main'
I694
NNtp523
sS'0x42492e'
p524
(S'PyRun_SimpleFileExFlags'
I462
NNtp525
sS'0x4c3f1f'
p526
(S'get_path_importer.38887'
I303
NNtp527
sS'0x425c89'
p528
(S'Py_Main'
I1289
NNtp529
sS'0x4f778d'
p530
(S'slot_tp_new.24856'
I157
NNtp531
sS'0x4c20ed'
p532
(S'PyObject_SetAttr'
I109
NNtp533
sS'0x53f9de'
p534
(S'PyInterpreterState_New'
I14
NNtp535
sS'0x44c9b9'
p536
(S'_PyModule_Clear'
I329
NNtp537
sS'0x4a2d46'
p538
(S'file_init.13197'
I230
NNtp539
sS'0x4bef09'
p540
(S'PyDict_SetItem'
I73
NNtp541
sS'0x48d930'
p542
(S'PyEval_EvalCodeEx'
I416
NNtp543
sS'0x425bf7'
p544
(S'Py_Main'
I1143
NNtp545
sS'0x47ebbd'
p546
(S'Py_Finalize'
I237
NNtp547
sS'0x52fefa'
p548
(S'PyImport_ImportModuleLevel'
I58
NNtp549
sS'0x4246a1'
p550
(S'PyRun_FileExFlags'
I225
NNtp551
sS'0x41fb3b'
p552
(S'load_package.39145'
I443
NNtp553
sS'0x426bef'
p554
(S'PyImport_Import'
I271
NNtp555
sS'0x4f87cb'
p556
(S'PyObject_CallFunctionObjArgs'
I171
NNtp557
sS'0x486bb8'
p558
(S'PyEval_EvalFrameEx'
I2120
NNtp559
sS'0x4a00f5'
p560
(S'find_module.38895'
I821
NNtp561
sS'0x5508ef'
p562
(S'PyType_Ready'
I5839
NNtp563
sS'0x52bc60'
p564
(S'finisignal.49501'
I32
NNtp565
sS'0x4bffbd'
p566
(S'Py_InitModule4_64'
I221
NNtp567
sS'0x458b22'
p568
(S'code_dealloc.9725'
I338
NNtp569
sS'0x491537'
p570
(S'posix_do_stat.isra.1'
I135
NNtp571
sS'0x53a852'
p572
(S'Py_InitializeEx'
I898
NNtp573
sS'0x4366ed'
p574
(S'PyImport_Cleanup'
I1213
NNtp575
sS'0x44cf82'
p576
(S'zipimporter_init.69390'
I706
NNtp577
sS'0x4f7aa6'
p578
(S'PyEval_CallObjectWithKeywords'
I54
NNtp579
sS'0x52cb8e'
p580
(S'tok_nextc'
I238
NNtp581
sS'0x48c1b6'
p582
(S'PyEval_EvalFrameEx'
I24134
NNtp583
sS'0x4ca827'
p584
(S'_inscode'
I119
NNtp585
sS'0x4bd8bf'
p586
(S'dictresize.18189'
I111
NNtp587
sS'0x4fe185'
p588
(S'PySys_SetArgvEx'
I469
NNtp589
sS'0x52e0a7'
p590
(S'parsetok.2431'
I375
NNtp591
sS'0x53a8f7'
p592
(S'Py_InitializeEx'
I1063
NNtp593
sS'0x45ea38'
p594
(S'_PySys_Init'
I1320
NNtp595
ssS'/usr/lib/x86_64-linux-gnu/libdb-5.1.so'
p596
(dp597
S'0xd3d8b'
p598
(S'__db_put_pp'
I1168
S'../src/db/db_iface.c'
I1594
tp599
sS'0xf74d7'
p600
(S'__env_open'
I66
S'../src/env/env_open.c'
I131
tp601
sS'0xd0605'
p602
(S'__db_close_pp'
I200
S'../src/db/db_iface.c'
I254
tp603
sS'0x11a3bd'
p604
(S'__memp_fopen'
I2064
S'../src/mp/mp_fopen.c'
I275
tp605
sS'0x111153'
p606
(S'__log_put'
I2855
S'../src/log/log_put.c'
I505
tp607
sS'0xf743c'
p608
(S'__env_attach_regions'
I1489
S'../src/env/env_open.c'
I1139
tp609
sS'0x4d487'
p610
(S'__hamc_put'
I1922
S'../src/hash/hash.c'
I1316
tp611
sS'0x111a2d'
p612
(S'__log_put_record_int'
I1936
S'../src/log/log_put.c'
I1810
tp613
sS'0x5581d'
p614
(S'__ham_split_page'
I3220
S'../src/hash/hash_page.c'
I2410
tp615
sS'0x111dce'
p616
(S'__log_put_record_int'
I2853
S'../src/log/log_put.c'
I1967
tp617
sS'0x127c7a'
p618
(S'__os_read'
I490
S'../src/os/os_rw.c'
I170
tp619
sS'0x12519c'
p620
(S'__memp_mf_sync'
I444
S'../src/mp/mp_sync.c'
I857
tp621
sS'0xf73e8'
p622
(S'__env_attach_regions'
I1405
S'../src/env/env_open.c'
I1146
tp623
sS'0x10f086'
p624
(S'__log_write'
I111
S'../src/log/log_put.c'
I1278
tp625
sS'0xb4887'
p626
(S'__lock_env_create'
I39
S'../src/lock/lock_method.c'
I42
tp627
sS'0xda6ab'
p628
(S'__db_open'
I800
S'../src/db/db_open.c'
I208
tp629
sS'0x10fe0d'
p630
(S'__log_flush_int'
I1632
S'../src/log/log_put.c'
I1061
tp631
sS'0x10a71f'
p632
(S'__logc_io'
I360
S'../src/log/log_get.c'
I1320
tp633
sS'0x10b08e'
p634
(S'__logc_get_int'
I729
S'../src/log/log_get.c'
I1089
tp635
sS'0x5634c'
p636
(S'__ham_get_cpage'
I338
S'../src/hash/hash_page.c'
I2880
tp637
sS'0x115361'
p638
(S'__memp_bhwrite'
I464
S'../src/mp/mp_bh.c'
I299
tp639
sS'0xd4268'
p640
(S'__db_open_pp'
I847
S'../src/db/db_iface.c'
I1162
tp641
sS'0x136a12'
p642
(S'__txn_open'
I326
S'../src/txn/txn_region.c'
I107
tp643
sS'0xb5e3a'
p644
(S'__lock_open'
I2442
S'../src/lock/lock_region.c'
I294
tp645
sS'0xbfb02'
p646
(S'__env_setup'
I512
S'../src/db/db.c'
I433
tp647
sS'0x126a64'
p648
(S'__os_openhandle'
I452
S'../src/os/os_handle.c'
I123
tp649
sS'0x557c6'
p650
(S'__ham_split_page'
I3133
S'../src/hash/hash_page.c'
I2403
tp651
sS'0x106976'
p652
(S'__log_find'
I283
S'../src/log/log.c'
I470
tp653
sS'0xf6450'
p654
(S'__env_config'
I123
S'../src/env/env_open.c'
I432
tp655
sS'0x106d40'
p656
(S'__log_open'
I411
S'../src/log/log.c'
I323
tp657
sS'0xc4419'
p658
(S'__dbc_iput'
I131
S'../src/db/db_cam.c'
I2121
tp659
sS'0xc04d8'
p660
(S'__db_refresh'
I2032
S'../src/db/db.c'
I831
tp661
sS'0x4ced1'
p662
(S'__hamc_put'
I457
S'../src/hash/hash.c'
I1088
tp663
sS'0x55ccc'
p664
(S'__ham_add_el'
I844
S'../src/hash/hash_page.c'
I2614
tp665
sS'0x125d4e'
p666
(S'__os_cpu_count'
I14
S'../src/os/os_cpu.c'
I43
tp667
sS'0xc2877'
p668
(S'__db_sync'
I94
S'../src/db/db_am.c'
I755
tp669
sS'0x106a32'
p670
(S'__log_find'
I498
S'../src/log/log.c'
I583
tp671
sS'0x10fbb1'
p672
(S'__log_flush_int'
I1024
S'../src/log/log_put.c'
I1087
tp673
sS'0x132f4d'
p674
(S'__txn_commit'
I1933
S'../src/txn/txn.c'
I749
tp675
sS'0x110597'
p676
(S'__log_newfile'
I816
S'../src/log/log_put.c'
I628
tp677
sS'0x10f5d0'
p678
(S'__log_putr'
I712
S'../src/log/log_put.c'
I823
tp679
sS'0xf69ed'
p680
(S'__env_close'
I128
S'../src/env/env_open.c'
I600
tp681
sS'0x125127'
p682
(S'__memp_mf_sync'
I304
S'../src/mp/mp_sync.c'
I855
tp683
sS'0x103e94'
p684
(S'__fop_file_setup'
I2132
S'../src/fileops/fop_util.c'
I362
tp685
sS'0x1269fa'
p686
(S'__os_openhandle'
I346
S'../src/os/os_handle.c'
I161
tp687
sS'0x128301'
p688
(S'__os_io'
I860
S'/usr/include/x86_64-linux-gnu/bits/unistd.h'
I84
tp689
sS'0x1241e3'
p690
(S'__memp_sync_int'
I657
S'../src/mp/mp_sync.c'
I472
tp691
sS'0xbf7d6'
p692
(S'__env_mpool'
I569
S'../src/db/db.c'
I650
tp693
sS'0x1281b8'
p694
(S'__os_io'
I493
S'../src/os/os_rw.c'
I89
tp695
sS'0x55701'
p696
(S'__ham_split_page'
I2932
S'../src/hash/hash_page.c'
I2369
tp697
sS'0x10636e'
p698
(S'__log_valid'
I118
S'../src/log/log.c'
I636
tp699
sS'0xf7422'
p700
(S'__env_attach_regions'
I1463
S'../src/env/env_open.c'
I1142
tp701
sS'0x1246db'
p702
(S'__memp_sync_int'
I1963
S'../src/mp/mp_sync.c'
I787
tp703
sS'0x12459b'
p704
(S'__memp_sync_int'
I1630
S'../src/mp/mp_sync.c'
I619
tp705
sS'0x1100c5'
p706
(S'__log_flush'
I85
S'../src/log/log_put.c'
I914
tp707
sS'0x11218b'
p708
(S'__log_name'
I214
S'../src/log/log_put.c'
I1471
tp709
sS'0x13689a'
p710
(S'__txn_findlastckp'
I368
S'../src/txn/txn_region.c'
I180
tp711
sS'0xf6ce0'
p712
(S'__env_close_pp'
I437
S'../src/env/env_open.c'
I535
tp713
sS'0x4d3ae'
p714
(S'__hamc_put'
I1691
S'../src/hash/hash.c'
I1121
tp715
sS'0xda66b'
p716
(S'__db_open'
I724
S'../src/db/db_open.c'
I184
tp717
sS'0x104171'
p718
(S'__fop_file_setup'
I2832
S'../src/fileops/fop_util.c'
I336
tp719
sS'0x10f12e'
p720
(S'__log_write'
I318
S'../src/log/log_put.c'
I1268
tp721
sS'0x50fd9'
p722
(S'__ham_get_meta'
I105
S'../src/hash/hash_meta.c'
I44
tp723
sS'0x112c40'
p724
(S'__log_put_record'
I160
S'../src/log/log_put.c'
I1712
tp725
sS'0xc2020'
p726
(S'__db_put'
I608
S'../src/db/db_am.c'
I520
tp727
sS'0xc0734'
p728
(S'__db_close'
I52
S'../src/db/db.c'
I711
tp729
sS'0x10316a'
p730
(S'__fop_read_meta'
I85
S'../src/fileops/fop_util.c'
I1069
tp731
sS'0x1178c4'
p732
(S'__memp_fget'
I7944
S'../src/mp/mp_fget.c'
I903
tp733
sS'0x127733'
p734
(S'__os_open'
I227
S'../src/os/os_open.c'
I104
tp735
sS'0x114f24'
p736
(S'__memp_pgwrite'
I286
S'../src/mp/mp_bh.c'
I395
tp737
sS'0x52c87'
p738
(S'__ham_splitdata_log'
I103
S'../src/dbinc_auto/hash_auto.h'
I129
tp739
sS'0x13346e'
p740
(S'__txn_commit_pp'
I142
S'../src/txn/txn.c'
I597
tp741
sS'0x4d430'
p742
(S'__hamc_put'
I1828
S'../src/hash/hash.c'
I1410
tp743
sS'0xf6593'
p744
(S'__env_refresh'
I49
S'../src/env/env_open.c'
I686
tp745
sS'0xb5f6a'
p746
(S'__lock_open'
I2746
S'../src/lock/lock_region.c'
I317
tp747
sS'0xda99f'
p748
(S'__db_open'
I1583
S'../src/db/db_open.c'
I240
tp749
sS'0x10ef99'
p750
(S'__log_newfh'
I127
S'../src/log/log_put.c'
I1402
tp751
sS'0x10bb10'
p752
(S'__logc_get_int'
I3394
S'../src/log/log_get.c'
I1156
tp753
sS'0x125a35'
p754
(S'__os_malloc'
I112
S'../src/os/os_alloc.c'
I253
tp755
sS'0x10f045'
p756
(S'__log_write'
I66
S'../src/log/log_put.c'
I1250
tp757
sS'0x1269dc'
p758
(S'__os_openhandle'
I304
S'../src/os/os_handle.c'
I161
tp759
sS'0xf6098'
p760
(S'__db_file_extend'
I160
S'../src/env/env_file.c'
I47
tp761
sS'0xf76c0'
p762
(S'__env_open'
I544
S'../src/env/env_open.c'
I187
tp763
sS'0x1248c6'
p764
(S'__memp_sync_int'
I2431
S'../src/mp/mp_sync.c'
I566
tp765
sS'0x127f08'
p766
(S'__os_physwrite'
I408
S'../src/os/os_rw.c'
I269
tp767
sS'0x110e38'
p768
(S'__log_put'
I2048
S'../src/log/log_put.c'
I450
tp769
sS'0x125f9a'
p770
(S'__os_dirlist'
I235
S'../src/os/os_dir.c'
I65
tp771
sS'0x106ad2'
p772
(S'__log_find'
I624
S'../src/log/log.c'
I517
tp773
sS'0x10748c'
p774
(S'__log_open'
I2264
S'../src/log/log.c'
I372
tp775
sS'0x10c222'
p776
(S'__logc_get'
I61
S'../src/log/log_get.c'
I322
tp777
sS'0x111e0b'
p778
(S'__log_put_record_int'
I2922
S'../src/log/log_put.c'
I2003
tp779
sS'0x4bc4f'
p780
(S'__ham_lookup'
I186
S'../src/hash/hash.c'
I1910
tp781
sS'0xf305a'
p782
(S'__env_read_db_config'
I106
S'../src/env/env_config.c'
I42
tp783
sS'0x1064ac'
p784
(S'__log_valid'
I413
S'../src/log/log.c'
I661
tp785
sS'0x107434'
p786
(S'__log_open'
I2191
S'../src/log/log.c'
I364
tp787
sS'0x1253e0'
p788
(S'__memp_sync_file'
I528
S'../src/mp/mp_sync.c'
I700
tp789
sS'0x114d1c'
p790
(S'__memp_pgread'
I119
S'../src/mp/mp_bh.c'
I224
tp791
sS'0x1076d7'
p792
(S'__log_env_refresh'
I352
S'../src/log/log.c'
I855
tp793
sS'0xf6947'
p794
(S'__env_refresh'
I992
S'../src/env/env_open.c'
I752
tp795
sS'0x110b52'
p796
(S'__log_put'
I1330
S'../src/log/log_put.c'
I172
tp797
sS'0x125f59'
p798
(S'__os_dirlist'
I193
S'../src/os/os_dir.c'
I62
tp799
sS'0x1265b0'
p800
(S'__os_fsync'
I128
S'../src/os/os_fsync.c'
I92
tp801
sS'0x54eb1'
p802
(S'__ham_split_page'
I817
S'../src/hash/hash_page.c'
I2211
tp803
sS'0x51a8a'
p804
(S'__ham_open'
I209
S'../src/hash/hash_open.c'
I98
tp805
sS'0x10a640'
p806
(S'__logc_io'
I139
S'../src/log/log_get.c'
I1292
tp807
sS'0x10f2a0'
p808
(S'__log_fill'
I271
S'../src/log/log_put.c'
I1213
tp809
sS'0xf8f35'
p810
(S'db_env_create'
I2832
S'../src/env/env_method.c'
I91
tp811
sS'0x128219'
p812
(S'__os_io'
I633
S'../src/os/os_rw.c'
I117
tp813
sS'0x123d52'
p814
(S'__memp_walk_files'
I144
S'../src/mp/mp_sync.c'
I57
tp815
sS'0xf2be9'
p816
(S'__env_alloc'
I524
S'../src/env/env_alloc.c'
I245
tp817
sS'0x54d93'
p818
(S'__ham_split_page'
I526
S'../src/hash/hash_page.c'
I2199
tp819
ss.