(dp0
S'content'
p1
(imystruct
Struct
p2
(dp3
S'omitmicro'
p4
(lp5
(I20
I21
tp6
a(I24
I25
tp7
a(I24
I26
tp8
a(I24
I27
tp9
a(I31
I32
tp10
a(I34
I35
tp11
a(I42
I43
tp12
a(I47
I48
tp13
a(I47
I49
tp14
asS'omit_one'
p15
(dp16
S'aligned'
p17
(lp18
((I23
I0
tp19
(I23
I1
tp20
tp21
a((I24
I0
tp22
(I24
I1
tp23
tp24
a((I27
I2
tp25
(I27
I3
tp26
tp27
a(g25
(I27
I4
tp28
tp29
a(g25
(I27
I5
tp30
tp31
a((I32
I2
tp32
(I32
I3
tp33
tp34
a(g32
(I32
I4
tp35
tp36
a(g32
(I32
I5
tp37
tp38
a(g32
(I32
I6
tp39
tp40
a(g32
(I32
I7
tp41
tp42
a(g32
(I32
I8
tp43
tp44
a((I32
I5
tp45
(I32
I6
tp46
tp47
a(g45
(I32
I7
tp48
tp49
a(g45
(I32
I8
tp50
tp51
a((I37
I0
tp52
(I37
I1
tp53
tp54
a((I38
I0
tp55
(I38
I1
tp56
tp57
a((I39
I0
tp58
(I39
I1
tp59
tp60
a(g58
(I39
I2
tp61
tp62
a((I39
I1
tp63
(I39
I2
tp64
tp65
a((I40
I0
tp66
(I40
I1
tp67
tp68
a((I41
I0
tp69
(I41
I1
tp70
tp71
a((I45
I0
tp72
(I45
I1
tp73
tp74
a((I46
I0
tp75
(I46
I1
tp76
tp77
a((I47
I0
tp78
(I47
I1
tp79
tp80
asS'three'
p81
(lp82
((I2
I2
tp83
(I2
I3
tp84
tp85
a(g83
(I2
I4
tp86
tp87
a(g83
(I2
I5
tp88
tp89
a(g83
(I2
I6
tp90
tp91
a(g83
(I2
I7
tp92
tp93
a(g83
(I2
I8
tp94
tp95
a((I2
I5
tp96
(I2
I6
tp97
tp98
a(g96
(I2
I7
tp99
tp100
a(g96
(I2
I8
tp101
tp102
a((I21
I2
tp103
(I21
I3
tp104
tp105
a(g103
(I21
I4
tp106
tp107
a(g103
(I21
I5
tp108
tp109
a(g103
(I21
I6
tp110
tp111
a(g103
(I21
I7
tp112
tp113
a(g103
(I21
I8
tp114
tp115
a((I21
I5
tp116
(I21
I6
tp117
tp118
a(g116
(I21
I7
tp119
tp120
a(g116
(I21
I8
tp121
tp122
a((I23
I0
tp123
(I23
I1
tp124
tp125
a(g123
(I23
I2
tp126
tp127
a(g123
(I23
I3
tp128
tp129
a((I23
I1
tp130
(I23
I2
tp131
tp132
a(g130
(I23
I3
tp133
tp134
a((I23
I2
tp135
(I23
I3
tp136
tp137
a((I24
I0
tp138
(I24
I1
tp139
tp140
a((I27
I2
tp141
(I27
I3
tp142
tp143
a(g141
(I27
I4
tp144
tp145
a(g141
(I27
I5
tp146
tp147
a(g141
(I27
I6
tp148
tp149
a(g141
(I27
I7
tp150
tp151
a(g141
(I27
I8
tp152
tp153
a((I27
I5
tp154
(I27
I6
tp155
tp156
a(g154
(I27
I7
tp157
tp158
a(g154
(I27
I8
tp159
tp160
a((I32
I2
tp161
(I32
I3
tp162
tp163
a(g161
(I32
I4
tp164
tp165
a(g161
(I32
I5
tp166
tp167
a(g161
(I32
I6
tp168
tp169
a(g161
(I32
I7
tp170
tp171
a(g161
(I32
I8
tp172
tp173
a((I32
I5
tp174
(I32
I6
tp175
tp176
a(g174
(I32
I7
tp177
tp178
a(g174
(I32
I8
tp179
tp180
a((I35
I2
tp181
(I35
I3
tp182
tp183
a(g181
(I35
I4
tp184
tp185
a(g181
(I35
I5
tp186
tp187
a(g181
(I35
I6
tp188
tp189
a(g181
(I35
I7
tp190
tp191
a(g181
(I35
I8
tp192
tp193
a((I35
I5
tp194
(I35
I6
tp195
tp196
a(g194
(I35
I7
tp197
tp198
a(g194
(I35
I8
tp199
tp200
a((I37
I0
tp201
(I37
I1
tp202
tp203
a(g201
(I37
I2
tp204
tp205
a(g201
(I37
I3
tp206
tp207
a((I37
I1
tp208
(I37
I2
tp209
tp210
a(g208
(I37
I3
tp211
tp212
a((I37
I2
tp213
(I37
I3
tp214
tp215
a((I38
I0
tp216
(I38
I1
tp217
tp218
a((I39
I0
tp219
(I39
I1
tp220
tp221
a(g219
(I39
I2
tp222
tp223
a(g219
(I39
I3
tp224
tp225
a((I39
I1
tp226
(I39
I2
tp227
tp228
a(g226
(I39
I3
tp229
tp230
a((I39
I2
tp231
(I39
I3
tp232
tp233
a((I40
I0
tp234
(I40
I1
tp235
tp236
a(g234
(I40
I2
tp237
tp238
a(g234
(I40
I3
tp239
tp240
a((I40
I1
tp241
(I40
I2
tp242
tp243
a(g241
(I40
I3
tp244
tp245
a((I40
I2
tp246
(I40
I3
tp247
tp248
a((I41
I0
tp249
(I41
I1
tp250
tp251
a((I43
I2
tp252
(I43
I3
tp253
tp254
a(g252
(I43
I4
tp255
tp256
a(g252
(I43
I5
tp257
tp258
a(g252
(I43
I6
tp259
tp260
a(g252
(I43
I7
tp261
tp262
a(g252
(I43
I8
tp263
tp264
a((I43
I5
tp265
(I43
I6
tp266
tp267
a(g265
(I43
I7
tp268
tp269
a(g265
(I43
I8
tp270
tp271
a((I45
I0
tp272
(I45
I1
tp273
tp274
a(g272
(I45
I2
tp275
tp276
a(g272
(I45
I3
tp277
tp278
a((I45
I1
tp279
(I45
I2
tp280
tp281
a(g279
(I45
I3
tp282
tp283
a((I45
I2
tp284
(I45
I3
tp285
tp286
a((I46
I0
tp287
(I46
I1
tp288
tp289
a((I47
I0
tp290
(I47
I1
tp291
tp292
a(g290
(I47
I2
tp293
tp294
a(g290
(I47
I3
tp295
tp296
a((I47
I1
tp297
(I47
I2
tp298
tp299
a(g297
(I47
I3
tp300
tp301
a((I47
I2
tp302
(I47
I3
tp303
tp304
asS'one'
p305
(lp306
((I23
I0
tp307
(I23
I1
tp308
tp309
a((I24
I0
tp310
(I24
I1
tp311
tp312
a((I37
I0
tp313
(I37
I1
tp314
tp315
a((I38
I0
tp316
(I38
I1
tp317
tp318
a((I39
I0
tp319
(I39
I1
tp320
tp321
a((I40
I0
tp322
(I40
I1
tp323
tp324
a((I41
I0
tp325
(I41
I1
tp326
tp327
a((I45
I0
tp328
(I45
I1
tp329
tp330
a((I46
I0
tp331
(I46
I1
tp332
tp333
a((I47
I0
tp334
(I47
I1
tp335
tp336
assS'prefix'
p337
(dp338
g17
(lp339
(I0
I0
tp340
a(I1
I0
tp341
a(I2
I0
tp342
a(I2
I1
tp343
a(I2
I2
tp344
a(I2
I3
tp345
a(I2
I4
tp346
a(I2
I5
tp347
a(I3
I0
tp348
a(I3
I1
tp349
a(I3
I2
tp350
a(I3
I3
tp351
a(I3
I4
tp352
a(I3
I5
tp353
a(I4
I0
tp354
a(I4
I1
tp355
a(I4
I2
tp356
a(I4
I3
tp357
a(I4
I4
tp358
a(I4
I5
tp359
a(I5
I0
tp360
a(I5
I1
tp361
a(I5
I2
tp362
a(I5
I3
tp363
a(I5
I4
tp364
a(I5
I5
tp365
a(I6
I0
tp366
a(I6
I1
tp367
a(I6
I2
tp368
a(I6
I3
tp369
a(I6
I4
tp370
a(I6
I5
tp371
a(I7
I0
tp372
a(I7
I1
tp373
a(I7
I2
tp374
a(I7
I3
tp375
a(I7
I4
tp376
a(I7
I5
tp377
a(I8
I0
tp378
a(I8
I1
tp379
a(I8
I2
tp380
a(I8
I3
tp381
a(I8
I4
tp382
a(I8
I5
tp383
a(I9
I0
tp384
a(I9
I1
tp385
a(I9
I2
tp386
a(I9
I3
tp387
a(I9
I4
tp388
a(I9
I5
tp389
a(I10
I0
tp390
a(I10
I1
tp391
a(I10
I2
tp392
a(I10
I3
tp393
a(I10
I4
tp394
a(I10
I5
tp395
a(I11
I0
tp396
a(I12
I0
tp397
a(I13
I0
tp398
a(I14
I0
tp399
a(I15
I0
tp400
a(I16
I0
tp401
a(I17
I0
tp402
a(I18
I0
tp403
a(I19
I0
tp404
a(I20
I0
tp405
a(I21
I0
tp406
a(I21
I1
tp407
a(I21
I2
tp408
a(I21
I3
tp409
a(I21
I4
tp410
a(I21
I5
tp411
a(I22
I0
tp412
a(I23
I0
tp413
a(I23
I1
tp414
a(I24
I0
tp415
a(I24
I1
tp416
a(I24
I2
tp417
a(I24
I3
tp418
a(I24
I4
tp419
a(I24
I5
tp420
a(I25
I0
tp421
a(I26
I0
tp422
a(I27
I0
tp423
a(I27
I1
tp424
a(I27
I2
tp425
a(I27
I3
tp426
a(I27
I4
tp427
a(I27
I5
tp428
a(I27
I6
tp429
a(I27
I7
tp430
a(I27
I8
tp431
a(I27
I9
tp432
a(I27
I10
tp433
a(I27
I11
tp434
a(I28
I0
tp435
a(I29
I0
tp436
a(I30
I0
tp437
a(I31
I0
tp438
a(I32
I0
tp439
a(I32
I1
tp440
a(I32
I2
tp441
a(I32
I3
tp442
a(I32
I4
tp443
a(I32
I5
tp444
a(I32
I6
tp445
a(I32
I7
tp446
a(I32
I8
tp447
a(I32
I9
tp448
a(I32
I10
tp449
a(I32
I11
tp450
a(I32
I12
tp451
a(I32
I13
tp452
a(I32
I14
tp453
a(I32
I15
tp454
a(I32
I16
tp455
a(I32
I17
tp456
a(I33
I0
tp457
a(I34
I0
tp458
a(I35
I0
tp459
a(I35
I1
tp460
a(I35
I2
tp461
a(I35
I3
tp462
a(I35
I4
tp463
a(I35
I5
tp464
a(I36
I0
tp465
a(I37
I0
tp466
a(I37
I1
tp467
a(I38
I0
tp468
a(I38
I1
tp469
a(I38
I2
tp470
a(I38
I3
tp471
a(I38
I4
tp472
a(I38
I5
tp473
a(I39
I0
tp474
a(I39
I1
tp475
a(I39
I2
tp476
a(I40
I0
tp477
a(I40
I1
tp478
a(I41
I0
tp479
a(I41
I1
tp480
a(I41
I2
tp481
a(I41
I3
tp482
a(I41
I4
tp483
a(I41
I5
tp484
a(I42
I0
tp485
a(I43
I0
tp486
a(I43
I1
tp487
a(I43
I2
tp488
a(I43
I3
tp489
a(I43
I4
tp490
a(I43
I5
tp491
a(I44
I0
tp492
a(I45
I0
tp493
a(I45
I1
tp494
a(I46
I0
tp495
a(I46
I1
tp496
a(I46
I2
tp497
a(I46
I3
tp498
a(I46
I4
tp499
a(I46
I5
tp500
a(I47
I0
tp501
a(I47
I1
tp502
a(I48
I0
tp503
a(I49
I0
tp504
asg81
(lp505
(I0
I0
tp506
a(I1
I0
tp507
a(I2
I0
tp508
a(I2
I1
tp509
a(I2
I2
tp510
a(I2
I3
tp511
a(I2
I4
tp512
a(I2
I5
tp513
a(I2
I6
tp514
a(I2
I7
tp515
a(I2
I8
tp516
a(I2
I9
tp517
a(I2
I10
tp518
a(I2
I11
tp519
a(I2
I12
tp520
a(I2
I13
tp521
a(I2
I14
tp522
a(I2
I15
tp523
a(I2
I16
tp524
a(I2
I17
tp525
a(I3
I0
tp526
a(I3
I1
tp527
a(I3
I2
tp528
a(I3
I3
tp529
a(I3
I4
tp530
a(I3
I5
tp531
a(I4
I0
tp532
a(I4
I1
tp533
a(I4
I2
tp534
a(I4
I3
tp535
a(I4
I4
tp536
a(I4
I5
tp537
a(I5
I0
tp538
a(I5
I1
tp539
a(I5
I2
tp540
a(I5
I3
tp541
a(I5
I4
tp542
a(I5
I5
tp543
a(I6
I0
tp544
a(I6
I1
tp545
a(I6
I2
tp546
a(I6
I3
tp547
a(I6
I4
tp548
a(I6
I5
tp549
a(I7
I0
tp550
a(I7
I1
tp551
a(I7
I2
tp552
a(I7
I3
tp553
a(I7
I4
tp554
a(I7
I5
tp555
a(I8
I0
tp556
a(I8
I1
tp557
a(I8
I2
tp558
a(I8
I3
tp559
a(I8
I4
tp560
a(I8
I5
tp561
a(I9
I0
tp562
a(I9
I1
tp563
a(I9
I2
tp564
a(I9
I3
tp565
a(I9
I4
tp566
a(I9
I5
tp567
a(I10
I0
tp568
a(I10
I1
tp569
a(I10
I2
tp570
a(I10
I3
tp571
a(I10
I4
tp572
a(I10
I5
tp573
a(I11
I0
tp574
a(I12
I0
tp575
a(I13
I0
tp576
a(I14
I0
tp577
a(I15
I0
tp578
a(I16
I0
tp579
a(I17
I0
tp580
a(I18
I0
tp581
a(I19
I0
tp582
a(I20
I0
tp583
a(I21
I0
tp584
a(I21
I1
tp585
a(I21
I2
tp586
a(I21
I3
tp587
a(I21
I4
tp588
a(I21
I5
tp589
a(I21
I6
tp590
a(I21
I7
tp591
a(I21
I8
tp592
a(I21
I9
tp593
a(I21
I10
tp594
a(I21
I11
tp595
a(I21
I12
tp596
a(I21
I13
tp597
a(I21
I14
tp598
a(I21
I15
tp599
a(I21
I16
tp600
a(I21
I17
tp601
a(I22
I0
tp602
a(I23
I0
tp603
a(I23
I1
tp604
a(I23
I2
tp605
a(I23
I3
tp606
a(I24
I0
tp607
a(I24
I1
tp608
a(I24
I2
tp609
a(I24
I3
tp610
a(I24
I4
tp611
a(I24
I5
tp612
a(I25
I0
tp613
a(I26
I0
tp614
a(I27
I0
tp615
a(I27
I1
tp616
a(I27
I2
tp617
a(I27
I3
tp618
a(I27
I4
tp619
a(I27
I5
tp620
a(I27
I6
tp621
a(I27
I7
tp622
a(I27
I8
tp623
a(I27
I9
tp624
a(I27
I10
tp625
a(I27
I11
tp626
a(I27
I12
tp627
a(I27
I13
tp628
a(I27
I14
tp629
a(I27
I15
tp630
a(I27
I16
tp631
a(I27
I17
tp632
a(I28
I0
tp633
a(I29
I0
tp634
a(I30
I0
tp635
a(I31
I0
tp636
a(I32
I0
tp637
a(I32
I1
tp638
a(I32
I2
tp639
a(I32
I3
tp640
a(I32
I4
tp641
a(I32
I5
tp642
a(I32
I6
tp643
a(I32
I7
tp644
a(I32
I8
tp645
a(I32
I9
tp646
a(I32
I10
tp647
a(I32
I11
tp648
a(I32
I12
tp649
a(I32
I13
tp650
a(I32
I14
tp651
a(I32
I15
tp652
a(I32
I16
tp653
a(I32
I17
tp654
a(I33
I0
tp655
a(I34
I0
tp656
a(I35
I0
tp657
a(I35
I1
tp658
a(I35
I2
tp659
a(I35
I3
tp660
a(I35
I4
tp661
a(I35
I5
tp662
a(I35
I6
tp663
a(I35
I7
tp664
a(I35
I8
tp665
a(I35
I9
tp666
a(I35
I10
tp667
a(I35
I11
tp668
a(I35
I12
tp669
a(I35
I13
tp670
a(I35
I14
tp671
a(I35
I15
tp672
a(I35
I16
tp673
a(I35
I17
tp674
a(I36
I0
tp675
a(I37
I0
tp676
a(I37
I1
tp677
a(I37
I2
tp678
a(I37
I3
tp679
a(I38
I0
tp680
a(I38
I1
tp681
a(I38
I2
tp682
a(I38
I3
tp683
a(I38
I4
tp684
a(I38
I5
tp685
a(I39
I0
tp686
a(I39
I1
tp687
a(I39
I2
tp688
a(I39
I3
tp689
a(I40
I0
tp690
a(I40
I1
tp691
a(I40
I2
tp692
a(I40
I3
tp693
a(I41
I0
tp694
a(I41
I1
tp695
a(I41
I2
tp696
a(I41
I3
tp697
a(I41
I4
tp698
a(I41
I5
tp699
a(I42
I0
tp700
a(I43
I0
tp701
a(I43
I1
tp702
a(I43
I2
tp703
a(I43
I3
tp704
a(I43
I4
tp705
a(I43
I5
tp706
a(I43
I6
tp707
a(I43
I7
tp708
a(I43
I8
tp709
a(I43
I9
tp710
a(I43
I10
tp711
a(I43
I11
tp712
a(I43
I12
tp713
a(I43
I13
tp714
a(I43
I14
tp715
a(I43
I15
tp716
a(I43
I16
tp717
a(I43
I17
tp718
a(I44
I0
tp719
a(I45
I0
tp720
a(I45
I1
tp721
a(I45
I2
tp722
a(I45
I3
tp723
a(I46
I0
tp724
a(I46
I1
tp725
a(I46
I2
tp726
a(I46
I3
tp727
a(I46
I4
tp728
a(I46
I5
tp729
a(I47
I0
tp730
a(I47
I1
tp731
a(I47
I2
tp732
a(I47
I3
tp733
a(I48
I0
tp734
a(I49
I0
tp735
asg305
(lp736
(I0
I0
tp737
a(I1
I0
tp738
a(I2
I0
tp739
a(I2
I1
tp740
a(I2
I2
tp741
a(I2
I3
tp742
a(I2
I4
tp743
a(I2
I5
tp744
a(I3
I0
tp745
a(I3
I1
tp746
a(I3
I2
tp747
a(I3
I3
tp748
a(I3
I4
tp749
a(I3
I5
tp750
a(I4
I0
tp751
a(I4
I1
tp752
a(I4
I2
tp753
a(I4
I3
tp754
a(I4
I4
tp755
a(I4
I5
tp756
a(I5
I0
tp757
a(I5
I1
tp758
a(I5
I2
tp759
a(I5
I3
tp760
a(I5
I4
tp761
a(I5
I5
tp762
a(I6
I0
tp763
a(I6
I1
tp764
a(I6
I2
tp765
a(I6
I3
tp766
a(I6
I4
tp767
a(I6
I5
tp768
a(I7
I0
tp769
a(I7
I1
tp770
a(I7
I2
tp771
a(I7
I3
tp772
a(I7
I4
tp773
a(I7
I5
tp774
a(I8
I0
tp775
a(I8
I1
tp776
a(I8
I2
tp777
a(I8
I3
tp778
a(I8
I4
tp779
a(I8
I5
tp780
a(I9
I0
tp781
a(I9
I1
tp782
a(I9
I2
tp783
a(I9
I3
tp784
a(I9
I4
tp785
a(I9
I5
tp786
a(I10
I0
tp787
a(I10
I1
tp788
a(I10
I2
tp789
a(I10
I3
tp790
a(I10
I4
tp791
a(I10
I5
tp792
a(I11
I0
tp793
a(I12
I0
tp794
a(I13
I0
tp795
a(I14
I0
tp796
a(I15
I0
tp797
a(I16
I0
tp798
a(I17
I0
tp799
a(I18
I0
tp800
a(I19
I0
tp801
a(I20
I0
tp802
a(I21
I0
tp803
a(I21
I1
tp804
a(I21
I2
tp805
a(I21
I3
tp806
a(I21
I4
tp807
a(I21
I5
tp808
a(I22
I0
tp809
a(I23
I0
tp810
a(I23
I1
tp811
a(I24
I0
tp812
a(I24
I1
tp813
a(I24
I2
tp814
a(I24
I3
tp815
a(I24
I4
tp816
a(I24
I5
tp817
a(I25
I0
tp818
a(I26
I0
tp819
a(I27
I0
tp820
a(I27
I1
tp821
a(I27
I2
tp822
a(I27
I3
tp823
a(I27
I4
tp824
a(I27
I5
tp825
a(I28
I0
tp826
a(I29
I0
tp827
a(I30
I0
tp828
a(I31
I0
tp829
a(I32
I0
tp830
a(I32
I1
tp831
a(I32
I2
tp832
a(I32
I3
tp833
a(I32
I4
tp834
a(I32
I5
tp835
a(I33
I0
tp836
a(I34
I0
tp837
a(I35
I0
tp838
a(I35
I1
tp839
a(I35
I2
tp840
a(I35
I3
tp841
a(I35
I4
tp842
a(I35
I5
tp843
a(I36
I0
tp844
a(I37
I0
tp845
a(I37
I1
tp846
a(I38
I0
tp847
a(I38
I1
tp848
a(I38
I2
tp849
a(I38
I3
tp850
a(I38
I4
tp851
a(I38
I5
tp852
a(I39
I0
tp853
a(I39
I1
tp854
a(I40
I0
tp855
a(I40
I1
tp856
a(I41
I0
tp857
a(I41
I1
tp858
a(I41
I2
tp859
a(I41
I3
tp860
a(I41
I4
tp861
a(I41
I5
tp862
a(I42
I0
tp863
a(I43
I0
tp864
a(I43
I1
tp865
a(I43
I2
tp866
a(I43
I3
tp867
a(I43
I4
tp868
a(I43
I5
tp869
a(I44
I0
tp870
a(I45
I0
tp871
a(I45
I1
tp872
a(I46
I0
tp873
a(I46
I1
tp874
a(I46
I2
tp875
a(I46
I3
tp876
a(I46
I4
tp877
a(I46
I5
tp878
a(I47
I0
tp879
a(I47
I1
tp880
a(I48
I0
tp881
a(I49
I0
tp882
assbsS'checksums'
p883
S'40195   787\n'
p884
s.