(dp0
S'content'
p1
(imystruct
Struct
p2
(dp3
S'omitmicro'
p4
(lp5
(I0
I1
tp6
a(I0
I3
tp7
a(I0
I4
tp8
a(I0
I5
tp9
a(I0
I6
tp10
a(I0
I8
tp11
a(I0
I9
tp12
a(I0
I10
tp13
a(I0
I11
tp14
a(I0
I12
tp15
a(I0
I13
tp16
a(I0
I14
tp17
a(I0
I15
tp18
a(I0
I16
tp19
a(I0
I17
tp20
a(I0
I18
tp21
a(I0
I19
tp22
a(I0
I20
tp23
a(I0
I21
tp24
a(I0
I22
tp25
a(I0
I23
tp26
a(I0
I24
tp27
a(I0
I25
tp28
a(I0
I26
tp29
a(I0
I27
tp30
a(I0
I28
tp31
a(I0
I29
tp32
a(I0
I30
tp33
a(I0
I31
tp34
a(I0
I32
tp35
a(I0
I33
tp36
a(I0
I34
tp37
a(I0
I35
tp38
a(I0
I36
tp39
a(I0
I37
tp40
a(I0
I38
tp41
a(I0
I39
tp42
a(I0
I40
tp43
a(I0
I41
tp44
a(I0
I42
tp45
a(I0
I43
tp46
a(I0
I44
tp47
a(I0
I45
tp48
a(I0
I46
tp49
a(I0
I47
tp50
a(I0
I48
tp51
a(I0
I49
tp52
a(I0
I50
tp53
a(I0
I52
tp54
a(I0
I53
tp55
a(I0
I54
tp56
a(I0
I55
tp57
a(I0
I57
tp58
a(I0
I58
tp59
a(I0
I59
tp60
a(I1
I3
tp61
a(I1
I4
tp62
a(I1
I5
tp63
a(I1
I6
tp64
a(I1
I8
tp65
a(I1
I9
tp66
a(I1
I10
tp67
a(I1
I11
tp68
a(I1
I12
tp69
a(I1
I13
tp70
a(I1
I14
tp71
a(I1
I15
tp72
a(I1
I16
tp73
a(I1
I17
tp74
a(I1
I18
tp75
a(I1
I19
tp76
a(I1
I20
tp77
a(I1
I21
tp78
a(I1
I22
tp79
a(I1
I23
tp80
a(I1
I24
tp81
a(I1
I25
tp82
a(I1
I26
tp83
a(I1
I27
tp84
a(I1
I28
tp85
a(I1
I29
tp86
a(I1
I30
tp87
a(I1
I31
tp88
a(I1
I32
tp89
a(I1
I33
tp90
a(I1
I34
tp91
a(I1
I35
tp92
a(I1
I36
tp93
a(I1
I37
tp94
a(I1
I38
tp95
a(I1
I39
tp96
a(I1
I40
tp97
a(I1
I41
tp98
a(I1
I42
tp99
a(I1
I43
tp100
a(I1
I44
tp101
a(I1
I45
tp102
a(I1
I46
tp103
a(I1
I47
tp104
a(I1
I48
tp105
a(I1
I49
tp106
a(I1
I50
tp107
a(I1
I52
tp108
a(I1
I53
tp109
a(I1
I54
tp110
a(I1
I55
tp111
a(I1
I57
tp112
a(I1
I58
tp113
a(I1
I59
tp114
a(I3
I4
tp115
a(I3
I5
tp116
a(I3
I6
tp117
a(I3
I8
tp118
a(I3
I9
tp119
a(I3
I10
tp120
a(I3
I11
tp121
a(I3
I12
tp122
a(I3
I13
tp123
a(I3
I14
tp124
a(I3
I15
tp125
a(I3
I16
tp126
a(I3
I17
tp127
a(I3
I18
tp128
a(I3
I19
tp129
a(I3
I20
tp130
a(I3
I21
tp131
a(I3
I22
tp132
a(I3
I23
tp133
a(I3
I24
tp134
a(I3
I25
tp135
a(I3
I26
tp136
a(I3
I27
tp137
a(I3
I28
tp138
a(I3
I29
tp139
a(I3
I30
tp140
a(I3
I31
tp141
a(I3
I32
tp142
a(I3
I33
tp143
a(I3
I34
tp144
a(I3
I35
tp145
a(I3
I36
tp146
a(I3
I37
tp147
a(I3
I38
tp148
a(I3
I39
tp149
a(I3
I40
tp150
a(I3
I41
tp151
a(I3
I42
tp152
a(I3
I43
tp153
a(I3
I44
tp154
a(I3
I45
tp155
a(I3
I46
tp156
a(I3
I47
tp157
a(I3
I48
tp158
a(I3
I49
tp159
a(I3
I50
tp160
a(I3
I52
tp161
a(I3
I53
tp162
a(I3
I54
tp163
a(I3
I55
tp164
a(I3
I57
tp165
a(I3
I58
tp166
a(I3
I59
tp167
a(I4
I5
tp168
a(I4
I6
tp169
a(I4
I8
tp170
a(I4
I9
tp171
a(I4
I10
tp172
a(I4
I11
tp173
a(I4
I12
tp174
a(I4
I13
tp175
a(I4
I14
tp176
a(I4
I15
tp177
a(I4
I16
tp178
a(I4
I17
tp179
a(I4
I18
tp180
a(I4
I19
tp181
a(I4
I20
tp182
a(I4
I21
tp183
a(I4
I22
tp184
a(I4
I23
tp185
a(I4
I24
tp186
a(I4
I25
tp187
a(I4
I26
tp188
a(I4
I27
tp189
a(I4
I28
tp190
a(I4
I29
tp191
a(I4
I30
tp192
a(I4
I31
tp193
a(I4
I32
tp194
a(I4
I33
tp195
a(I4
I34
tp196
a(I4
I35
tp197
a(I4
I36
tp198
a(I4
I37
tp199
a(I4
I38
tp200
a(I4
I39
tp201
a(I4
I40
tp202
a(I4
I41
tp203
a(I4
I42
tp204
a(I4
I43
tp205
a(I4
I44
tp206
a(I4
I45
tp207
a(I4
I46
tp208
a(I4
I47
tp209
a(I4
I48
tp210
a(I4
I49
tp211
a(I4
I50
tp212
a(I4
I52
tp213
a(I4
I53
tp214
a(I4
I54
tp215
a(I4
I55
tp216
a(I4
I57
tp217
a(I4
I58
tp218
a(I4
I59
tp219
a(I5
I6
tp220
a(I5
I8
tp221
a(I5
I9
tp222
a(I5
I10
tp223
a(I5
I11
tp224
a(I5
I12
tp225
a(I5
I13
tp226
a(I5
I14
tp227
a(I5
I15
tp228
a(I5
I16
tp229
a(I5
I17
tp230
a(I5
I18
tp231
a(I5
I19
tp232
a(I5
I20
tp233
a(I5
I21
tp234
a(I5
I22
tp235
a(I5
I23
tp236
a(I5
I24
tp237
a(I5
I25
tp238
a(I5
I26
tp239
a(I5
I27
tp240
a(I5
I28
tp241
a(I5
I29
tp242
a(I5
I30
tp243
a(I5
I31
tp244
a(I5
I32
tp245
a(I5
I33
tp246
a(I5
I34
tp247
a(I5
I35
tp248
a(I5
I36
tp249
a(I5
I37
tp250
a(I5
I38
tp251
a(I5
I39
tp252
a(I5
I40
tp253
a(I5
I41
tp254
a(I5
I42
tp255
a(I5
I43
tp256
a(I5
I44
tp257
a(I5
I45
tp258
a(I5
I46
tp259
a(I5
I47
tp260
a(I5
I48
tp261
a(I5
I49
tp262
a(I5
I50
tp263
a(I5
I52
tp264
a(I5
I53
tp265
a(I5
I54
tp266
a(I5
I55
tp267
a(I5
I57
tp268
a(I5
I58
tp269
a(I5
I59
tp270
a(I6
I8
tp271
a(I6
I9
tp272
a(I6
I10
tp273
a(I6
I11
tp274
a(I6
I12
tp275
a(I6
I13
tp276
a(I6
I14
tp277
a(I6
I15
tp278
a(I6
I16
tp279
a(I6
I17
tp280
a(I6
I18
tp281
a(I6
I19
tp282
a(I6
I20
tp283
a(I6
I21
tp284
a(I6
I22
tp285
a(I6
I23
tp286
a(I6
I24
tp287
a(I6
I25
tp288
a(I6
I26
tp289
a(I6
I27
tp290
a(I6
I28
tp291
a(I6
I29
tp292
a(I6
I30
tp293
a(I6
I31
tp294
a(I6
I32
tp295
a(I6
I33
tp296
a(I6
I34
tp297
a(I6
I35
tp298
a(I6
I36
tp299
a(I6
I37
tp300
a(I6
I38
tp301
a(I6
I39
tp302
a(I6
I40
tp303
a(I6
I41
tp304
a(I6
I42
tp305
a(I6
I43
tp306
a(I6
I44
tp307
a(I6
I45
tp308
a(I6
I46
tp309
a(I6
I47
tp310
a(I6
I48
tp311
a(I6
I49
tp312
a(I6
I50
tp313
a(I6
I52
tp314
a(I6
I53
tp315
a(I6
I54
tp316
a(I6
I55
tp317
a(I6
I57
tp318
a(I6
I58
tp319
a(I6
I59
tp320
a(I8
I9
tp321
a(I8
I10
tp322
a(I8
I11
tp323
a(I8
I12
tp324
a(I8
I13
tp325
a(I8
I14
tp326
a(I8
I15
tp327
a(I8
I16
tp328
a(I8
I17
tp329
a(I8
I18
tp330
a(I8
I19
tp331
a(I8
I20
tp332
a(I8
I21
tp333
a(I8
I22
tp334
a(I8
I23
tp335
a(I8
I24
tp336
a(I8
I25
tp337
a(I8
I26
tp338
a(I8
I27
tp339
a(I8
I28
tp340
a(I8
I29
tp341
a(I8
I30
tp342
a(I8
I31
tp343
a(I8
I32
tp344
a(I8
I33
tp345
a(I8
I34
tp346
a(I8
I35
tp347
a(I8
I36
tp348
a(I8
I37
tp349
a(I8
I38
tp350
a(I8
I39
tp351
a(I8
I40
tp352
a(I8
I41
tp353
a(I8
I42
tp354
a(I8
I43
tp355
a(I8
I44
tp356
a(I8
I45
tp357
a(I8
I46
tp358
a(I8
I47
tp359
a(I8
I48
tp360
a(I8
I49
tp361
a(I8
I50
tp362
a(I8
I52
tp363
a(I8
I53
tp364
a(I8
I54
tp365
a(I8
I55
tp366
a(I8
I57
tp367
a(I8
I58
tp368
a(I8
I59
tp369
a(I9
I10
tp370
a(I9
I11
tp371
a(I9
I12
tp372
a(I9
I13
tp373
a(I9
I14
tp374
a(I9
I15
tp375
a(I9
I16
tp376
a(I9
I17
tp377
a(I9
I18
tp378
a(I9
I19
tp379
a(I9
I20
tp380
a(I9
I21
tp381
a(I9
I22
tp382
a(I9
I23
tp383
a(I9
I24
tp384
a(I9
I25
tp385
a(I9
I26
tp386
a(I9
I27
tp387
a(I9
I28
tp388
a(I9
I29
tp389
a(I9
I30
tp390
a(I9
I31
tp391
a(I9
I32
tp392
a(I9
I33
tp393
a(I9
I34
tp394
a(I9
I35
tp395
a(I9
I36
tp396
a(I9
I37
tp397
a(I9
I38
tp398
a(I9
I39
tp399
a(I9
I40
tp400
a(I9
I41
tp401
a(I9
I42
tp402
a(I9
I43
tp403
a(I9
I44
tp404
a(I9
I45
tp405
a(I9
I46
tp406
a(I9
I47
tp407
a(I9
I48
tp408
a(I9
I49
tp409
a(I9
I50
tp410
a(I9
I52
tp411
a(I9
I53
tp412
a(I9
I54
tp413
a(I9
I55
tp414
a(I9
I57
tp415
a(I9
I58
tp416
a(I9
I59
tp417
a(I10
I11
tp418
a(I10
I12
tp419
a(I10
I13
tp420
a(I10
I14
tp421
a(I10
I15
tp422
a(I10
I16
tp423
a(I10
I17
tp424
a(I10
I18
tp425
a(I10
I19
tp426
a(I10
I20
tp427
a(I10
I21
tp428
a(I10
I22
tp429
a(I10
I23
tp430
a(I10
I24
tp431
a(I10
I25
tp432
a(I10
I26
tp433
a(I10
I27
tp434
a(I10
I28
tp435
a(I10
I29
tp436
a(I10
I30
tp437
a(I10
I31
tp438
a(I10
I32
tp439
a(I10
I33
tp440
a(I10
I34
tp441
a(I10
I35
tp442
a(I10
I36
tp443
a(I10
I37
tp444
a(I10
I38
tp445
a(I10
I39
tp446
a(I10
I40
tp447
a(I10
I41
tp448
a(I10
I42
tp449
a(I10
I43
tp450
a(I10
I44
tp451
a(I10
I45
tp452
a(I10
I46
tp453
a(I10
I47
tp454
a(I10
I48
tp455
a(I10
I49
tp456
a(I10
I50
tp457
a(I10
I52
tp458
a(I10
I53
tp459
a(I10
I54
tp460
a(I10
I55
tp461
a(I10
I57
tp462
a(I10
I58
tp463
a(I10
I59
tp464
a(I11
I12
tp465
a(I11
I13
tp466
a(I11
I14
tp467
a(I11
I15
tp468
a(I11
I16
tp469
a(I11
I17
tp470
a(I11
I18
tp471
a(I11
I19
tp472
a(I11
I20
tp473
a(I11
I21
tp474
a(I11
I22
tp475
a(I11
I23
tp476
a(I11
I24
tp477
a(I11
I25
tp478
a(I11
I26
tp479
a(I11
I27
tp480
a(I11
I28
tp481
a(I11
I29
tp482
a(I11
I30
tp483
a(I11
I31
tp484
a(I11
I32
tp485
a(I11
I33
tp486
a(I11
I34
tp487
a(I11
I35
tp488
a(I11
I36
tp489
a(I11
I37
tp490
a(I11
I38
tp491
a(I11
I39
tp492
a(I11
I40
tp493
a(I11
I41
tp494
a(I11
I42
tp495
a(I11
I43
tp496
a(I11
I44
tp497
a(I11
I45
tp498
a(I11
I46
tp499
a(I11
I47
tp500
a(I11
I48
tp501
a(I11
I49
tp502
a(I11
I50
tp503
a(I11
I52
tp504
a(I11
I53
tp505
a(I11
I54
tp506
a(I11
I55
tp507
a(I11
I57
tp508
a(I11
I58
tp509
a(I11
I59
tp510
a(I12
I13
tp511
a(I12
I14
tp512
a(I12
I15
tp513
a(I12
I16
tp514
a(I12
I17
tp515
a(I12
I18
tp516
a(I12
I19
tp517
a(I12
I20
tp518
a(I12
I21
tp519
a(I12
I22
tp520
a(I12
I23
tp521
a(I12
I24
tp522
a(I12
I25
tp523
a(I12
I26
tp524
a(I12
I27
tp525
a(I12
I28
tp526
a(I12
I29
tp527
a(I12
I30
tp528
a(I12
I31
tp529
a(I12
I32
tp530
a(I12
I33
tp531
a(I12
I34
tp532
a(I12
I35
tp533
a(I12
I36
tp534
a(I12
I37
tp535
a(I12
I38
tp536
a(I12
I39
tp537
a(I12
I40
tp538
a(I12
I41
tp539
a(I12
I42
tp540
a(I12
I43
tp541
a(I12
I44
tp542
a(I12
I45
tp543
a(I12
I46
tp544
a(I12
I47
tp545
a(I12
I48
tp546
a(I12
I49
tp547
a(I12
I50
tp548
a(I12
I52
tp549
a(I12
I53
tp550
a(I12
I54
tp551
a(I12
I55
tp552
a(I12
I57
tp553
a(I12
I58
tp554
a(I12
I59
tp555
a(I13
I14
tp556
a(I13
I15
tp557
a(I13
I16
tp558
a(I13
I17
tp559
a(I13
I18
tp560
a(I13
I19
tp561
a(I13
I20
tp562
a(I13
I21
tp563
a(I13
I22
tp564
a(I13
I23
tp565
a(I13
I24
tp566
a(I13
I25
tp567
a(I13
I26
tp568
a(I13
I27
tp569
a(I13
I28
tp570
a(I13
I29
tp571
a(I13
I30
tp572
a(I13
I31
tp573
a(I13
I32
tp574
a(I13
I33
tp575
a(I13
I34
tp576
a(I13
I35
tp577
a(I13
I36
tp578
a(I13
I37
tp579
a(I13
I38
tp580
a(I13
I39
tp581
a(I13
I40
tp582
a(I13
I41
tp583
a(I13
I42
tp584
a(I13
I43
tp585
a(I13
I44
tp586
a(I13
I45
tp587
a(I13
I46
tp588
a(I13
I47
tp589
a(I13
I48
tp590
a(I13
I49
tp591
a(I13
I50
tp592
a(I13
I52
tp593
a(I13
I53
tp594
a(I13
I54
tp595
a(I13
I55
tp596
a(I13
I57
tp597
a(I13
I58
tp598
a(I13
I59
tp599
a(I14
I15
tp600
a(I14
I16
tp601
a(I14
I17
tp602
a(I14
I18
tp603
a(I14
I19
tp604
a(I14
I20
tp605
a(I14
I21
tp606
a(I14
I22
tp607
a(I14
I23
tp608
a(I14
I24
tp609
a(I14
I25
tp610
a(I14
I26
tp611
a(I14
I27
tp612
a(I14
I28
tp613
a(I14
I29
tp614
a(I14
I30
tp615
a(I14
I31
tp616
a(I14
I32
tp617
a(I14
I33
tp618
a(I14
I34
tp619
a(I14
I35
tp620
a(I14
I36
tp621
a(I14
I37
tp622
a(I14
I38
tp623
a(I14
I39
tp624
a(I14
I40
tp625
a(I14
I41
tp626
a(I14
I42
tp627
a(I14
I43
tp628
a(I14
I44
tp629
a(I14
I45
tp630
a(I14
I46
tp631
a(I14
I47
tp632
a(I14
I48
tp633
a(I14
I49
tp634
a(I14
I50
tp635
a(I14
I52
tp636
a(I14
I53
tp637
a(I14
I54
tp638
a(I14
I55
tp639
a(I14
I57
tp640
a(I14
I58
tp641
a(I14
I59
tp642
a(I15
I16
tp643
a(I15
I17
tp644
a(I15
I18
tp645
a(I15
I19
tp646
a(I15
I20
tp647
a(I15
I21
tp648
a(I15
I22
tp649
a(I15
I23
tp650
a(I15
I24
tp651
a(I15
I25
tp652
a(I15
I26
tp653
a(I15
I27
tp654
a(I15
I28
tp655
a(I15
I29
tp656
a(I15
I30
tp657
a(I15
I31
tp658
a(I15
I32
tp659
a(I15
I33
tp660
a(I15
I34
tp661
a(I15
I35
tp662
a(I15
I36
tp663
a(I15
I37
tp664
a(I15
I38
tp665
a(I15
I39
tp666
a(I15
I40
tp667
a(I15
I41
tp668
a(I15
I42
tp669
a(I15
I43
tp670
a(I15
I44
tp671
a(I15
I45
tp672
a(I15
I46
tp673
a(I15
I47
tp674
a(I15
I48
tp675
a(I15
I49
tp676
a(I15
I50
tp677
a(I15
I52
tp678
a(I15
I53
tp679
a(I15
I54
tp680
a(I15
I55
tp681
a(I15
I57
tp682
a(I15
I58
tp683
a(I15
I59
tp684
a(I16
I17
tp685
a(I16
I18
tp686
a(I16
I19
tp687
a(I16
I20
tp688
a(I16
I21
tp689
a(I16
I22
tp690
a(I16
I23
tp691
a(I16
I24
tp692
a(I16
I25
tp693
a(I16
I26
tp694
a(I16
I27
tp695
a(I16
I28
tp696
a(I16
I29
tp697
a(I16
I30
tp698
a(I16
I31
tp699
a(I16
I32
tp700
a(I16
I33
tp701
a(I16
I34
tp702
a(I16
I35
tp703
a(I16
I36
tp704
a(I16
I37
tp705
a(I16
I38
tp706
a(I16
I39
tp707
a(I16
I40
tp708
a(I16
I41
tp709
a(I16
I42
tp710
a(I16
I43
tp711
a(I16
I44
tp712
a(I16
I45
tp713
a(I16
I46
tp714
a(I16
I47
tp715
a(I16
I48
tp716
a(I16
I49
tp717
a(I16
I50
tp718
a(I16
I52
tp719
a(I16
I53
tp720
a(I16
I54
tp721
a(I16
I55
tp722
a(I16
I57
tp723
a(I16
I58
tp724
a(I16
I59
tp725
a(I17
I18
tp726
a(I17
I19
tp727
a(I17
I20
tp728
a(I17
I21
tp729
a(I17
I22
tp730
a(I17
I23
tp731
a(I17
I24
tp732
a(I17
I25
tp733
a(I17
I26
tp734
a(I17
I27
tp735
a(I17
I28
tp736
a(I17
I29
tp737
a(I17
I30
tp738
a(I17
I31
tp739
a(I17
I32
tp740
a(I17
I33
tp741
a(I17
I34
tp742
a(I17
I35
tp743
a(I17
I36
tp744
a(I17
I37
tp745
a(I17
I38
tp746
a(I17
I39
tp747
a(I17
I40
tp748
a(I17
I41
tp749
a(I17
I42
tp750
a(I17
I43
tp751
a(I17
I44
tp752
a(I17
I45
tp753
a(I17
I46
tp754
a(I17
I47
tp755
a(I17
I48
tp756
a(I17
I49
tp757
a(I17
I50
tp758
a(I17
I52
tp759
a(I17
I53
tp760
a(I17
I54
tp761
a(I17
I55
tp762
a(I17
I57
tp763
a(I17
I58
tp764
a(I17
I59
tp765
a(I18
I19
tp766
a(I18
I20
tp767
a(I18
I21
tp768
a(I18
I22
tp769
a(I18
I23
tp770
a(I18
I24
tp771
a(I18
I25
tp772
a(I18
I26
tp773
a(I18
I27
tp774
a(I18
I28
tp775
a(I18
I29
tp776
a(I18
I30
tp777
a(I18
I31
tp778
a(I18
I32
tp779
a(I18
I33
tp780
a(I18
I34
tp781
a(I18
I35
tp782
a(I18
I36
tp783
a(I18
I37
tp784
a(I18
I38
tp785
a(I18
I39
tp786
a(I18
I40
tp787
a(I18
I41
tp788
a(I18
I42
tp789
a(I18
I43
tp790
a(I18
I44
tp791
a(I18
I45
tp792
a(I18
I46
tp793
a(I18
I47
tp794
a(I18
I48
tp795
a(I18
I49
tp796
a(I18
I50
tp797
a(I18
I52
tp798
a(I18
I53
tp799
a(I18
I54
tp800
a(I18
I55
tp801
a(I18
I57
tp802
a(I18
I58
tp803
a(I18
I59
tp804
a(I19
I20
tp805
a(I19
I21
tp806
a(I19
I22
tp807
a(I19
I23
tp808
a(I19
I24
tp809
a(I19
I25
tp810
a(I19
I26
tp811
a(I19
I27
tp812
a(I19
I28
tp813
a(I19
I29
tp814
a(I19
I30
tp815
a(I19
I31
tp816
a(I19
I32
tp817
a(I19
I33
tp818
a(I19
I34
tp819
a(I19
I35
tp820
a(I19
I36
tp821
a(I19
I37
tp822
a(I19
I38
tp823
a(I19
I39
tp824
a(I19
I40
tp825
a(I19
I41
tp826
a(I19
I42
tp827
a(I19
I43
tp828
a(I19
I44
tp829
a(I19
I45
tp830
a(I19
I46
tp831
a(I19
I47
tp832
a(I19
I48
tp833
a(I19
I49
tp834
a(I19
I50
tp835
a(I19
I52
tp836
a(I19
I53
tp837
a(I19
I54
tp838
a(I19
I55
tp839
a(I19
I57
tp840
a(I19
I58
tp841
a(I19
I59
tp842
a(I20
I21
tp843
a(I20
I22
tp844
a(I20
I23
tp845
a(I20
I24
tp846
a(I20
I25
tp847
a(I20
I26
tp848
a(I20
I27
tp849
a(I20
I28
tp850
a(I20
I29
tp851
a(I20
I30
tp852
a(I20
I31
tp853
a(I20
I32
tp854
a(I20
I33
tp855
a(I20
I34
tp856
a(I20
I35
tp857
a(I20
I36
tp858
a(I20
I37
tp859
a(I20
I38
tp860
a(I20
I39
tp861
a(I20
I40
tp862
a(I20
I41
tp863
a(I20
I42
tp864
a(I20
I43
tp865
a(I20
I44
tp866
a(I20
I45
tp867
a(I20
I46
tp868
a(I20
I47
tp869
a(I20
I48
tp870
a(I20
I49
tp871
a(I20
I50
tp872
a(I20
I52
tp873
a(I20
I53
tp874
a(I20
I54
tp875
a(I20
I55
tp876
a(I20
I57
tp877
a(I20
I58
tp878
a(I20
I59
tp879
a(I21
I22
tp880
a(I21
I23
tp881
a(I21
I24
tp882
a(I21
I25
tp883
a(I21
I26
tp884
a(I21
I27
tp885
a(I21
I28
tp886
a(I21
I29
tp887
a(I21
I30
tp888
a(I21
I31
tp889
a(I21
I32
tp890
a(I21
I33
tp891
a(I21
I34
tp892
a(I21
I35
tp893
a(I21
I36
tp894
a(I21
I37
tp895
a(I21
I38
tp896
a(I21
I39
tp897
a(I21
I40
tp898
a(I21
I41
tp899
a(I21
I42
tp900
a(I21
I43
tp901
a(I21
I44
tp902
a(I21
I45
tp903
a(I21
I46
tp904
a(I21
I47
tp905
a(I21
I48
tp906
a(I21
I49
tp907
a(I21
I50
tp908
a(I21
I52
tp909
a(I21
I53
tp910
a(I21
I54
tp911
a(I21
I55
tp912
a(I21
I57
tp913
a(I21
I58
tp914
a(I21
I59
tp915
a(I22
I23
tp916
a(I22
I24
tp917
a(I22
I25
tp918
a(I22
I26
tp919
a(I22
I27
tp920
a(I22
I28
tp921
a(I22
I29
tp922
a(I22
I30
tp923
a(I22
I31
tp924
a(I22
I32
tp925
a(I22
I33
tp926
a(I22
I34
tp927
a(I22
I35
tp928
a(I22
I36
tp929
a(I22
I37
tp930
a(I22
I38
tp931
a(I22
I39
tp932
a(I22
I40
tp933
a(I22
I41
tp934
a(I22
I42
tp935
a(I22
I43
tp936
a(I22
I44
tp937
a(I22
I45
tp938
a(I22
I46
tp939
a(I22
I47
tp940
a(I22
I48
tp941
a(I22
I49
tp942
a(I22
I50
tp943
a(I22
I52
tp944
a(I22
I53
tp945
a(I22
I54
tp946
a(I22
I55
tp947
a(I22
I57
tp948
a(I22
I58
tp949
a(I22
I59
tp950
a(I23
I24
tp951
a(I23
I25
tp952
a(I23
I26
tp953
a(I23
I27
tp954
a(I23
I28
tp955
a(I23
I29
tp956
a(I23
I30
tp957
a(I23
I31
tp958
a(I23
I32
tp959
a(I23
I33
tp960
a(I23
I34
tp961
a(I23
I35
tp962
a(I23
I36
tp963
a(I23
I37
tp964
a(I23
I38
tp965
a(I23
I39
tp966
a(I23
I40
tp967
a(I23
I41
tp968
a(I23
I42
tp969
a(I23
I43
tp970
a(I23
I44
tp971
a(I23
I45
tp972
a(I23
I46
tp973
a(I23
I47
tp974
a(I23
I48
tp975
a(I23
I49
tp976
a(I23
I50
tp977
a(I23
I52
tp978
a(I23
I53
tp979
a(I23
I54
tp980
a(I23
I55
tp981
a(I23
I57
tp982
a(I23
I58
tp983
a(I23
I59
tp984
a(I24
I25
tp985
a(I24
I26
tp986
a(I24
I27
tp987
a(I24
I28
tp988
a(I24
I29
tp989
a(I24
I30
tp990
a(I24
I31
tp991
a(I24
I32
tp992
a(I24
I33
tp993
a(I24
I34
tp994
a(I24
I35
tp995
a(I24
I36
tp996
a(I24
I37
tp997
a(I24
I38
tp998
a(I24
I39
tp999
a(I24
I40
tp1000
a(I24
I41
tp1001
a(I24
I42
tp1002
a(I24
I43
tp1003
a(I24
I44
tp1004
a(I24
I45
tp1005
a(I24
I46
tp1006
a(I24
I47
tp1007
a(I24
I48
tp1008
a(I24
I49
tp1009
a(I24
I50
tp1010
a(I24
I52
tp1011
a(I24
I53
tp1012
a(I24
I54
tp1013
a(I24
I55
tp1014
a(I24
I57
tp1015
a(I24
I58
tp1016
a(I24
I59
tp1017
a(I25
I26
tp1018
a(I25
I27
tp1019
a(I25
I28
tp1020
a(I25
I29
tp1021
a(I25
I30
tp1022
a(I25
I31
tp1023
a(I25
I32
tp1024
a(I25
I33
tp1025
a(I25
I34
tp1026
a(I25
I35
tp1027
a(I25
I36
tp1028
a(I25
I37
tp1029
a(I25
I38
tp1030
a(I25
I39
tp1031
a(I25
I40
tp1032
a(I25
I41
tp1033
a(I25
I42
tp1034
a(I25
I43
tp1035
a(I25
I44
tp1036
a(I25
I45
tp1037
a(I25
I46
tp1038
a(I25
I47
tp1039
a(I25
I48
tp1040
a(I25
I49
tp1041
a(I25
I50
tp1042
a(I25
I52
tp1043
a(I25
I53
tp1044
a(I25
I54
tp1045
a(I25
I55
tp1046
a(I25
I57
tp1047
a(I25
I58
tp1048
a(I25
I59
tp1049
a(I26
I27
tp1050
a(I26
I28
tp1051
a(I26
I29
tp1052
a(I26
I30
tp1053
a(I26
I31
tp1054
a(I26
I32
tp1055
a(I26
I33
tp1056
a(I26
I34
tp1057
a(I26
I35
tp1058
a(I26
I36
tp1059
a(I26
I37
tp1060
a(I26
I38
tp1061
a(I26
I39
tp1062
a(I26
I40
tp1063
a(I26
I41
tp1064
a(I26
I42
tp1065
a(I26
I43
tp1066
a(I26
I44
tp1067
a(I26
I45
tp1068
a(I26
I46
tp1069
a(I26
I47
tp1070
a(I26
I48
tp1071
a(I26
I49
tp1072
a(I26
I50
tp1073
a(I26
I52
tp1074
a(I26
I53
tp1075
a(I26
I54
tp1076
a(I26
I55
tp1077
a(I26
I57
tp1078
a(I26
I58
tp1079
a(I26
I59
tp1080
a(I27
I28
tp1081
a(I27
I29
tp1082
a(I27
I30
tp1083
a(I27
I31
tp1084
a(I27
I32
tp1085
a(I27
I33
tp1086
a(I27
I34
tp1087
a(I27
I35
tp1088
a(I27
I36
tp1089
a(I27
I37
tp1090
a(I27
I38
tp1091
a(I27
I39
tp1092
a(I27
I40
tp1093
a(I27
I41
tp1094
a(I27
I42
tp1095
a(I27
I43
tp1096
a(I27
I44
tp1097
a(I27
I45
tp1098
a(I27
I46
tp1099
a(I27
I47
tp1100
a(I27
I48
tp1101
a(I27
I49
tp1102
a(I27
I50
tp1103
a(I27
I52
tp1104
a(I27
I53
tp1105
a(I27
I54
tp1106
a(I27
I55
tp1107
a(I27
I57
tp1108
a(I27
I58
tp1109
a(I27
I59
tp1110
a(I28
I29
tp1111
a(I28
I30
tp1112
a(I28
I31
tp1113
a(I28
I32
tp1114
a(I28
I33
tp1115
a(I28
I34
tp1116
a(I28
I35
tp1117
a(I28
I36
tp1118
a(I28
I37
tp1119
a(I28
I38
tp1120
a(I28
I39
tp1121
a(I28
I40
tp1122
a(I28
I41
tp1123
a(I28
I42
tp1124
a(I28
I43
tp1125
a(I28
I44
tp1126
a(I28
I45
tp1127
a(I28
I46
tp1128
a(I28
I47
tp1129
a(I28
I48
tp1130
a(I28
I49
tp1131
a(I28
I50
tp1132
a(I28
I52
tp1133
a(I28
I53
tp1134
a(I28
I54
tp1135
a(I28
I55
tp1136
a(I28
I57
tp1137
a(I28
I58
tp1138
a(I28
I59
tp1139
a(I29
I30
tp1140
a(I29
I31
tp1141
a(I29
I32
tp1142
a(I29
I33
tp1143
a(I29
I34
tp1144
a(I29
I35
tp1145
a(I29
I36
tp1146
a(I29
I37
tp1147
a(I29
I38
tp1148
a(I29
I39
tp1149
a(I29
I40
tp1150
a(I29
I41
tp1151
a(I29
I42
tp1152
a(I29
I43
tp1153
a(I29
I44
tp1154
a(I29
I45
tp1155
a(I29
I46
tp1156
a(I29
I47
tp1157
a(I29
I48
tp1158
a(I29
I49
tp1159
a(I29
I50
tp1160
a(I29
I52
tp1161
a(I29
I53
tp1162
a(I29
I54
tp1163
a(I29
I55
tp1164
a(I29
I57
tp1165
a(I29
I58
tp1166
a(I29
I59
tp1167
a(I30
I31
tp1168
a(I30
I32
tp1169
a(I30
I33
tp1170
a(I30
I34
tp1171
a(I30
I35
tp1172
a(I30
I36
tp1173
a(I30
I37
tp1174
a(I30
I38
tp1175
a(I30
I39
tp1176
a(I30
I40
tp1177
a(I30
I41
tp1178
a(I30
I42
tp1179
a(I30
I43
tp1180
a(I30
I44
tp1181
a(I30
I45
tp1182
a(I30
I46
tp1183
a(I30
I47
tp1184
a(I30
I48
tp1185
a(I30
I49
tp1186
a(I30
I50
tp1187
a(I30
I52
tp1188
a(I30
I53
tp1189
a(I30
I54
tp1190
a(I30
I55
tp1191
a(I30
I57
tp1192
a(I30
I58
tp1193
a(I30
I59
tp1194
a(I31
I32
tp1195
a(I31
I33
tp1196
a(I31
I34
tp1197
a(I31
I35
tp1198
a(I31
I36
tp1199
a(I31
I37
tp1200
a(I31
I38
tp1201
a(I31
I39
tp1202
a(I31
I40
tp1203
a(I31
I41
tp1204
a(I31
I42
tp1205
a(I31
I43
tp1206
a(I31
I44
tp1207
a(I31
I45
tp1208
a(I31
I46
tp1209
a(I31
I47
tp1210
a(I31
I48
tp1211
a(I31
I49
tp1212
a(I31
I50
tp1213
a(I31
I52
tp1214
a(I31
I53
tp1215
a(I31
I54
tp1216
a(I31
I55
tp1217
a(I31
I57
tp1218
a(I31
I58
tp1219
a(I31
I59
tp1220
a(I32
I33
tp1221
a(I32
I34
tp1222
a(I32
I35
tp1223
a(I32
I36
tp1224
a(I32
I37
tp1225
a(I32
I38
tp1226
a(I32
I39
tp1227
a(I32
I40
tp1228
a(I32
I41
tp1229
a(I32
I42
tp1230
a(I32
I43
tp1231
a(I32
I44
tp1232
a(I32
I45
tp1233
a(I32
I46
tp1234
a(I32
I47
tp1235
a(I32
I48
tp1236
a(I32
I49
tp1237
a(I32
I50
tp1238
a(I32
I52
tp1239
a(I32
I53
tp1240
a(I32
I54
tp1241
a(I32
I55
tp1242
a(I32
I57
tp1243
a(I32
I58
tp1244
a(I32
I59
tp1245
a(I33
I34
tp1246
a(I33
I35
tp1247
a(I33
I36
tp1248
a(I33
I37
tp1249
a(I33
I38
tp1250
a(I33
I39
tp1251
a(I33
I40
tp1252
a(I33
I41
tp1253
a(I33
I42
tp1254
a(I33
I43
tp1255
a(I33
I44
tp1256
a(I33
I45
tp1257
a(I33
I46
tp1258
a(I33
I47
tp1259
a(I33
I48
tp1260
a(I33
I49
tp1261
a(I33
I50
tp1262
a(I33
I52
tp1263
a(I33
I53
tp1264
a(I33
I54
tp1265
a(I33
I55
tp1266
a(I33
I57
tp1267
a(I33
I58
tp1268
a(I33
I59
tp1269
a(I34
I35
tp1270
a(I34
I36
tp1271
a(I34
I37
tp1272
a(I34
I38
tp1273
a(I34
I39
tp1274
a(I34
I40
tp1275
a(I34
I41
tp1276
a(I34
I42
tp1277
a(I34
I43
tp1278
a(I34
I44
tp1279
a(I34
I45
tp1280
a(I34
I46
tp1281
a(I34
I47
tp1282
a(I34
I48
tp1283
a(I34
I49
tp1284
a(I34
I50
tp1285
a(I34
I52
tp1286
a(I34
I53
tp1287
a(I34
I54
tp1288
a(I34
I55
tp1289
a(I34
I57
tp1290
a(I34
I58
tp1291
a(I34
I59
tp1292
a(I35
I36
tp1293
a(I35
I37
tp1294
a(I35
I38
tp1295
a(I35
I39
tp1296
a(I35
I40
tp1297
a(I35
I41
tp1298
a(I35
I42
tp1299
a(I35
I43
tp1300
a(I35
I44
tp1301
a(I35
I45
tp1302
a(I35
I46
tp1303
a(I35
I47
tp1304
a(I35
I48
tp1305
a(I35
I49
tp1306
a(I35
I50
tp1307
a(I35
I52
tp1308
a(I35
I53
tp1309
a(I35
I54
tp1310
a(I35
I55
tp1311
a(I35
I57
tp1312
a(I35
I58
tp1313
a(I35
I59
tp1314
a(I36
I37
tp1315
a(I36
I38
tp1316
a(I36
I39
tp1317
a(I36
I40
tp1318
a(I36
I41
tp1319
a(I36
I42
tp1320
a(I36
I43
tp1321
a(I36
I44
tp1322
a(I36
I45
tp1323
a(I36
I46
tp1324
a(I36
I47
tp1325
a(I36
I48
tp1326
a(I36
I49
tp1327
a(I36
I50
tp1328
a(I36
I52
tp1329
a(I36
I53
tp1330
a(I36
I54
tp1331
a(I36
I55
tp1332
a(I36
I57
tp1333
a(I36
I58
tp1334
a(I36
I59
tp1335
a(I37
I38
tp1336
a(I37
I39
tp1337
a(I37
I40
tp1338
a(I37
I41
tp1339
a(I37
I42
tp1340
a(I37
I43
tp1341
a(I37
I44
tp1342
a(I37
I45
tp1343
a(I37
I46
tp1344
a(I37
I47
tp1345
a(I37
I48
tp1346
a(I37
I49
tp1347
a(I37
I50
tp1348
a(I37
I52
tp1349
a(I37
I53
tp1350
a(I37
I54
tp1351
a(I37
I55
tp1352
a(I37
I57
tp1353
a(I37
I58
tp1354
a(I37
I59
tp1355
a(I38
I39
tp1356
a(I38
I40
tp1357
a(I38
I41
tp1358
a(I38
I42
tp1359
a(I38
I43
tp1360
a(I38
I44
tp1361
a(I38
I45
tp1362
a(I38
I46
tp1363
a(I38
I47
tp1364
a(I38
I48
tp1365
a(I38
I49
tp1366
a(I38
I50
tp1367
a(I38
I52
tp1368
a(I38
I53
tp1369
a(I38
I54
tp1370
a(I38
I55
tp1371
a(I38
I57
tp1372
a(I38
I58
tp1373
a(I38
I59
tp1374
a(I39
I40
tp1375
a(I39
I41
tp1376
a(I39
I42
tp1377
a(I39
I43
tp1378
a(I39
I44
tp1379
a(I39
I45
tp1380
a(I39
I46
tp1381
a(I39
I47
tp1382
a(I39
I48
tp1383
a(I39
I49
tp1384
a(I39
I50
tp1385
a(I39
I52
tp1386
a(I39
I53
tp1387
a(I39
I54
tp1388
a(I39
I55
tp1389
a(I39
I57
tp1390
a(I39
I58
tp1391
a(I39
I59
tp1392
a(I40
I41
tp1393
a(I40
I42
tp1394
a(I40
I43
tp1395
a(I40
I44
tp1396
a(I40
I45
tp1397
a(I40
I46
tp1398
a(I40
I47
tp1399
a(I40
I48
tp1400
a(I40
I49
tp1401
a(I40
I50
tp1402
a(I40
I52
tp1403
a(I40
I53
tp1404
a(I40
I54
tp1405
a(I40
I55
tp1406
a(I40
I57
tp1407
a(I40
I58
tp1408
a(I40
I59
tp1409
a(I41
I42
tp1410
a(I41
I43
tp1411
a(I41
I44
tp1412
a(I41
I45
tp1413
a(I41
I46
tp1414
a(I41
I47
tp1415
a(I41
I48
tp1416
a(I41
I49
tp1417
a(I41
I50
tp1418
a(I41
I52
tp1419
a(I41
I53
tp1420
a(I41
I54
tp1421
a(I41
I55
tp1422
a(I41
I57
tp1423
a(I41
I58
tp1424
a(I41
I59
tp1425
a(I42
I43
tp1426
a(I42
I44
tp1427
a(I42
I45
tp1428
a(I42
I46
tp1429
a(I42
I47
tp1430
a(I42
I48
tp1431
a(I42
I49
tp1432
a(I42
I50
tp1433
a(I42
I52
tp1434
a(I42
I53
tp1435
a(I42
I54
tp1436
a(I42
I55
tp1437
a(I42
I57
tp1438
a(I42
I58
tp1439
a(I42
I59
tp1440
a(I43
I44
tp1441
a(I43
I45
tp1442
a(I43
I46
tp1443
a(I43
I47
tp1444
a(I43
I48
tp1445
a(I43
I49
tp1446
a(I43
I50
tp1447
a(I43
I52
tp1448
a(I43
I53
tp1449
a(I43
I54
tp1450
a(I43
I55
tp1451
a(I43
I57
tp1452
a(I43
I58
tp1453
a(I43
I59
tp1454
a(I44
I45
tp1455
a(I44
I46
tp1456
a(I44
I47
tp1457
a(I44
I48
tp1458
a(I44
I49
tp1459
a(I44
I50
tp1460
a(I44
I52
tp1461
a(I44
I53
tp1462
a(I44
I54
tp1463
a(I44
I55
tp1464
a(I44
I57
tp1465
a(I44
I58
tp1466
a(I44
I59
tp1467
a(I45
I46
tp1468
a(I45
I47
tp1469
a(I45
I48
tp1470
a(I45
I49
tp1471
a(I45
I50
tp1472
a(I45
I52
tp1473
a(I45
I53
tp1474
a(I45
I54
tp1475
a(I45
I55
tp1476
a(I45
I57
tp1477
a(I45
I58
tp1478
a(I45
I59
tp1479
a(I46
I47
tp1480
a(I46
I48
tp1481
a(I46
I49
tp1482
a(I46
I50
tp1483
a(I46
I52
tp1484
a(I46
I53
tp1485
a(I46
I54
tp1486
a(I46
I55
tp1487
a(I46
I57
tp1488
a(I46
I58
tp1489
a(I46
I59
tp1490
a(I47
I48
tp1491
a(I47
I49
tp1492
a(I47
I50
tp1493
a(I47
I52
tp1494
a(I47
I53
tp1495
a(I47
I54
tp1496
a(I47
I55
tp1497
a(I47
I57
tp1498
a(I47
I58
tp1499
a(I47
I59
tp1500
a(I48
I49
tp1501
a(I48
I50
tp1502
a(I48
I52
tp1503
a(I48
I53
tp1504
a(I48
I54
tp1505
a(I48
I55
tp1506
a(I48
I57
tp1507
a(I48
I58
tp1508
a(I48
I59
tp1509
a(I49
I50
tp1510
a(I49
I52
tp1511
a(I49
I53
tp1512
a(I49
I54
tp1513
a(I49
I55
tp1514
a(I49
I57
tp1515
a(I49
I58
tp1516
a(I49
I59
tp1517
a(I50
I52
tp1518
a(I50
I53
tp1519
a(I50
I54
tp1520
a(I50
I55
tp1521
a(I50
I57
tp1522
a(I50
I58
tp1523
a(I50
I59
tp1524
a(I52
I53
tp1525
a(I52
I54
tp1526
a(I52
I55
tp1527
a(I52
I57
tp1528
a(I52
I58
tp1529
a(I52
I59
tp1530
a(I53
I54
tp1531
a(I53
I55
tp1532
a(I53
I57
tp1533
a(I53
I58
tp1534
a(I53
I59
tp1535
a(I54
I55
tp1536
a(I54
I57
tp1537
a(I54
I58
tp1538
a(I54
I59
tp1539
a(I55
I57
tp1540
a(I55
I58
tp1541
a(I55
I59
tp1542
a(I57
I58
tp1543
a(I57
I59
tp1544
a(I58
I59
tp1545
asS'omit_one'
p1546
(dp1547
S'aligned'
p1548
(lp1549
((I4
I0
tp1550
(I4
I1
tp1551
tp1552
a(g1550
(I4
I2
tp1553
tp1554
a(g1550
(I4
I3
tp1555
tp1556
a((I4
I1
tp1557
(I4
I2
tp1558
tp1559
a(g1557
(I4
I3
tp1560
tp1561
a((I4
I2
tp1562
(I4
I3
tp1563
tp1564
a((I9
I0
tp1565
(I9
I1
tp1566
tp1567
a((I11
I0
tp1568
(I11
I1
tp1569
tp1570
a((I26
I2
tp1571
(I26
I3
tp1572
tp1573
a(g1571
(I26
I4
tp1574
tp1575
a(g1571
(I26
I5
tp1576
tp1577
a(g1571
(I26
I6
tp1578
tp1579
a(g1571
(I26
I7
tp1580
tp1581
a(g1571
(I26
I8
tp1582
tp1583
a(g1571
(I26
I9
tp1584
tp1585
a(g1571
(I26
I10
tp1586
tp1587
a(g1571
(I26
I11
tp1588
tp1589
a((I26
I5
tp1590
(I26
I6
tp1591
tp1592
a(g1590
(I26
I7
tp1593
tp1594
a(g1590
(I26
I8
tp1595
tp1596
a(g1590
(I26
I9
tp1597
tp1598
a(g1590
(I26
I10
tp1599
tp1600
a(g1590
(I26
I11
tp1601
tp1602
a((I26
I8
tp1603
(I26
I9
tp1604
tp1605
a(g1603
(I26
I10
tp1606
tp1607
a(g1603
(I26
I11
tp1608
tp1609
a((I35
I2
tp1610
(I35
I3
tp1611
tp1612
a(g1610
(I35
I4
tp1613
tp1614
a(g1610
(I35
I5
tp1615
tp1616
a(g1610
(I35
I6
tp1617
tp1618
a(g1610
(I35
I7
tp1619
tp1620
a(g1610
(I35
I8
tp1621
tp1622
a(g1610
(I35
I9
tp1623
tp1624
a(g1610
(I35
I10
tp1625
tp1626
a(g1610
(I35
I11
tp1627
tp1628
a((I35
I5
tp1629
(I35
I6
tp1630
tp1631
a(g1629
(I35
I7
tp1632
tp1633
a(g1629
(I35
I8
tp1634
tp1635
a(g1629
(I35
I9
tp1636
tp1637
a(g1629
(I35
I10
tp1638
tp1639
a(g1629
(I35
I11
tp1640
tp1641
a((I35
I8
tp1642
(I35
I9
tp1643
tp1644
a(g1642
(I35
I10
tp1645
tp1646
a(g1642
(I35
I11
tp1647
tp1648
a((I45
I0
tp1649
(I45
I1
tp1650
tp1651
a(g1649
(I45
I2
tp1652
tp1653
a(g1649
(I45
I3
tp1654
tp1655
a((I45
I1
tp1656
(I45
I2
tp1657
tp1658
a(g1656
(I45
I3
tp1659
tp1660
a((I45
I2
tp1661
(I45
I3
tp1662
tp1663
a((I46
I0
tp1664
(I46
I1
tp1665
tp1666
a(g1664
(I46
I2
tp1667
tp1668
a(g1664
(I46
I3
tp1669
tp1670
a((I46
I1
tp1671
(I46
I2
tp1672
tp1673
a(g1671
(I46
I3
tp1674
tp1675
a((I46
I2
tp1676
(I46
I3
tp1677
tp1678
a((I47
I0
tp1679
(I47
I1
tp1680
tp1681
a(g1679
(I47
I2
tp1682
tp1683
a(g1679
(I47
I3
tp1684
tp1685
a((I47
I1
tp1686
(I47
I2
tp1687
tp1688
a(g1686
(I47
I3
tp1689
tp1690
a((I47
I2
tp1691
(I47
I3
tp1692
tp1693
a((I48
I0
tp1694
(I48
I1
tp1695
tp1696
a(g1694
(I48
I2
tp1697
tp1698
a(g1694
(I48
I3
tp1699
tp1700
a((I48
I1
tp1701
(I48
I2
tp1702
tp1703
a(g1701
(I48
I3
tp1704
tp1705
a((I48
I2
tp1706
(I48
I3
tp1707
tp1708
a((I49
I0
tp1709
(I49
I1
tp1710
tp1711
a(g1709
(I49
I2
tp1712
tp1713
a((I49
I1
tp1714
(I49
I2
tp1715
tp1716
a((I53
I0
tp1717
(I53
I1
tp1718
tp1719
a(g1717
(I53
I2
tp1720
tp1721
a(g1717
(I53
I3
tp1722
tp1723
a((I53
I1
tp1724
(I53
I2
tp1725
tp1726
a(g1724
(I53
I3
tp1727
tp1728
a((I53
I2
tp1729
(I53
I3
tp1730
tp1731
a((I58
I0
tp1732
(I58
I1
tp1733
tp1734
a(g1732
(I58
I2
tp1735
tp1736
a(g1732
(I58
I3
tp1737
tp1738
a((I58
I1
tp1739
(I58
I2
tp1740
tp1741
a(g1739
(I58
I3
tp1742
tp1743
a((I58
I2
tp1744
(I58
I3
tp1745
tp1746
asS'three'
p1747
(lp1748
((I3
I2
tp1749
(I3
I3
tp1750
tp1751
a(g1749
(I3
I4
tp1752
tp1753
a(g1749
(I3
I5
tp1754
tp1755
a(g1749
(I3
I6
tp1756
tp1757
a(g1749
(I3
I7
tp1758
tp1759
a(g1749
(I3
I8
tp1760
tp1761
a((I3
I5
tp1762
(I3
I6
tp1763
tp1764
a(g1762
(I3
I7
tp1765
tp1766
a(g1762
(I3
I8
tp1767
tp1768
a((I4
I0
tp1769
(I4
I1
tp1770
tp1771
a(g1769
(I4
I2
tp1772
tp1773
a(g1769
(I4
I3
tp1774
tp1775
a(g1769
(I4
I4
tp1776
tp1777
a(g1769
(I4
I5
tp1778
tp1779
a((I4
I1
tp1780
(I4
I2
tp1781
tp1782
a(g1780
(I4
I3
tp1783
tp1784
a(g1780
(I4
I4
tp1785
tp1786
a(g1780
(I4
I5
tp1787
tp1788
a((I4
I2
tp1789
(I4
I3
tp1790
tp1791
a(g1789
(I4
I4
tp1792
tp1793
a(g1789
(I4
I5
tp1794
tp1795
a((I4
I3
tp1796
(I4
I4
tp1797
tp1798
a(g1796
(I4
I5
tp1799
tp1800
a((I4
I4
tp1801
(I4
I5
tp1802
tp1803
a((I8
I2
tp1804
(I8
I3
tp1805
tp1806
a(g1804
(I8
I4
tp1807
tp1808
a(g1804
(I8
I5
tp1809
tp1810
a(g1804
(I8
I6
tp1811
tp1812
a(g1804
(I8
I7
tp1813
tp1814
a(g1804
(I8
I8
tp1815
tp1816
a((I8
I5
tp1817
(I8
I6
tp1818
tp1819
a(g1817
(I8
I7
tp1820
tp1821
a(g1817
(I8
I8
tp1822
tp1823
a((I9
I0
tp1824
(I9
I1
tp1825
tp1826
a((I11
I0
tp1827
(I11
I1
tp1828
tp1829
a(g1827
(I11
I2
tp1830
tp1831
a(g1827
(I11
I3
tp1832
tp1833
a((I11
I1
tp1834
(I11
I2
tp1835
tp1836
a(g1834
(I11
I3
tp1837
tp1838
a((I11
I2
tp1839
(I11
I3
tp1840
tp1841
a((I13
I2
tp1842
(I13
I3
tp1843
tp1844
a(g1842
(I13
I4
tp1845
tp1846
a(g1842
(I13
I5
tp1847
tp1848
a(g1842
(I13
I6
tp1849
tp1850
a(g1842
(I13
I7
tp1851
tp1852
a(g1842
(I13
I8
tp1853
tp1854
a((I13
I5
tp1855
(I13
I6
tp1856
tp1857
a(g1855
(I13
I7
tp1858
tp1859
a(g1855
(I13
I8
tp1860
tp1861
a((I16
I2
tp1862
(I16
I3
tp1863
tp1864
a(g1862
(I16
I4
tp1865
tp1866
a(g1862
(I16
I5
tp1867
tp1868
a(g1862
(I16
I6
tp1869
tp1870
a(g1862
(I16
I7
tp1871
tp1872
a(g1862
(I16
I8
tp1873
tp1874
a((I16
I5
tp1875
(I16
I6
tp1876
tp1877
a(g1875
(I16
I7
tp1878
tp1879
a(g1875
(I16
I8
tp1880
tp1881
a((I18
I2
tp1882
(I18
I3
tp1883
tp1884
a(g1882
(I18
I4
tp1885
tp1886
a(g1882
(I18
I5
tp1887
tp1888
a(g1882
(I18
I6
tp1889
tp1890
a(g1882
(I18
I7
tp1891
tp1892
a(g1882
(I18
I8
tp1893
tp1894
a((I18
I5
tp1895
(I18
I6
tp1896
tp1897
a(g1895
(I18
I7
tp1898
tp1899
a(g1895
(I18
I8
tp1900
tp1901
a((I20
I2
tp1902
(I20
I3
tp1903
tp1904
a(g1902
(I20
I4
tp1905
tp1906
a(g1902
(I20
I5
tp1907
tp1908
a(g1902
(I20
I6
tp1909
tp1910
a(g1902
(I20
I7
tp1911
tp1912
a(g1902
(I20
I8
tp1913
tp1914
a((I20
I5
tp1915
(I20
I6
tp1916
tp1917
a(g1915
(I20
I7
tp1918
tp1919
a(g1915
(I20
I8
tp1920
tp1921
a((I24
I2
tp1922
(I24
I3
tp1923
tp1924
a(g1922
(I24
I4
tp1925
tp1926
a(g1922
(I24
I5
tp1927
tp1928
a(g1922
(I24
I6
tp1929
tp1930
a(g1922
(I24
I7
tp1931
tp1932
a(g1922
(I24
I8
tp1933
tp1934
a((I24
I5
tp1935
(I24
I6
tp1936
tp1937
a(g1935
(I24
I7
tp1938
tp1939
a(g1935
(I24
I8
tp1940
tp1941
a((I25
I2
tp1942
(I25
I3
tp1943
tp1944
a(g1942
(I25
I4
tp1945
tp1946
a(g1942
(I25
I5
tp1947
tp1948
a(g1942
(I25
I6
tp1949
tp1950
a(g1942
(I25
I7
tp1951
tp1952
a(g1942
(I25
I8
tp1953
tp1954
a((I25
I5
tp1955
(I25
I6
tp1956
tp1957
a(g1955
(I25
I7
tp1958
tp1959
a(g1955
(I25
I8
tp1960
tp1961
a((I26
I2
tp1962
(I26
I3
tp1963
tp1964
a(g1962
(I26
I4
tp1965
tp1966
a(g1962
(I26
I5
tp1967
tp1968
a(g1962
(I26
I6
tp1969
tp1970
a(g1962
(I26
I7
tp1971
tp1972
a(g1962
(I26
I8
tp1973
tp1974
a((I26
I5
tp1975
(I26
I6
tp1976
tp1977
a(g1975
(I26
I7
tp1978
tp1979
a(g1975
(I26
I8
tp1980
tp1981
a((I27
I2
tp1982
(I27
I3
tp1983
tp1984
a(g1982
(I27
I4
tp1985
tp1986
a(g1982
(I27
I5
tp1987
tp1988
a(g1982
(I27
I6
tp1989
tp1990
a(g1982
(I27
I7
tp1991
tp1992
a(g1982
(I27
I8
tp1993
tp1994
a((I27
I5
tp1995
(I27
I6
tp1996
tp1997
a(g1995
(I27
I7
tp1998
tp1999
a(g1995
(I27
I8
tp2000
tp2001
a((I33
I2
tp2002
(I33
I3
tp2003
tp2004
a(g2002
(I33
I4
tp2005
tp2006
a(g2002
(I33
I5
tp2007
tp2008
a(g2002
(I33
I6
tp2009
tp2010
a(g2002
(I33
I7
tp2011
tp2012
a(g2002
(I33
I8
tp2013
tp2014
a((I33
I5
tp2015
(I33
I6
tp2016
tp2017
a(g2015
(I33
I7
tp2018
tp2019
a(g2015
(I33
I8
tp2020
tp2021
a((I34
I2
tp2022
(I34
I3
tp2023
tp2024
a(g2022
(I34
I4
tp2025
tp2026
a(g2022
(I34
I5
tp2027
tp2028
a(g2022
(I34
I6
tp2029
tp2030
a(g2022
(I34
I7
tp2031
tp2032
a(g2022
(I34
I8
tp2033
tp2034
a((I34
I5
tp2035
(I34
I6
tp2036
tp2037
a(g2035
(I34
I7
tp2038
tp2039
a(g2035
(I34
I8
tp2040
tp2041
a((I35
I2
tp2042
(I35
I3
tp2043
tp2044
a(g2042
(I35
I4
tp2045
tp2046
a(g2042
(I35
I5
tp2047
tp2048
a(g2042
(I35
I6
tp2049
tp2050
a(g2042
(I35
I7
tp2051
tp2052
a(g2042
(I35
I8
tp2053
tp2054
a((I35
I5
tp2055
(I35
I6
tp2056
tp2057
a(g2055
(I35
I7
tp2058
tp2059
a(g2055
(I35
I8
tp2060
tp2061
a((I36
I2
tp2062
(I36
I3
tp2063
tp2064
a(g2062
(I36
I4
tp2065
tp2066
a(g2062
(I36
I5
tp2067
tp2068
a(g2062
(I36
I6
tp2069
tp2070
a(g2062
(I36
I7
tp2071
tp2072
a(g2062
(I36
I8
tp2073
tp2074
a((I36
I5
tp2075
(I36
I6
tp2076
tp2077
a(g2075
(I36
I7
tp2078
tp2079
a(g2075
(I36
I8
tp2080
tp2081
a((I41
I2
tp2082
(I41
I3
tp2083
tp2084
a(g2082
(I41
I4
tp2085
tp2086
a(g2082
(I41
I5
tp2087
tp2088
a(g2082
(I41
I6
tp2089
tp2090
a(g2082
(I41
I7
tp2091
tp2092
a(g2082
(I41
I8
tp2093
tp2094
a((I41
I5
tp2095
(I41
I6
tp2096
tp2097
a(g2095
(I41
I7
tp2098
tp2099
a(g2095
(I41
I8
tp2100
tp2101
a((I42
I2
tp2102
(I42
I3
tp2103
tp2104
a(g2102
(I42
I4
tp2105
tp2106
a(g2102
(I42
I5
tp2107
tp2108
a(g2102
(I42
I6
tp2109
tp2110
a(g2102
(I42
I7
tp2111
tp2112
a(g2102
(I42
I8
tp2113
tp2114
a((I42
I5
tp2115
(I42
I6
tp2116
tp2117
a(g2115
(I42
I7
tp2118
tp2119
a(g2115
(I42
I8
tp2120
tp2121
a((I43
I2
tp2122
(I43
I3
tp2123
tp2124
a(g2122
(I43
I4
tp2125
tp2126
a(g2122
(I43
I5
tp2127
tp2128
a(g2122
(I43
I6
tp2129
tp2130
a(g2122
(I43
I7
tp2131
tp2132
a(g2122
(I43
I8
tp2133
tp2134
a((I43
I5
tp2135
(I43
I6
tp2136
tp2137
a(g2135
(I43
I7
tp2138
tp2139
a(g2135
(I43
I8
tp2140
tp2141
a((I44
I2
tp2142
(I44
I3
tp2143
tp2144
a(g2142
(I44
I4
tp2145
tp2146
a(g2142
(I44
I5
tp2147
tp2148
a(g2142
(I44
I6
tp2149
tp2150
a(g2142
(I44
I7
tp2151
tp2152
a(g2142
(I44
I8
tp2153
tp2154
a((I44
I5
tp2155
(I44
I6
tp2156
tp2157
a(g2155
(I44
I7
tp2158
tp2159
a(g2155
(I44
I8
tp2160
tp2161
a((I45
I0
tp2162
(I45
I1
tp2163
tp2164
a(g2162
(I45
I2
tp2165
tp2166
a(g2162
(I45
I3
tp2167
tp2168
a(g2162
(I45
I4
tp2169
tp2170
a(g2162
(I45
I5
tp2171
tp2172
a((I45
I1
tp2173
(I45
I2
tp2174
tp2175
a(g2173
(I45
I3
tp2176
tp2177
a(g2173
(I45
I4
tp2178
tp2179
a(g2173
(I45
I5
tp2180
tp2181
a((I45
I2
tp2182
(I45
I3
tp2183
tp2184
a(g2182
(I45
I4
tp2185
tp2186
a(g2182
(I45
I5
tp2187
tp2188
a((I45
I3
tp2189
(I45
I4
tp2190
tp2191
a(g2189
(I45
I5
tp2192
tp2193
a((I45
I4
tp2194
(I45
I5
tp2195
tp2196
a((I46
I0
tp2197
(I46
I1
tp2198
tp2199
a(g2197
(I46
I2
tp2200
tp2201
a(g2197
(I46
I3
tp2202
tp2203
a(g2197
(I46
I4
tp2204
tp2205
a(g2197
(I46
I5
tp2206
tp2207
a((I46
I1
tp2208
(I46
I2
tp2209
tp2210
a(g2208
(I46
I3
tp2211
tp2212
a(g2208
(I46
I4
tp2213
tp2214
a(g2208
(I46
I5
tp2215
tp2216
a((I46
I2
tp2217
(I46
I3
tp2218
tp2219
a(g2217
(I46
I4
tp2220
tp2221
a(g2217
(I46
I5
tp2222
tp2223
a((I46
I3
tp2224
(I46
I4
tp2225
tp2226
a(g2224
(I46
I5
tp2227
tp2228
a((I46
I4
tp2229
(I46
I5
tp2230
tp2231
a((I47
I0
tp2232
(I47
I1
tp2233
tp2234
a(g2232
(I47
I2
tp2235
tp2236
a(g2232
(I47
I3
tp2237
tp2238
a(g2232
(I47
I4
tp2239
tp2240
a(g2232
(I47
I5
tp2241
tp2242
a((I47
I1
tp2243
(I47
I2
tp2244
tp2245
a(g2243
(I47
I3
tp2246
tp2247
a(g2243
(I47
I4
tp2248
tp2249
a(g2243
(I47
I5
tp2250
tp2251
a((I47
I2
tp2252
(I47
I3
tp2253
tp2254
a(g2252
(I47
I4
tp2255
tp2256
a(g2252
(I47
I5
tp2257
tp2258
a((I47
I3
tp2259
(I47
I4
tp2260
tp2261
a(g2259
(I47
I5
tp2262
tp2263
a((I47
I4
tp2264
(I47
I5
tp2265
tp2266
a((I48
I0
tp2267
(I48
I1
tp2268
tp2269
a(g2267
(I48
I2
tp2270
tp2271
a(g2267
(I48
I3
tp2272
tp2273
a(g2267
(I48
I4
tp2274
tp2275
a(g2267
(I48
I5
tp2276
tp2277
a((I48
I1
tp2278
(I48
I2
tp2279
tp2280
a(g2278
(I48
I3
tp2281
tp2282
a(g2278
(I48
I4
tp2283
tp2284
a(g2278
(I48
I5
tp2285
tp2286
a((I48
I2
tp2287
(I48
I3
tp2288
tp2289
a(g2287
(I48
I4
tp2290
tp2291
a(g2287
(I48
I5
tp2292
tp2293
a((I48
I3
tp2294
(I48
I4
tp2295
tp2296
a(g2294
(I48
I5
tp2297
tp2298
a((I48
I4
tp2299
(I48
I5
tp2300
tp2301
a((I49
I0
tp2302
(I49
I1
tp2303
tp2304
a(g2302
(I49
I2
tp2305
tp2306
a((I49
I1
tp2307
(I49
I2
tp2308
tp2309
a((I52
I2
tp2310
(I52
I3
tp2311
tp2312
a(g2310
(I52
I4
tp2313
tp2314
a(g2310
(I52
I5
tp2315
tp2316
a(g2310
(I52
I6
tp2317
tp2318
a(g2310
(I52
I7
tp2319
tp2320
a(g2310
(I52
I8
tp2321
tp2322
a((I52
I5
tp2323
(I52
I6
tp2324
tp2325
a(g2323
(I52
I7
tp2326
tp2327
a(g2323
(I52
I8
tp2328
tp2329
a((I53
I0
tp2330
(I53
I1
tp2331
tp2332
a(g2330
(I53
I2
tp2333
tp2334
a(g2330
(I53
I3
tp2335
tp2336
a(g2330
(I53
I4
tp2337
tp2338
a(g2330
(I53
I5
tp2339
tp2340
a((I53
I1
tp2341
(I53
I2
tp2342
tp2343
a(g2341
(I53
I3
tp2344
tp2345
a(g2341
(I53
I4
tp2346
tp2347
a(g2341
(I53
I5
tp2348
tp2349
a((I53
I2
tp2350
(I53
I3
tp2351
tp2352
a(g2350
(I53
I4
tp2353
tp2354
a(g2350
(I53
I5
tp2355
tp2356
a((I53
I3
tp2357
(I53
I4
tp2358
tp2359
a(g2357
(I53
I5
tp2360
tp2361
a((I53
I4
tp2362
(I53
I5
tp2363
tp2364
a((I57
I2
tp2365
(I57
I3
tp2366
tp2367
a(g2365
(I57
I4
tp2368
tp2369
a(g2365
(I57
I5
tp2370
tp2371
a(g2365
(I57
I6
tp2372
tp2373
a(g2365
(I57
I7
tp2374
tp2375
a(g2365
(I57
I8
tp2376
tp2377
a((I57
I5
tp2378
(I57
I6
tp2379
tp2380
a(g2378
(I57
I7
tp2381
tp2382
a(g2378
(I57
I8
tp2383
tp2384
a((I58
I0
tp2385
(I58
I1
tp2386
tp2387
a(g2385
(I58
I2
tp2388
tp2389
a(g2385
(I58
I3
tp2390
tp2391
a(g2385
(I58
I4
tp2392
tp2393
a(g2385
(I58
I5
tp2394
tp2395
a((I58
I1
tp2396
(I58
I2
tp2397
tp2398
a(g2396
(I58
I3
tp2399
tp2400
a(g2396
(I58
I4
tp2401
tp2402
a(g2396
(I58
I5
tp2403
tp2404
a((I58
I2
tp2405
(I58
I3
tp2406
tp2407
a(g2405
(I58
I4
tp2408
tp2409
a(g2405
(I58
I5
tp2410
tp2411
a((I58
I3
tp2412
(I58
I4
tp2413
tp2414
a(g2412
(I58
I5
tp2415
tp2416
a((I58
I4
tp2417
(I58
I5
tp2418
tp2419
asS'one'
p2420
(lp2421
((I4
I0
tp2422
(I4
I1
tp2423
tp2424
a(g2422
(I4
I2
tp2425
tp2426
a(g2422
(I4
I3
tp2427
tp2428
a((I4
I1
tp2429
(I4
I2
tp2430
tp2431
a(g2429
(I4
I3
tp2432
tp2433
a((I4
I2
tp2434
(I4
I3
tp2435
tp2436
a((I9
I0
tp2437
(I9
I1
tp2438
tp2439
a((I11
I0
tp2440
(I11
I1
tp2441
tp2442
a((I45
I0
tp2443
(I45
I1
tp2444
tp2445
a(g2443
(I45
I2
tp2446
tp2447
a(g2443
(I45
I3
tp2448
tp2449
a((I45
I1
tp2450
(I45
I2
tp2451
tp2452
a(g2450
(I45
I3
tp2453
tp2454
a((I45
I2
tp2455
(I45
I3
tp2456
tp2457
a((I46
I0
tp2458
(I46
I1
tp2459
tp2460
a(g2458
(I46
I2
tp2461
tp2462
a(g2458
(I46
I3
tp2463
tp2464
a((I46
I1
tp2465
(I46
I2
tp2466
tp2467
a(g2465
(I46
I3
tp2468
tp2469
a((I46
I2
tp2470
(I46
I3
tp2471
tp2472
a((I47
I0
tp2473
(I47
I1
tp2474
tp2475
a(g2473
(I47
I2
tp2476
tp2477
a(g2473
(I47
I3
tp2478
tp2479
a((I47
I1
tp2480
(I47
I2
tp2481
tp2482
a(g2480
(I47
I3
tp2483
tp2484
a((I47
I2
tp2485
(I47
I3
tp2486
tp2487
a((I48
I0
tp2488
(I48
I1
tp2489
tp2490
a(g2488
(I48
I2
tp2491
tp2492
a(g2488
(I48
I3
tp2493
tp2494
a((I48
I1
tp2495
(I48
I2
tp2496
tp2497
a(g2495
(I48
I3
tp2498
tp2499
a((I48
I2
tp2500
(I48
I3
tp2501
tp2502
a((I49
I0
tp2503
(I49
I1
tp2504
tp2505
a(g2503
(I49
I2
tp2506
tp2507
a((I49
I1
tp2508
(I49
I2
tp2509
tp2510
a((I53
I0
tp2511
(I53
I1
tp2512
tp2513
a(g2511
(I53
I2
tp2514
tp2515
a(g2511
(I53
I3
tp2516
tp2517
a((I53
I1
tp2518
(I53
I2
tp2519
tp2520
a(g2518
(I53
I3
tp2521
tp2522
a((I53
I2
tp2523
(I53
I3
tp2524
tp2525
a((I58
I0
tp2526
(I58
I1
tp2527
tp2528
a(g2526
(I58
I2
tp2529
tp2530
a(g2526
(I58
I3
tp2531
tp2532
a((I58
I1
tp2533
(I58
I2
tp2534
tp2535
a(g2533
(I58
I3
tp2536
tp2537
a((I58
I2
tp2538
(I58
I3
tp2539
tp2540
assS'prefix'
p2541
(dp2542
g1548
(lp2543
(I0
I0
tp2544
a(I1
I0
tp2545
a(I3
I0
tp2546
a(I3
I1
tp2547
a(I3
I2
tp2548
a(I3
I3
tp2549
a(I3
I4
tp2550
a(I3
I5
tp2551
a(I4
I0
tp2552
a(I4
I1
tp2553
a(I4
I2
tp2554
a(I4
I3
tp2555
a(I4
I4
tp2556
a(I4
I5
tp2557
a(I4
I6
tp2558
a(I4
I7
tp2559
a(I5
I0
tp2560
a(I6
I0
tp2561
a(I8
I0
tp2562
a(I8
I1
tp2563
a(I8
I2
tp2564
a(I8
I3
tp2565
a(I8
I4
tp2566
a(I8
I5
tp2567
a(I9
I0
tp2568
a(I9
I1
tp2569
a(I9
I2
tp2570
a(I9
I3
tp2571
a(I9
I4
tp2572
a(I9
I5
tp2573
a(I10
I0
tp2574
a(I11
I0
tp2575
a(I11
I1
tp2576
a(I12
I0
tp2577
a(I13
I0
tp2578
a(I13
I1
tp2579
a(I13
I2
tp2580
a(I13
I3
tp2581
a(I13
I4
tp2582
a(I13
I5
tp2583
a(I14
I0
tp2584
a(I15
I0
tp2585
a(I16
I0
tp2586
a(I16
I1
tp2587
a(I16
I2
tp2588
a(I16
I3
tp2589
a(I16
I4
tp2590
a(I16
I5
tp2591
a(I17
I0
tp2592
a(I18
I0
tp2593
a(I18
I1
tp2594
a(I18
I2
tp2595
a(I18
I3
tp2596
a(I18
I4
tp2597
a(I18
I5
tp2598
a(I19
I0
tp2599
a(I20
I0
tp2600
a(I20
I1
tp2601
a(I20
I2
tp2602
a(I20
I3
tp2603
a(I20
I4
tp2604
a(I20
I5
tp2605
a(I21
I0
tp2606
a(I22
I0
tp2607
a(I23
I0
tp2608
a(I24
I0
tp2609
a(I24
I1
tp2610
a(I24
I2
tp2611
a(I24
I3
tp2612
a(I24
I4
tp2613
a(I24
I5
tp2614
a(I25
I0
tp2615
a(I25
I1
tp2616
a(I25
I2
tp2617
a(I25
I3
tp2618
a(I25
I4
tp2619
a(I25
I5
tp2620
a(I26
I0
tp2621
a(I26
I1
tp2622
a(I26
I2
tp2623
a(I26
I3
tp2624
a(I26
I4
tp2625
a(I26
I5
tp2626
a(I26
I6
tp2627
a(I26
I7
tp2628
a(I26
I8
tp2629
a(I26
I9
tp2630
a(I26
I10
tp2631
a(I26
I11
tp2632
a(I26
I12
tp2633
a(I26
I13
tp2634
a(I26
I14
tp2635
a(I26
I15
tp2636
a(I26
I16
tp2637
a(I26
I17
tp2638
a(I26
I18
tp2639
a(I26
I19
tp2640
a(I26
I20
tp2641
a(I26
I21
tp2642
a(I26
I22
tp2643
a(I26
I23
tp2644
a(I27
I0
tp2645
a(I27
I1
tp2646
a(I27
I2
tp2647
a(I27
I3
tp2648
a(I27
I4
tp2649
a(I27
I5
tp2650
a(I28
I0
tp2651
a(I29
I0
tp2652
a(I30
I0
tp2653
a(I31
I0
tp2654
a(I32
I0
tp2655
a(I33
I0
tp2656
a(I33
I1
tp2657
a(I33
I2
tp2658
a(I33
I3
tp2659
a(I33
I4
tp2660
a(I33
I5
tp2661
a(I34
I0
tp2662
a(I34
I1
tp2663
a(I34
I2
tp2664
a(I34
I3
tp2665
a(I34
I4
tp2666
a(I34
I5
tp2667
a(I35
I0
tp2668
a(I35
I1
tp2669
a(I35
I2
tp2670
a(I35
I3
tp2671
a(I35
I4
tp2672
a(I35
I5
tp2673
a(I35
I6
tp2674
a(I35
I7
tp2675
a(I35
I8
tp2676
a(I35
I9
tp2677
a(I35
I10
tp2678
a(I35
I11
tp2679
a(I35
I12
tp2680
a(I35
I13
tp2681
a(I35
I14
tp2682
a(I35
I15
tp2683
a(I35
I16
tp2684
a(I35
I17
tp2685
a(I35
I18
tp2686
a(I35
I19
tp2687
a(I35
I20
tp2688
a(I35
I21
tp2689
a(I35
I22
tp2690
a(I35
I23
tp2691
a(I36
I0
tp2692
a(I36
I1
tp2693
a(I36
I2
tp2694
a(I36
I3
tp2695
a(I36
I4
tp2696
a(I36
I5
tp2697
a(I37
I0
tp2698
a(I38
I0
tp2699
a(I39
I0
tp2700
a(I40
I0
tp2701
a(I41
I0
tp2702
a(I41
I1
tp2703
a(I41
I2
tp2704
a(I41
I3
tp2705
a(I41
I4
tp2706
a(I41
I5
tp2707
a(I42
I0
tp2708
a(I42
I1
tp2709
a(I42
I2
tp2710
a(I42
I3
tp2711
a(I42
I4
tp2712
a(I42
I5
tp2713
a(I43
I0
tp2714
a(I43
I1
tp2715
a(I43
I2
tp2716
a(I43
I3
tp2717
a(I43
I4
tp2718
a(I43
I5
tp2719
a(I44
I0
tp2720
a(I44
I1
tp2721
a(I44
I2
tp2722
a(I44
I3
tp2723
a(I44
I4
tp2724
a(I44
I5
tp2725
a(I45
I0
tp2726
a(I45
I1
tp2727
a(I45
I2
tp2728
a(I45
I3
tp2729
a(I45
I4
tp2730
a(I45
I5
tp2731
a(I45
I6
tp2732
a(I45
I7
tp2733
a(I46
I0
tp2734
a(I46
I1
tp2735
a(I46
I2
tp2736
a(I46
I3
tp2737
a(I46
I4
tp2738
a(I46
I5
tp2739
a(I46
I6
tp2740
a(I46
I7
tp2741
a(I47
I0
tp2742
a(I47
I1
tp2743
a(I47
I2
tp2744
a(I47
I3
tp2745
a(I47
I4
tp2746
a(I47
I5
tp2747
a(I47
I6
tp2748
a(I47
I7
tp2749
a(I48
I0
tp2750
a(I48
I1
tp2751
a(I48
I2
tp2752
a(I48
I3
tp2753
a(I48
I4
tp2754
a(I48
I5
tp2755
a(I48
I6
tp2756
a(I48
I7
tp2757
a(I49
I0
tp2758
a(I49
I1
tp2759
a(I49
I2
tp2760
a(I49
I3
tp2761
a(I49
I4
tp2762
a(I49
I5
tp2763
a(I49
I6
tp2764
a(I50
I0
tp2765
a(I52
I0
tp2766
a(I52
I1
tp2767
a(I52
I2
tp2768
a(I52
I3
tp2769
a(I52
I4
tp2770
a(I52
I5
tp2771
a(I53
I0
tp2772
a(I53
I1
tp2773
a(I53
I2
tp2774
a(I53
I3
tp2775
a(I53
I4
tp2776
a(I53
I5
tp2777
a(I53
I6
tp2778
a(I53
I7
tp2779
a(I54
I0
tp2780
a(I55
I0
tp2781
a(I57
I0
tp2782
a(I57
I1
tp2783
a(I57
I2
tp2784
a(I57
I3
tp2785
a(I57
I4
tp2786
a(I57
I5
tp2787
a(I58
I0
tp2788
a(I58
I1
tp2789
a(I58
I2
tp2790
a(I58
I3
tp2791
a(I58
I4
tp2792
a(I58
I5
tp2793
a(I58
I6
tp2794
a(I58
I7
tp2795
a(I59
I0
tp2796
asg1747
(lp2797
(I0
I0
tp2798
a(I1
I0
tp2799
a(I3
I0
tp2800
a(I3
I1
tp2801
a(I3
I2
tp2802
a(I3
I3
tp2803
a(I3
I4
tp2804
a(I3
I5
tp2805
a(I3
I6
tp2806
a(I3
I7
tp2807
a(I3
I8
tp2808
a(I3
I9
tp2809
a(I3
I10
tp2810
a(I3
I11
tp2811
a(I3
I12
tp2812
a(I3
I13
tp2813
a(I3
I14
tp2814
a(I3
I15
tp2815
a(I3
I16
tp2816
a(I3
I17
tp2817
a(I4
I0
tp2818
a(I4
I1
tp2819
a(I4
I2
tp2820
a(I4
I3
tp2821
a(I4
I4
tp2822
a(I4
I5
tp2823
a(I4
I6
tp2824
a(I4
I7
tp2825
a(I4
I8
tp2826
a(I4
I9
tp2827
a(I5
I0
tp2828
a(I6
I0
tp2829
a(I8
I0
tp2830
a(I8
I1
tp2831
a(I8
I2
tp2832
a(I8
I3
tp2833
a(I8
I4
tp2834
a(I8
I5
tp2835
a(I8
I6
tp2836
a(I8
I7
tp2837
a(I8
I8
tp2838
a(I8
I9
tp2839
a(I8
I10
tp2840
a(I8
I11
tp2841
a(I8
I12
tp2842
a(I8
I13
tp2843
a(I8
I14
tp2844
a(I8
I15
tp2845
a(I8
I16
tp2846
a(I8
I17
tp2847
a(I9
I0
tp2848
a(I9
I1
tp2849
a(I9
I2
tp2850
a(I9
I3
tp2851
a(I9
I4
tp2852
a(I9
I5
tp2853
a(I10
I0
tp2854
a(I11
I0
tp2855
a(I11
I1
tp2856
a(I11
I2
tp2857
a(I11
I3
tp2858
a(I12
I0
tp2859
a(I13
I0
tp2860
a(I13
I1
tp2861
a(I13
I2
tp2862
a(I13
I3
tp2863
a(I13
I4
tp2864
a(I13
I5
tp2865
a(I13
I6
tp2866
a(I13
I7
tp2867
a(I13
I8
tp2868
a(I13
I9
tp2869
a(I13
I10
tp2870
a(I13
I11
tp2871
a(I13
I12
tp2872
a(I13
I13
tp2873
a(I13
I14
tp2874
a(I13
I15
tp2875
a(I13
I16
tp2876
a(I13
I17
tp2877
a(I14
I0
tp2878
a(I15
I0
tp2879
a(I16
I0
tp2880
a(I16
I1
tp2881
a(I16
I2
tp2882
a(I16
I3
tp2883
a(I16
I4
tp2884
a(I16
I5
tp2885
a(I16
I6
tp2886
a(I16
I7
tp2887
a(I16
I8
tp2888
a(I16
I9
tp2889
a(I16
I10
tp2890
a(I16
I11
tp2891
a(I16
I12
tp2892
a(I16
I13
tp2893
a(I16
I14
tp2894
a(I16
I15
tp2895
a(I16
I16
tp2896
a(I16
I17
tp2897
a(I17
I0
tp2898
a(I18
I0
tp2899
a(I18
I1
tp2900
a(I18
I2
tp2901
a(I18
I3
tp2902
a(I18
I4
tp2903
a(I18
I5
tp2904
a(I18
I6
tp2905
a(I18
I7
tp2906
a(I18
I8
tp2907
a(I18
I9
tp2908
a(I18
I10
tp2909
a(I18
I11
tp2910
a(I18
I12
tp2911
a(I18
I13
tp2912
a(I18
I14
tp2913
a(I18
I15
tp2914
a(I18
I16
tp2915
a(I18
I17
tp2916
a(I19
I0
tp2917
a(I20
I0
tp2918
a(I20
I1
tp2919
a(I20
I2
tp2920
a(I20
I3
tp2921
a(I20
I4
tp2922
a(I20
I5
tp2923
a(I20
I6
tp2924
a(I20
I7
tp2925
a(I20
I8
tp2926
a(I20
I9
tp2927
a(I20
I10
tp2928
a(I20
I11
tp2929
a(I20
I12
tp2930
a(I20
I13
tp2931
a(I20
I14
tp2932
a(I20
I15
tp2933
a(I20
I16
tp2934
a(I20
I17
tp2935
a(I21
I0
tp2936
a(I22
I0
tp2937
a(I23
I0
tp2938
a(I24
I0
tp2939
a(I24
I1
tp2940
a(I24
I2
tp2941
a(I24
I3
tp2942
a(I24
I4
tp2943
a(I24
I5
tp2944
a(I24
I6
tp2945
a(I24
I7
tp2946
a(I24
I8
tp2947
a(I24
I9
tp2948
a(I24
I10
tp2949
a(I24
I11
tp2950
a(I24
I12
tp2951
a(I24
I13
tp2952
a(I24
I14
tp2953
a(I24
I15
tp2954
a(I24
I16
tp2955
a(I24
I17
tp2956
a(I25
I0
tp2957
a(I25
I1
tp2958
a(I25
I2
tp2959
a(I25
I3
tp2960
a(I25
I4
tp2961
a(I25
I5
tp2962
a(I25
I6
tp2963
a(I25
I7
tp2964
a(I25
I8
tp2965
a(I25
I9
tp2966
a(I25
I10
tp2967
a(I25
I11
tp2968
a(I25
I12
tp2969
a(I25
I13
tp2970
a(I25
I14
tp2971
a(I25
I15
tp2972
a(I25
I16
tp2973
a(I25
I17
tp2974
a(I26
I0
tp2975
a(I26
I1
tp2976
a(I26
I2
tp2977
a(I26
I3
tp2978
a(I26
I4
tp2979
a(I26
I5
tp2980
a(I26
I6
tp2981
a(I26
I7
tp2982
a(I26
I8
tp2983
a(I26
I9
tp2984
a(I26
I10
tp2985
a(I26
I11
tp2986
a(I26
I12
tp2987
a(I26
I13
tp2988
a(I26
I14
tp2989
a(I26
I15
tp2990
a(I26
I16
tp2991
a(I26
I17
tp2992
a(I27
I0
tp2993
a(I27
I1
tp2994
a(I27
I2
tp2995
a(I27
I3
tp2996
a(I27
I4
tp2997
a(I27
I5
tp2998
a(I27
I6
tp2999
a(I27
I7
tp3000
a(I27
I8
tp3001
a(I27
I9
tp3002
a(I27
I10
tp3003
a(I27
I11
tp3004
a(I27
I12
tp3005
a(I27
I13
tp3006
a(I27
I14
tp3007
a(I27
I15
tp3008
a(I27
I16
tp3009
a(I27
I17
tp3010
a(I28
I0
tp3011
a(I29
I0
tp3012
a(I30
I0
tp3013
a(I31
I0
tp3014
a(I32
I0
tp3015
a(I33
I0
tp3016
a(I33
I1
tp3017
a(I33
I2
tp3018
a(I33
I3
tp3019
a(I33
I4
tp3020
a(I33
I5
tp3021
a(I33
I6
tp3022
a(I33
I7
tp3023
a(I33
I8
tp3024
a(I33
I9
tp3025
a(I33
I10
tp3026
a(I33
I11
tp3027
a(I33
I12
tp3028
a(I33
I13
tp3029
a(I33
I14
tp3030
a(I33
I15
tp3031
a(I33
I16
tp3032
a(I33
I17
tp3033
a(I34
I0
tp3034
a(I34
I1
tp3035
a(I34
I2
tp3036
a(I34
I3
tp3037
a(I34
I4
tp3038
a(I34
I5
tp3039
a(I34
I6
tp3040
a(I34
I7
tp3041
a(I34
I8
tp3042
a(I34
I9
tp3043
a(I34
I10
tp3044
a(I34
I11
tp3045
a(I34
I12
tp3046
a(I34
I13
tp3047
a(I34
I14
tp3048
a(I34
I15
tp3049
a(I34
I16
tp3050
a(I34
I17
tp3051
a(I35
I0
tp3052
a(I35
I1
tp3053
a(I35
I2
tp3054
a(I35
I3
tp3055
a(I35
I4
tp3056
a(I35
I5
tp3057
a(I35
I6
tp3058
a(I35
I7
tp3059
a(I35
I8
tp3060
a(I35
I9
tp3061
a(I35
I10
tp3062
a(I35
I11
tp3063
a(I35
I12
tp3064
a(I35
I13
tp3065
a(I35
I14
tp3066
a(I35
I15
tp3067
a(I35
I16
tp3068
a(I35
I17
tp3069
a(I36
I0
tp3070
a(I36
I1
tp3071
a(I36
I2
tp3072
a(I36
I3
tp3073
a(I36
I4
tp3074
a(I36
I5
tp3075
a(I36
I6
tp3076
a(I36
I7
tp3077
a(I36
I8
tp3078
a(I36
I9
tp3079
a(I36
I10
tp3080
a(I36
I11
tp3081
a(I36
I12
tp3082
a(I36
I13
tp3083
a(I36
I14
tp3084
a(I36
I15
tp3085
a(I36
I16
tp3086
a(I36
I17
tp3087
a(I37
I0
tp3088
a(I38
I0
tp3089
a(I39
I0
tp3090
a(I40
I0
tp3091
a(I41
I0
tp3092
a(I41
I1
tp3093
a(I41
I2
tp3094
a(I41
I3
tp3095
a(I41
I4
tp3096
a(I41
I5
tp3097
a(I41
I6
tp3098
a(I41
I7
tp3099
a(I41
I8
tp3100
a(I41
I9
tp3101
a(I41
I10
tp3102
a(I41
I11
tp3103
a(I41
I12
tp3104
a(I41
I13
tp3105
a(I41
I14
tp3106
a(I41
I15
tp3107
a(I41
I16
tp3108
a(I41
I17
tp3109
a(I42
I0
tp3110
a(I42
I1
tp3111
a(I42
I2
tp3112
a(I42
I3
tp3113
a(I42
I4
tp3114
a(I42
I5
tp3115
a(I42
I6
tp3116
a(I42
I7
tp3117
a(I42
I8
tp3118
a(I42
I9
tp3119
a(I42
I10
tp3120
a(I42
I11
tp3121
a(I42
I12
tp3122
a(I42
I13
tp3123
a(I42
I14
tp3124
a(I42
I15
tp3125
a(I42
I16
tp3126
a(I42
I17
tp3127
a(I43
I0
tp3128
a(I43
I1
tp3129
a(I43
I2
tp3130
a(I43
I3
tp3131
a(I43
I4
tp3132
a(I43
I5
tp3133
a(I43
I6
tp3134
a(I43
I7
tp3135
a(I43
I8
tp3136
a(I43
I9
tp3137
a(I43
I10
tp3138
a(I43
I11
tp3139
a(I43
I12
tp3140
a(I43
I13
tp3141
a(I43
I14
tp3142
a(I43
I15
tp3143
a(I43
I16
tp3144
a(I43
I17
tp3145
a(I44
I0
tp3146
a(I44
I1
tp3147
a(I44
I2
tp3148
a(I44
I3
tp3149
a(I44
I4
tp3150
a(I44
I5
tp3151
a(I44
I6
tp3152
a(I44
I7
tp3153
a(I44
I8
tp3154
a(I44
I9
tp3155
a(I44
I10
tp3156
a(I44
I11
tp3157
a(I44
I12
tp3158
a(I44
I13
tp3159
a(I44
I14
tp3160
a(I44
I15
tp3161
a(I44
I16
tp3162
a(I44
I17
tp3163
a(I45
I0
tp3164
a(I45
I1
tp3165
a(I45
I2
tp3166
a(I45
I3
tp3167
a(I45
I4
tp3168
a(I45
I5
tp3169
a(I45
I6
tp3170
a(I45
I7
tp3171
a(I45
I8
tp3172
a(I45
I9
tp3173
a(I46
I0
tp3174
a(I46
I1
tp3175
a(I46
I2
tp3176
a(I46
I3
tp3177
a(I46
I4
tp3178
a(I46
I5
tp3179
a(I46
I6
tp3180
a(I46
I7
tp3181
a(I46
I8
tp3182
a(I46
I9
tp3183
a(I47
I0
tp3184
a(I47
I1
tp3185
a(I47
I2
tp3186
a(I47
I3
tp3187
a(I47
I4
tp3188
a(I47
I5
tp3189
a(I47
I6
tp3190
a(I47
I7
tp3191
a(I47
I8
tp3192
a(I47
I9
tp3193
a(I48
I0
tp3194
a(I48
I1
tp3195
a(I48
I2
tp3196
a(I48
I3
tp3197
a(I48
I4
tp3198
a(I48
I5
tp3199
a(I48
I6
tp3200
a(I48
I7
tp3201
a(I48
I8
tp3202
a(I48
I9
tp3203
a(I49
I0
tp3204
a(I49
I1
tp3205
a(I49
I2
tp3206
a(I49
I3
tp3207
a(I49
I4
tp3208
a(I49
I5
tp3209
a(I49
I6
tp3210
a(I50
I0
tp3211
a(I52
I0
tp3212
a(I52
I1
tp3213
a(I52
I2
tp3214
a(I52
I3
tp3215
a(I52
I4
tp3216
a(I52
I5
tp3217
a(I52
I6
tp3218
a(I52
I7
tp3219
a(I52
I8
tp3220
a(I52
I9
tp3221
a(I52
I10
tp3222
a(I52
I11
tp3223
a(I52
I12
tp3224
a(I52
I13
tp3225
a(I52
I14
tp3226
a(I52
I15
tp3227
a(I52
I16
tp3228
a(I52
I17
tp3229
a(I53
I0
tp3230
a(I53
I1
tp3231
a(I53
I2
tp3232
a(I53
I3
tp3233
a(I53
I4
tp3234
a(I53
I5
tp3235
a(I53
I6
tp3236
a(I53
I7
tp3237
a(I53
I8
tp3238
a(I53
I9
tp3239
a(I54
I0
tp3240
a(I55
I0
tp3241
a(I57
I0
tp3242
a(I57
I1
tp3243
a(I57
I2
tp3244
a(I57
I3
tp3245
a(I57
I4
tp3246
a(I57
I5
tp3247
a(I57
I6
tp3248
a(I57
I7
tp3249
a(I57
I8
tp3250
a(I57
I9
tp3251
a(I57
I10
tp3252
a(I57
I11
tp3253
a(I57
I12
tp3254
a(I57
I13
tp3255
a(I57
I14
tp3256
a(I57
I15
tp3257
a(I57
I16
tp3258
a(I57
I17
tp3259
a(I58
I0
tp3260
a(I58
I1
tp3261
a(I58
I2
tp3262
a(I58
I3
tp3263
a(I58
I4
tp3264
a(I58
I5
tp3265
a(I58
I6
tp3266
a(I58
I7
tp3267
a(I58
I8
tp3268
a(I58
I9
tp3269
a(I59
I0
tp3270
asg2420
(lp3271
(I0
I0
tp3272
a(I1
I0
tp3273
a(I3
I0
tp3274
a(I3
I1
tp3275
a(I3
I2
tp3276
a(I3
I3
tp3277
a(I3
I4
tp3278
a(I3
I5
tp3279
a(I4
I0
tp3280
a(I4
I1
tp3281
a(I4
I2
tp3282
a(I4
I3
tp3283
a(I4
I4
tp3284
a(I4
I5
tp3285
a(I4
I6
tp3286
a(I4
I7
tp3287
a(I5
I0
tp3288
a(I6
I0
tp3289
a(I8
I0
tp3290
a(I8
I1
tp3291
a(I8
I2
tp3292
a(I8
I3
tp3293
a(I8
I4
tp3294
a(I8
I5
tp3295
a(I9
I0
tp3296
a(I9
I1
tp3297
a(I9
I2
tp3298
a(I9
I3
tp3299
a(I9
I4
tp3300
a(I9
I5
tp3301
a(I10
I0
tp3302
a(I11
I0
tp3303
a(I11
I1
tp3304
a(I12
I0
tp3305
a(I13
I0
tp3306
a(I13
I1
tp3307
a(I13
I2
tp3308
a(I13
I3
tp3309
a(I13
I4
tp3310
a(I13
I5
tp3311
a(I14
I0
tp3312
a(I15
I0
tp3313
a(I16
I0
tp3314
a(I16
I1
tp3315
a(I16
I2
tp3316
a(I16
I3
tp3317
a(I16
I4
tp3318
a(I16
I5
tp3319
a(I17
I0
tp3320
a(I18
I0
tp3321
a(I18
I1
tp3322
a(I18
I2
tp3323
a(I18
I3
tp3324
a(I18
I4
tp3325
a(I18
I5
tp3326
a(I19
I0
tp3327
a(I20
I0
tp3328
a(I20
I1
tp3329
a(I20
I2
tp3330
a(I20
I3
tp3331
a(I20
I4
tp3332
a(I20
I5
tp3333
a(I21
I0
tp3334
a(I22
I0
tp3335
a(I23
I0
tp3336
a(I24
I0
tp3337
a(I24
I1
tp3338
a(I24
I2
tp3339
a(I24
I3
tp3340
a(I24
I4
tp3341
a(I24
I5
tp3342
a(I25
I0
tp3343
a(I25
I1
tp3344
a(I25
I2
tp3345
a(I25
I3
tp3346
a(I25
I4
tp3347
a(I25
I5
tp3348
a(I26
I0
tp3349
a(I26
I1
tp3350
a(I26
I2
tp3351
a(I26
I3
tp3352
a(I26
I4
tp3353
a(I26
I5
tp3354
a(I27
I0
tp3355
a(I27
I1
tp3356
a(I27
I2
tp3357
a(I27
I3
tp3358
a(I27
I4
tp3359
a(I27
I5
tp3360
a(I28
I0
tp3361
a(I29
I0
tp3362
a(I30
I0
tp3363
a(I31
I0
tp3364
a(I32
I0
tp3365
a(I33
I0
tp3366
a(I33
I1
tp3367
a(I33
I2
tp3368
a(I33
I3
tp3369
a(I33
I4
tp3370
a(I33
I5
tp3371
a(I34
I0
tp3372
a(I34
I1
tp3373
a(I34
I2
tp3374
a(I34
I3
tp3375
a(I34
I4
tp3376
a(I34
I5
tp3377
a(I35
I0
tp3378
a(I35
I1
tp3379
a(I35
I2
tp3380
a(I35
I3
tp3381
a(I35
I4
tp3382
a(I35
I5
tp3383
a(I36
I0
tp3384
a(I36
I1
tp3385
a(I36
I2
tp3386
a(I36
I3
tp3387
a(I36
I4
tp3388
a(I36
I5
tp3389
a(I37
I0
tp3390
a(I38
I0
tp3391
a(I39
I0
tp3392
a(I40
I0
tp3393
a(I41
I0
tp3394
a(I41
I1
tp3395
a(I41
I2
tp3396
a(I41
I3
tp3397
a(I41
I4
tp3398
a(I41
I5
tp3399
a(I42
I0
tp3400
a(I42
I1
tp3401
a(I42
I2
tp3402
a(I42
I3
tp3403
a(I42
I4
tp3404
a(I42
I5
tp3405
a(I43
I0
tp3406
a(I43
I1
tp3407
a(I43
I2
tp3408
a(I43
I3
tp3409
a(I43
I4
tp3410
a(I43
I5
tp3411
a(I44
I0
tp3412
a(I44
I1
tp3413
a(I44
I2
tp3414
a(I44
I3
tp3415
a(I44
I4
tp3416
a(I44
I5
tp3417
a(I45
I0
tp3418
a(I45
I1
tp3419
a(I45
I2
tp3420
a(I45
I3
tp3421
a(I45
I4
tp3422
a(I45
I5
tp3423
a(I45
I6
tp3424
a(I45
I7
tp3425
a(I46
I0
tp3426
a(I46
I1
tp3427
a(I46
I2
tp3428
a(I46
I3
tp3429
a(I46
I4
tp3430
a(I46
I5
tp3431
a(I46
I6
tp3432
a(I46
I7
tp3433
a(I47
I0
tp3434
a(I47
I1
tp3435
a(I47
I2
tp3436
a(I47
I3
tp3437
a(I47
I4
tp3438
a(I47
I5
tp3439
a(I47
I6
tp3440
a(I47
I7
tp3441
a(I48
I0
tp3442
a(I48
I1
tp3443
a(I48
I2
tp3444
a(I48
I3
tp3445
a(I48
I4
tp3446
a(I48
I5
tp3447
a(I48
I6
tp3448
a(I48
I7
tp3449
a(I49
I0
tp3450
a(I49
I1
tp3451
a(I49
I2
tp3452
a(I49
I3
tp3453
a(I49
I4
tp3454
a(I49
I5
tp3455
a(I49
I6
tp3456
a(I50
I0
tp3457
a(I52
I0
tp3458
a(I52
I1
tp3459
a(I52
I2
tp3460
a(I52
I3
tp3461
a(I52
I4
tp3462
a(I52
I5
tp3463
a(I53
I0
tp3464
a(I53
I1
tp3465
a(I53
I2
tp3466
a(I53
I3
tp3467
a(I53
I4
tp3468
a(I53
I5
tp3469
a(I53
I6
tp3470
a(I53
I7
tp3471
a(I54
I0
tp3472
a(I55
I0
tp3473
a(I57
I0
tp3474
a(I57
I1
tp3475
a(I57
I2
tp3476
a(I57
I3
tp3477
a(I57
I4
tp3478
a(I57
I5
tp3479
a(I58
I0
tp3480
a(I58
I1
tp3481
a(I58
I2
tp3482
a(I58
I3
tp3483
a(I58
I4
tp3484
a(I58
I5
tp3485
a(I58
I6
tp3486
a(I58
I7
tp3487
a(I59
I0
tp3488
assbsS'checksums'
p3489
S'54810  3399\n'
p3490
s.