(dp0
S'content'
p1
(imystruct
Struct
p2
(dp3
S'omitmicro'
p4
(lp5
sS'omit_one'
p6
(dp7
S'aligned'
p8
(lp9
sS'three'
p10
(lp11
sS'one'
p12
(lp13
ssS'prefix'
p14
(dp15
g8
(lp16
(I0
I0
tp17
a(I1
I0
tp18
a(I3
I2
tp19
a(I3
I5
tp20
a(I4
I7
tp21
a(I5
I0
tp22
a(I6
I0
tp23
a(I8
I2
tp24
a(I8
I5
tp25
a(I9
I5
tp26
a(I10
I0
tp27
a(I11
I1
tp28
a(I12
I0
tp29
a(I13
I2
tp30
a(I13
I5
tp31
a(I14
I0
tp32
a(I15
I0
tp33
a(I16
I2
tp34
a(I16
I5
tp35
a(I17
I0
tp36
a(I18
I2
tp37
a(I18
I5
tp38
a(I19
I0
tp39
a(I20
I2
tp40
a(I20
I5
tp41
a(I21
I0
tp42
a(I22
I0
tp43
a(I23
I0
tp44
a(I24
I2
tp45
a(I24
I5
tp46
a(I25
I2
tp47
a(I25
I5
tp48
a(I26
I2
tp49
a(I26
I5
tp50
a(I26
I8
tp51
a(I26
I11
tp52
a(I26
I14
tp53
a(I26
I17
tp54
a(I26
I20
tp55
a(I26
I23
tp56
a(I27
I2
tp57
a(I27
I5
tp58
a(I28
I0
tp59
a(I29
I0
tp60
a(I30
I0
tp61
a(I31
I0
tp62
a(I32
I0
tp63
a(I33
I2
tp64
a(I33
I5
tp65
a(I34
I2
tp66
a(I34
I5
tp67
a(I35
I2
tp68
a(I35
I5
tp69
a(I35
I8
tp70
a(I35
I11
tp71
a(I35
I14
tp72
a(I35
I17
tp73
a(I35
I20
tp74
a(I35
I23
tp75
a(I36
I2
tp76
a(I36
I5
tp77
a(I37
I0
tp78
a(I38
I0
tp79
a(I39
I0
tp80
a(I40
I0
tp81
a(I41
I2
tp82
a(I41
I5
tp83
a(I42
I2
tp84
a(I42
I5
tp85
a(I43
I2
tp86
a(I43
I5
tp87
a(I44
I2
tp88
a(I44
I5
tp89
a(I45
I7
tp90
a(I46
I7
tp91
a(I47
I7
tp92
a(I48
I7
tp93
a(I49
I6
tp94
a(I50
I0
tp95
a(I52
I2
tp96
a(I52
I5
tp97
a(I53
I7
tp98
a(I54
I0
tp99
a(I55
I0
tp100
a(I57
I2
tp101
a(I57
I5
tp102
a(I58
I7
tp103
a(I59
I0
tp104
asg10
(lp105
(I0
I0
tp106
a(I1
I0
tp107
a(I3
I17
tp108
a(I4
I9
tp109
a(I5
I0
tp110
a(I6
I0
tp111
a(I8
I17
tp112
a(I9
I5
tp113
a(I10
I0
tp114
a(I11
I3
tp115
a(I12
I0
tp116
a(I13
I17
tp117
a(I14
I0
tp118
a(I15
I0
tp119
a(I16
I17
tp120
a(I17
I0
tp121
a(I18
I17
tp122
a(I19
I0
tp123
a(I20
I17
tp124
a(I21
I0
tp125
a(I22
I0
tp126
a(I23
I0
tp127
a(I24
I17
tp128
a(I25
I17
tp129
a(I26
I17
tp130
a(I27
I17
tp131
a(I28
I0
tp132
a(I29
I0
tp133
a(I30
I0
tp134
a(I31
I0
tp135
a(I32
I0
tp136
a(I33
I17
tp137
a(I34
I17
tp138
a(I35
I17
tp139
a(I36
I17
tp140
a(I37
I0
tp141
a(I38
I0
tp142
a(I39
I0
tp143
a(I40
I0
tp144
a(I41
I17
tp145
a(I42
I17
tp146
a(I43
I17
tp147
a(I44
I17
tp148
a(I45
I9
tp149
a(I46
I9
tp150
a(I47
I9
tp151
a(I48
I9
tp152
a(I49
I6
tp153
a(I50
I0
tp154
a(I52
I17
tp155
a(I53
I9
tp156
a(I54
I0
tp157
a(I55
I0
tp158
a(I57
I17
tp159
a(I58
I9
tp160
a(I59
I0
tp161
asg12
(lp162
(I0
I0
tp163
a(I1
I0
tp164
a(I3
I5
tp165
a(I4
I7
tp166
a(I5
I0
tp167
a(I6
I0
tp168
a(I8
I5
tp169
a(I9
I5
tp170
a(I10
I0
tp171
a(I11
I1
tp172
a(I12
I0
tp173
a(I13
I5
tp174
a(I14
I0
tp175
a(I15
I0
tp176
a(I16
I5
tp177
a(I17
I0
tp178
a(I18
I5
tp179
a(I19
I0
tp180
a(I20
I5
tp181
a(I21
I0
tp182
a(I22
I0
tp183
a(I23
I0
tp184
a(I24
I5
tp185
a(I25
I5
tp186
a(I26
I5
tp187
a(I27
I5
tp188
a(I28
I0
tp189
a(I29
I0
tp190
a(I30
I0
tp191
a(I31
I0
tp192
a(I32
I0
tp193
a(I33
I5
tp194
a(I34
I5
tp195
a(I35
I5
tp196
a(I36
I5
tp197
a(I37
I0
tp198
a(I38
I0
tp199
a(I39
I0
tp200
a(I40
I0
tp201
a(I41
I5
tp202
a(I42
I5
tp203
a(I43
I5
tp204
a(I44
I5
tp205
a(I45
I7
tp206
a(I46
I7
tp207
a(I47
I7
tp208
a(I48
I7
tp209
a(I49
I6
tp210
a(I50
I0
tp211
a(I52
I5
tp212
a(I53
I7
tp213
a(I54
I0
tp214
a(I55
I0
tp215
a(I57
I5
tp216
a(I58
I7
tp217
a(I59
I0
tp218
assbsS'checksums'
p219
S'54810  3399\n'
p220
s.