(dp0
S'content'
p1
(imystruct
Struct
p2
(dp3
S'omitmicro'
p4
(lp5
(I0
I1
tp6
a(I0
I3
tp7
a(I0
I4
tp8
a(I0
I5
tp9
a(I0
I6
tp10
a(I0
I8
tp11
a(I0
I9
tp12
a(I0
I10
tp13
a(I0
I11
tp14
a(I0
I12
tp15
a(I0
I13
tp16
a(I0
I14
tp17
a(I0
I15
tp18
a(I0
I16
tp19
a(I0
I17
tp20
a(I0
I18
tp21
a(I0
I19
tp22
a(I0
I20
tp23
a(I0
I21
tp24
a(I0
I22
tp25
a(I0
I23
tp26
a(I0
I24
tp27
a(I0
I25
tp28
a(I0
I26
tp29
a(I0
I27
tp30
a(I0
I28
tp31
a(I0
I29
tp32
a(I0
I30
tp33
a(I0
I31
tp34
a(I0
I32
tp35
a(I0
I33
tp36
a(I0
I34
tp37
a(I0
I35
tp38
a(I0
I36
tp39
a(I0
I37
tp40
a(I0
I38
tp41
a(I0
I39
tp42
a(I0
I40
tp43
a(I0
I41
tp44
a(I0
I42
tp45
a(I0
I43
tp46
a(I0
I44
tp47
a(I0
I45
tp48
a(I0
I46
tp49
a(I0
I47
tp50
a(I0
I48
tp51
a(I0
I49
tp52
a(I0
I50
tp53
a(I0
I52
tp54
a(I0
I53
tp55
a(I0
I54
tp56
a(I0
I55
tp57
a(I0
I57
tp58
a(I0
I58
tp59
a(I0
I59
tp60
a(I4
I5
tp61
a(I4
I6
tp62
a(I4
I8
tp63
a(I4
I9
tp64
a(I4
I10
tp65
a(I4
I11
tp66
a(I4
I12
tp67
a(I4
I13
tp68
a(I4
I14
tp69
a(I4
I15
tp70
a(I4
I16
tp71
a(I4
I17
tp72
a(I4
I18
tp73
a(I4
I19
tp74
a(I4
I20
tp75
a(I4
I21
tp76
a(I4
I22
tp77
a(I4
I23
tp78
a(I4
I24
tp79
a(I4
I25
tp80
a(I4
I26
tp81
a(I4
I27
tp82
a(I4
I28
tp83
a(I4
I29
tp84
a(I4
I30
tp85
a(I4
I31
tp86
a(I4
I32
tp87
a(I4
I33
tp88
a(I4
I34
tp89
a(I4
I35
tp90
a(I4
I36
tp91
a(I4
I37
tp92
a(I4
I38
tp93
a(I4
I39
tp94
a(I4
I40
tp95
a(I4
I41
tp96
a(I4
I42
tp97
a(I4
I43
tp98
a(I4
I44
tp99
a(I4
I45
tp100
a(I4
I46
tp101
a(I4
I47
tp102
a(I4
I48
tp103
a(I4
I49
tp104
a(I4
I50
tp105
a(I4
I52
tp106
a(I4
I53
tp107
a(I4
I54
tp108
a(I4
I55
tp109
a(I4
I57
tp110
a(I4
I58
tp111
a(I4
I59
tp112
a(I5
I6
tp113
a(I5
I8
tp114
a(I5
I9
tp115
a(I5
I10
tp116
a(I5
I11
tp117
a(I5
I12
tp118
a(I5
I13
tp119
a(I5
I14
tp120
a(I5
I15
tp121
a(I5
I16
tp122
a(I5
I17
tp123
a(I5
I18
tp124
a(I5
I19
tp125
a(I5
I20
tp126
a(I5
I21
tp127
a(I5
I22
tp128
a(I5
I23
tp129
a(I5
I24
tp130
a(I5
I25
tp131
a(I5
I26
tp132
a(I5
I27
tp133
a(I5
I28
tp134
a(I5
I29
tp135
a(I5
I30
tp136
a(I5
I31
tp137
a(I5
I32
tp138
a(I5
I33
tp139
a(I5
I34
tp140
a(I5
I35
tp141
a(I5
I36
tp142
a(I5
I37
tp143
a(I5
I38
tp144
a(I5
I39
tp145
a(I5
I40
tp146
a(I5
I41
tp147
a(I5
I42
tp148
a(I5
I43
tp149
a(I5
I44
tp150
a(I5
I45
tp151
a(I5
I46
tp152
a(I5
I47
tp153
a(I5
I48
tp154
a(I5
I49
tp155
a(I5
I50
tp156
a(I5
I52
tp157
a(I5
I53
tp158
a(I5
I54
tp159
a(I5
I55
tp160
a(I5
I57
tp161
a(I5
I58
tp162
a(I5
I59
tp163
a(I9
I10
tp164
a(I9
I11
tp165
a(I9
I12
tp166
a(I9
I13
tp167
a(I9
I14
tp168
a(I9
I15
tp169
a(I9
I16
tp170
a(I9
I17
tp171
a(I9
I18
tp172
a(I9
I19
tp173
a(I9
I20
tp174
a(I9
I21
tp175
a(I9
I22
tp176
a(I9
I23
tp177
a(I9
I24
tp178
a(I9
I25
tp179
a(I9
I26
tp180
a(I9
I27
tp181
a(I9
I28
tp182
a(I9
I29
tp183
a(I9
I30
tp184
a(I9
I31
tp185
a(I9
I32
tp186
a(I9
I33
tp187
a(I9
I34
tp188
a(I9
I35
tp189
a(I9
I36
tp190
a(I9
I37
tp191
a(I9
I38
tp192
a(I9
I39
tp193
a(I9
I40
tp194
a(I9
I41
tp195
a(I9
I42
tp196
a(I9
I43
tp197
a(I9
I44
tp198
a(I9
I45
tp199
a(I9
I46
tp200
a(I9
I47
tp201
a(I9
I48
tp202
a(I9
I49
tp203
a(I9
I50
tp204
a(I9
I52
tp205
a(I9
I53
tp206
a(I9
I54
tp207
a(I9
I55
tp208
a(I9
I57
tp209
a(I9
I58
tp210
a(I9
I59
tp211
a(I10
I11
tp212
a(I10
I12
tp213
a(I10
I13
tp214
a(I10
I14
tp215
a(I10
I15
tp216
a(I10
I16
tp217
a(I10
I17
tp218
a(I10
I18
tp219
a(I10
I19
tp220
a(I10
I20
tp221
a(I10
I21
tp222
a(I10
I22
tp223
a(I10
I23
tp224
a(I10
I24
tp225
a(I10
I25
tp226
a(I10
I26
tp227
a(I10
I27
tp228
a(I10
I28
tp229
a(I10
I29
tp230
a(I10
I30
tp231
a(I10
I31
tp232
a(I10
I32
tp233
a(I10
I33
tp234
a(I10
I34
tp235
a(I10
I35
tp236
a(I10
I36
tp237
a(I10
I37
tp238
a(I10
I38
tp239
a(I10
I39
tp240
a(I10
I40
tp241
a(I10
I41
tp242
a(I10
I42
tp243
a(I10
I43
tp244
a(I10
I44
tp245
a(I10
I45
tp246
a(I10
I46
tp247
a(I10
I47
tp248
a(I10
I48
tp249
a(I10
I49
tp250
a(I10
I50
tp251
a(I10
I52
tp252
a(I10
I53
tp253
a(I10
I54
tp254
a(I10
I55
tp255
a(I10
I57
tp256
a(I10
I58
tp257
a(I10
I59
tp258
a(I11
I12
tp259
a(I11
I13
tp260
a(I11
I14
tp261
a(I11
I15
tp262
a(I11
I16
tp263
a(I11
I17
tp264
a(I11
I18
tp265
a(I11
I19
tp266
a(I11
I20
tp267
a(I11
I21
tp268
a(I11
I22
tp269
a(I11
I23
tp270
a(I11
I24
tp271
a(I11
I25
tp272
a(I11
I26
tp273
a(I11
I27
tp274
a(I11
I28
tp275
a(I11
I29
tp276
a(I11
I30
tp277
a(I11
I31
tp278
a(I11
I32
tp279
a(I11
I33
tp280
a(I11
I34
tp281
a(I11
I35
tp282
a(I11
I36
tp283
a(I11
I37
tp284
a(I11
I38
tp285
a(I11
I39
tp286
a(I11
I40
tp287
a(I11
I41
tp288
a(I11
I42
tp289
a(I11
I43
tp290
a(I11
I44
tp291
a(I11
I45
tp292
a(I11
I46
tp293
a(I11
I47
tp294
a(I11
I48
tp295
a(I11
I49
tp296
a(I11
I50
tp297
a(I11
I52
tp298
a(I11
I53
tp299
a(I11
I54
tp300
a(I11
I55
tp301
a(I11
I57
tp302
a(I11
I58
tp303
a(I11
I59
tp304
a(I13
I14
tp305
a(I13
I15
tp306
a(I13
I16
tp307
a(I13
I17
tp308
a(I13
I18
tp309
a(I13
I19
tp310
a(I13
I20
tp311
a(I13
I21
tp312
a(I13
I22
tp313
a(I13
I23
tp314
a(I13
I24
tp315
a(I13
I25
tp316
a(I13
I26
tp317
a(I13
I27
tp318
a(I13
I28
tp319
a(I13
I29
tp320
a(I13
I30
tp321
a(I13
I31
tp322
a(I13
I32
tp323
a(I13
I33
tp324
a(I13
I34
tp325
a(I13
I35
tp326
a(I13
I36
tp327
a(I13
I37
tp328
a(I13
I38
tp329
a(I13
I39
tp330
a(I13
I40
tp331
a(I13
I41
tp332
a(I13
I42
tp333
a(I13
I43
tp334
a(I13
I44
tp335
a(I13
I45
tp336
a(I13
I46
tp337
a(I13
I47
tp338
a(I13
I48
tp339
a(I13
I49
tp340
a(I13
I50
tp341
a(I13
I52
tp342
a(I13
I53
tp343
a(I13
I54
tp344
a(I13
I55
tp345
a(I13
I57
tp346
a(I13
I58
tp347
a(I13
I59
tp348
a(I14
I15
tp349
a(I14
I16
tp350
a(I14
I17
tp351
a(I14
I18
tp352
a(I14
I19
tp353
a(I14
I20
tp354
a(I14
I21
tp355
a(I14
I22
tp356
a(I14
I23
tp357
a(I14
I24
tp358
a(I14
I25
tp359
a(I14
I26
tp360
a(I14
I27
tp361
a(I14
I28
tp362
a(I14
I29
tp363
a(I14
I30
tp364
a(I14
I31
tp365
a(I14
I32
tp366
a(I14
I33
tp367
a(I14
I34
tp368
a(I14
I35
tp369
a(I14
I36
tp370
a(I14
I37
tp371
a(I14
I38
tp372
a(I14
I39
tp373
a(I14
I40
tp374
a(I14
I41
tp375
a(I14
I42
tp376
a(I14
I43
tp377
a(I14
I44
tp378
a(I14
I45
tp379
a(I14
I46
tp380
a(I14
I47
tp381
a(I14
I48
tp382
a(I14
I49
tp383
a(I14
I50
tp384
a(I14
I52
tp385
a(I14
I53
tp386
a(I14
I54
tp387
a(I14
I55
tp388
a(I14
I57
tp389
a(I14
I58
tp390
a(I14
I59
tp391
a(I16
I17
tp392
a(I16
I18
tp393
a(I16
I19
tp394
a(I16
I20
tp395
a(I16
I21
tp396
a(I16
I22
tp397
a(I16
I23
tp398
a(I16
I24
tp399
a(I16
I25
tp400
a(I16
I26
tp401
a(I16
I27
tp402
a(I16
I28
tp403
a(I16
I29
tp404
a(I16
I30
tp405
a(I16
I31
tp406
a(I16
I32
tp407
a(I16
I33
tp408
a(I16
I34
tp409
a(I16
I35
tp410
a(I16
I36
tp411
a(I16
I37
tp412
a(I16
I38
tp413
a(I16
I39
tp414
a(I16
I40
tp415
a(I16
I41
tp416
a(I16
I42
tp417
a(I16
I43
tp418
a(I16
I44
tp419
a(I16
I45
tp420
a(I18
I19
tp421
a(I18
I20
tp422
a(I18
I21
tp423
a(I18
I22
tp424
a(I18
I23
tp425
a(I18
I24
tp426
a(I18
I25
tp427
a(I18
I26
tp428
a(I18
I27
tp429
a(I18
I28
tp430
a(I18
I29
tp431
a(I18
I30
tp432
a(I18
I31
tp433
a(I18
I32
tp434
a(I18
I33
tp435
a(I18
I34
tp436
a(I18
I35
tp437
a(I18
I36
tp438
a(I18
I37
tp439
a(I18
I38
tp440
a(I18
I39
tp441
a(I18
I40
tp442
a(I18
I41
tp443
a(I18
I42
tp444
a(I18
I43
tp445
a(I18
I44
tp446
a(I18
I45
tp447
a(I18
I46
tp448
a(I20
I21
tp449
a(I20
I22
tp450
a(I20
I23
tp451
a(I20
I24
tp452
a(I20
I25
tp453
a(I20
I26
tp454
a(I20
I27
tp455
a(I20
I28
tp456
a(I20
I29
tp457
a(I20
I30
tp458
a(I20
I31
tp459
a(I20
I32
tp460
a(I20
I33
tp461
a(I20
I34
tp462
a(I20
I35
tp463
a(I20
I36
tp464
a(I20
I37
tp465
a(I20
I38
tp466
a(I20
I39
tp467
a(I20
I40
tp468
a(I20
I41
tp469
a(I20
I42
tp470
a(I20
I43
tp471
a(I20
I44
tp472
a(I20
I45
tp473
a(I20
I46
tp474
a(I20
I47
tp475
a(I21
I22
tp476
a(I21
I23
tp477
a(I21
I24
tp478
a(I21
I25
tp479
a(I21
I26
tp480
a(I21
I27
tp481
a(I21
I28
tp482
a(I21
I29
tp483
a(I21
I30
tp484
a(I21
I31
tp485
a(I21
I32
tp486
a(I21
I33
tp487
a(I21
I34
tp488
a(I21
I35
tp489
a(I21
I36
tp490
a(I21
I37
tp491
a(I21
I38
tp492
a(I21
I39
tp493
a(I21
I40
tp494
a(I21
I41
tp495
a(I21
I42
tp496
a(I21
I43
tp497
a(I21
I44
tp498
a(I21
I45
tp499
a(I21
I46
tp500
a(I21
I47
tp501
a(I21
I48
tp502
a(I21
I49
tp503
a(I21
I50
tp504
a(I21
I52
tp505
a(I21
I53
tp506
a(I21
I54
tp507
a(I21
I55
tp508
a(I21
I57
tp509
a(I21
I58
tp510
a(I21
I59
tp511
a(I22
I23
tp512
a(I23
I24
tp513
a(I24
I25
tp514
a(I24
I26
tp515
a(I24
I27
tp516
a(I24
I28
tp517
a(I24
I29
tp518
a(I24
I30
tp519
a(I24
I31
tp520
a(I24
I32
tp521
a(I24
I33
tp522
a(I24
I34
tp523
a(I24
I35
tp524
a(I24
I36
tp525
a(I24
I37
tp526
a(I24
I38
tp527
a(I24
I39
tp528
a(I24
I40
tp529
a(I24
I41
tp530
a(I24
I42
tp531
a(I24
I43
tp532
a(I24
I44
tp533
a(I25
I26
tp534
a(I25
I27
tp535
a(I25
I28
tp536
a(I25
I29
tp537
a(I25
I30
tp538
a(I25
I31
tp539
a(I25
I32
tp540
a(I25
I33
tp541
a(I25
I34
tp542
a(I25
I35
tp543
a(I25
I36
tp544
a(I25
I37
tp545
a(I25
I38
tp546
a(I25
I39
tp547
a(I25
I40
tp548
a(I25
I41
tp549
a(I25
I42
tp550
a(I25
I43
tp551
a(I25
I44
tp552
a(I25
I45
tp553
a(I25
I46
tp554
a(I25
I47
tp555
a(I25
I48
tp556
a(I25
I49
tp557
a(I25
I50
tp558
a(I25
I52
tp559
a(I25
I53
tp560
a(I25
I54
tp561
a(I25
I55
tp562
a(I25
I57
tp563
a(I25
I58
tp564
a(I25
I59
tp565
a(I26
I27
tp566
a(I26
I28
tp567
a(I26
I29
tp568
a(I26
I30
tp569
a(I26
I31
tp570
a(I26
I32
tp571
a(I26
I33
tp572
a(I26
I34
tp573
a(I26
I35
tp574
a(I26
I36
tp575
a(I26
I37
tp576
a(I26
I38
tp577
a(I26
I39
tp578
a(I26
I40
tp579
a(I26
I41
tp580
a(I26
I42
tp581
a(I26
I43
tp582
a(I26
I44
tp583
a(I26
I45
tp584
a(I26
I46
tp585
a(I26
I47
tp586
a(I26
I48
tp587
a(I26
I49
tp588
a(I26
I50
tp589
a(I26
I52
tp590
a(I26
I53
tp591
a(I26
I54
tp592
a(I26
I55
tp593
a(I26
I57
tp594
a(I26
I58
tp595
a(I26
I59
tp596
a(I27
I28
tp597
a(I27
I29
tp598
a(I27
I30
tp599
a(I27
I31
tp600
a(I27
I32
tp601
a(I27
I33
tp602
a(I27
I34
tp603
a(I27
I35
tp604
a(I27
I36
tp605
a(I27
I37
tp606
a(I27
I38
tp607
a(I27
I39
tp608
a(I27
I40
tp609
a(I27
I41
tp610
a(I27
I42
tp611
a(I27
I43
tp612
a(I27
I44
tp613
a(I27
I45
tp614
a(I27
I46
tp615
a(I27
I47
tp616
a(I27
I48
tp617
a(I27
I49
tp618
a(I27
I50
tp619
a(I27
I52
tp620
a(I27
I53
tp621
a(I27
I54
tp622
a(I27
I55
tp623
a(I27
I57
tp624
a(I27
I58
tp625
a(I27
I59
tp626
a(I28
I29
tp627
a(I28
I30
tp628
a(I28
I31
tp629
a(I28
I32
tp630
a(I28
I33
tp631
a(I28
I34
tp632
a(I28
I35
tp633
a(I28
I36
tp634
a(I28
I37
tp635
a(I28
I38
tp636
a(I28
I39
tp637
a(I28
I40
tp638
a(I28
I41
tp639
a(I28
I42
tp640
a(I28
I43
tp641
a(I28
I44
tp642
a(I28
I45
tp643
a(I28
I46
tp644
a(I28
I47
tp645
a(I28
I48
tp646
a(I28
I49
tp647
a(I28
I50
tp648
a(I28
I52
tp649
a(I28
I53
tp650
a(I28
I54
tp651
a(I28
I55
tp652
a(I28
I57
tp653
a(I28
I58
tp654
a(I28
I59
tp655
a(I29
I30
tp656
a(I29
I31
tp657
a(I29
I32
tp658
a(I29
I33
tp659
a(I29
I34
tp660
a(I29
I35
tp661
a(I29
I36
tp662
a(I29
I37
tp663
a(I29
I38
tp664
a(I29
I39
tp665
a(I29
I40
tp666
a(I29
I41
tp667
a(I29
I42
tp668
a(I29
I43
tp669
a(I29
I44
tp670
a(I29
I45
tp671
a(I29
I46
tp672
a(I29
I47
tp673
a(I29
I48
tp674
a(I29
I49
tp675
a(I29
I50
tp676
a(I29
I52
tp677
a(I29
I53
tp678
a(I29
I54
tp679
a(I29
I55
tp680
a(I29
I57
tp681
a(I29
I58
tp682
a(I29
I59
tp683
a(I30
I31
tp684
a(I30
I32
tp685
a(I30
I33
tp686
a(I30
I34
tp687
a(I30
I35
tp688
a(I30
I36
tp689
a(I30
I37
tp690
a(I30
I38
tp691
a(I30
I39
tp692
a(I30
I40
tp693
a(I30
I41
tp694
a(I30
I42
tp695
a(I30
I43
tp696
a(I30
I44
tp697
a(I30
I45
tp698
a(I30
I46
tp699
a(I30
I47
tp700
a(I30
I48
tp701
a(I30
I49
tp702
a(I30
I50
tp703
a(I30
I52
tp704
a(I30
I53
tp705
a(I30
I54
tp706
a(I30
I55
tp707
a(I30
I57
tp708
a(I30
I58
tp709
a(I30
I59
tp710
a(I31
I32
tp711
a(I31
I33
tp712
a(I31
I34
tp713
a(I31
I35
tp714
a(I31
I36
tp715
a(I31
I37
tp716
a(I31
I38
tp717
a(I31
I39
tp718
a(I31
I40
tp719
a(I31
I41
tp720
a(I31
I42
tp721
a(I31
I43
tp722
a(I31
I44
tp723
a(I31
I45
tp724
a(I31
I46
tp725
a(I31
I47
tp726
a(I31
I48
tp727
a(I31
I49
tp728
a(I31
I50
tp729
a(I31
I52
tp730
a(I31
I53
tp731
a(I31
I54
tp732
a(I31
I55
tp733
a(I31
I57
tp734
a(I31
I58
tp735
a(I31
I59
tp736
a(I32
I33
tp737
a(I33
I34
tp738
a(I33
I35
tp739
a(I33
I36
tp740
a(I33
I37
tp741
a(I33
I38
tp742
a(I33
I39
tp743
a(I33
I40
tp744
a(I33
I41
tp745
a(I33
I42
tp746
a(I33
I43
tp747
a(I33
I44
tp748
a(I34
I35
tp749
a(I34
I36
tp750
a(I34
I37
tp751
a(I34
I38
tp752
a(I34
I39
tp753
a(I34
I40
tp754
a(I34
I41
tp755
a(I34
I42
tp756
a(I34
I43
tp757
a(I34
I44
tp758
a(I34
I45
tp759
a(I34
I46
tp760
a(I34
I47
tp761
a(I34
I48
tp762
a(I34
I49
tp763
a(I34
I50
tp764
a(I34
I52
tp765
a(I34
I53
tp766
a(I34
I54
tp767
a(I34
I55
tp768
a(I34
I57
tp769
a(I34
I58
tp770
a(I34
I59
tp771
a(I35
I36
tp772
a(I35
I37
tp773
a(I35
I38
tp774
a(I35
I39
tp775
a(I35
I40
tp776
a(I35
I41
tp777
a(I35
I42
tp778
a(I35
I43
tp779
a(I35
I44
tp780
a(I35
I45
tp781
a(I35
I46
tp782
a(I35
I47
tp783
a(I35
I48
tp784
a(I35
I49
tp785
a(I35
I50
tp786
a(I35
I52
tp787
a(I35
I53
tp788
a(I35
I54
tp789
a(I35
I55
tp790
a(I35
I57
tp791
a(I35
I58
tp792
a(I35
I59
tp793
a(I36
I37
tp794
a(I36
I38
tp795
a(I36
I39
tp796
a(I36
I40
tp797
a(I36
I41
tp798
a(I36
I42
tp799
a(I36
I43
tp800
a(I36
I44
tp801
a(I36
I45
tp802
a(I36
I46
tp803
a(I36
I47
tp804
a(I36
I48
tp805
a(I36
I49
tp806
a(I36
I50
tp807
a(I36
I52
tp808
a(I36
I53
tp809
a(I36
I54
tp810
a(I36
I55
tp811
a(I36
I57
tp812
a(I36
I58
tp813
a(I36
I59
tp814
a(I37
I38
tp815
a(I37
I39
tp816
a(I37
I40
tp817
a(I37
I41
tp818
a(I37
I42
tp819
a(I37
I43
tp820
a(I37
I44
tp821
a(I37
I45
tp822
a(I37
I46
tp823
a(I37
I47
tp824
a(I37
I48
tp825
a(I37
I49
tp826
a(I37
I50
tp827
a(I37
I52
tp828
a(I37
I53
tp829
a(I37
I54
tp830
a(I37
I55
tp831
a(I37
I57
tp832
a(I37
I58
tp833
a(I37
I59
tp834
a(I38
I39
tp835
a(I38
I40
tp836
a(I38
I41
tp837
a(I38
I42
tp838
a(I38
I43
tp839
a(I38
I44
tp840
a(I38
I45
tp841
a(I38
I46
tp842
a(I38
I47
tp843
a(I38
I48
tp844
a(I38
I49
tp845
a(I38
I50
tp846
a(I38
I52
tp847
a(I38
I53
tp848
a(I38
I54
tp849
a(I38
I55
tp850
a(I38
I57
tp851
a(I38
I58
tp852
a(I38
I59
tp853
a(I39
I40
tp854
a(I39
I41
tp855
a(I39
I42
tp856
a(I39
I43
tp857
a(I39
I44
tp858
a(I39
I45
tp859
a(I39
I46
tp860
a(I39
I47
tp861
a(I39
I48
tp862
a(I39
I49
tp863
a(I39
I50
tp864
a(I39
I52
tp865
a(I39
I53
tp866
a(I39
I54
tp867
a(I39
I55
tp868
a(I39
I57
tp869
a(I39
I58
tp870
a(I39
I59
tp871
a(I40
I41
tp872
a(I40
I42
tp873
a(I40
I43
tp874
a(I40
I44
tp875
a(I40
I45
tp876
a(I40
I46
tp877
a(I40
I47
tp878
a(I40
I48
tp879
a(I40
I49
tp880
a(I40
I50
tp881
a(I40
I52
tp882
a(I40
I53
tp883
a(I40
I54
tp884
a(I40
I55
tp885
a(I40
I57
tp886
a(I40
I58
tp887
a(I40
I59
tp888
a(I41
I42
tp889
a(I41
I43
tp890
a(I41
I44
tp891
a(I42
I43
tp892
a(I42
I44
tp893
a(I42
I45
tp894
a(I42
I46
tp895
a(I42
I47
tp896
a(I42
I48
tp897
a(I42
I49
tp898
a(I42
I50
tp899
a(I42
I52
tp900
a(I42
I53
tp901
a(I42
I54
tp902
a(I42
I55
tp903
a(I42
I57
tp904
a(I42
I58
tp905
a(I42
I59
tp906
a(I43
I44
tp907
a(I44
I45
tp908
a(I44
I46
tp909
a(I44
I47
tp910
a(I44
I48
tp911
a(I44
I49
tp912
a(I44
I50
tp913
a(I44
I52
tp914
a(I44
I53
tp915
a(I44
I54
tp916
a(I44
I55
tp917
a(I44
I57
tp918
a(I44
I58
tp919
a(I44
I59
tp920
a(I45
I46
tp921
a(I45
I47
tp922
a(I45
I48
tp923
a(I45
I49
tp924
a(I45
I50
tp925
a(I45
I52
tp926
a(I45
I53
tp927
a(I45
I54
tp928
a(I45
I55
tp929
a(I45
I57
tp930
a(I45
I58
tp931
a(I45
I59
tp932
a(I46
I47
tp933
a(I46
I48
tp934
a(I46
I49
tp935
a(I46
I50
tp936
a(I46
I52
tp937
a(I46
I53
tp938
a(I46
I54
tp939
a(I46
I55
tp940
a(I46
I57
tp941
a(I46
I58
tp942
a(I46
I59
tp943
a(I47
I48
tp944
a(I47
I49
tp945
a(I47
I50
tp946
a(I47
I52
tp947
a(I47
I53
tp948
a(I47
I54
tp949
a(I47
I55
tp950
a(I47
I57
tp951
a(I47
I58
tp952
a(I47
I59
tp953
a(I48
I49
tp954
a(I48
I50
tp955
a(I48
I52
tp956
a(I48
I53
tp957
a(I48
I54
tp958
a(I48
I55
tp959
a(I48
I57
tp960
a(I48
I58
tp961
a(I48
I59
tp962
a(I49
I50
tp963
a(I49
I52
tp964
a(I49
I53
tp965
a(I49
I54
tp966
a(I49
I55
tp967
a(I49
I57
tp968
a(I49
I58
tp969
a(I49
I59
tp970
a(I53
I54
tp971
a(I53
I55
tp972
a(I53
I57
tp973
a(I53
I58
tp974
a(I53
I59
tp975
a(I54
I55
tp976
a(I54
I57
tp977
a(I54
I58
tp978
a(I54
I59
tp979
a(I58
I59
tp980
asS'omit_one'
p981
(dp982
S'aligned'
p983
(lp984
sS'three'
p985
(lp986
sS'one'
p987
(lp988
ssS'prefix'
p989
(dp990
g983
(lp991
(I0
I0
tp992
a(I1
I0
tp993
a(I3
I2
tp994
a(I3
I5
tp995
a(I4
I7
tp996
a(I5
I0
tp997
a(I6
I0
tp998
a(I8
I2
tp999
a(I8
I5
tp1000
a(I9
I5
tp1001
a(I10
I0
tp1002
a(I11
I1
tp1003
a(I12
I0
tp1004
a(I13
I2
tp1005
a(I13
I5
tp1006
a(I14
I0
tp1007
a(I15
I0
tp1008
a(I16
I2
tp1009
a(I16
I5
tp1010
a(I17
I0
tp1011
a(I18
I2
tp1012
a(I18
I5
tp1013
a(I19
I0
tp1014
a(I20
I2
tp1015
a(I20
I5
tp1016
a(I21
I0
tp1017
a(I22
I0
tp1018
a(I23
I0
tp1019
a(I24
I2
tp1020
a(I24
I5
tp1021
a(I25
I2
tp1022
a(I25
I5
tp1023
a(I26
I2
tp1024
a(I26
I5
tp1025
a(I26
I8
tp1026
a(I26
I11
tp1027
a(I26
I14
tp1028
a(I26
I17
tp1029
a(I26
I20
tp1030
a(I26
I23
tp1031
a(I27
I2
tp1032
a(I27
I5
tp1033
a(I28
I0
tp1034
a(I29
I0
tp1035
a(I30
I0
tp1036
a(I31
I0
tp1037
a(I32
I0
tp1038
a(I33
I2
tp1039
a(I33
I5
tp1040
a(I34
I2
tp1041
a(I34
I5
tp1042
a(I35
I2
tp1043
a(I35
I5
tp1044
a(I35
I8
tp1045
a(I35
I11
tp1046
a(I35
I14
tp1047
a(I35
I17
tp1048
a(I35
I20
tp1049
a(I35
I23
tp1050
a(I36
I2
tp1051
a(I36
I5
tp1052
a(I37
I0
tp1053
a(I38
I0
tp1054
a(I39
I0
tp1055
a(I40
I0
tp1056
a(I41
I2
tp1057
a(I41
I5
tp1058
a(I42
I2
tp1059
a(I42
I5
tp1060
a(I43
I2
tp1061
a(I43
I5
tp1062
a(I44
I2
tp1063
a(I44
I5
tp1064
a(I45
I7
tp1065
a(I46
I7
tp1066
a(I47
I7
tp1067
a(I48
I7
tp1068
a(I49
I6
tp1069
a(I50
I0
tp1070
a(I52
I2
tp1071
a(I52
I5
tp1072
a(I53
I7
tp1073
a(I54
I0
tp1074
a(I55
I0
tp1075
a(I57
I2
tp1076
a(I57
I5
tp1077
a(I58
I7
tp1078
a(I59
I0
tp1079
asg985
(lp1080
(I0
I0
tp1081
a(I1
I0
tp1082
a(I3
I17
tp1083
a(I4
I9
tp1084
a(I5
I0
tp1085
a(I6
I0
tp1086
a(I8
I17
tp1087
a(I9
I5
tp1088
a(I10
I0
tp1089
a(I11
I3
tp1090
a(I12
I0
tp1091
a(I13
I17
tp1092
a(I14
I0
tp1093
a(I15
I0
tp1094
a(I16
I17
tp1095
a(I17
I0
tp1096
a(I18
I17
tp1097
a(I19
I0
tp1098
a(I20
I17
tp1099
a(I21
I0
tp1100
a(I22
I0
tp1101
a(I23
I0
tp1102
a(I24
I17
tp1103
a(I25
I17
tp1104
a(I26
I17
tp1105
a(I27
I17
tp1106
a(I28
I0
tp1107
a(I29
I0
tp1108
a(I30
I0
tp1109
a(I31
I0
tp1110
a(I32
I0
tp1111
a(I33
I17
tp1112
a(I34
I17
tp1113
a(I35
I17
tp1114
a(I36
I17
tp1115
a(I37
I0
tp1116
a(I38
I0
tp1117
a(I39
I0
tp1118
a(I40
I0
tp1119
a(I41
I17
tp1120
a(I42
I17
tp1121
a(I43
I17
tp1122
a(I44
I17
tp1123
a(I45
I9
tp1124
a(I46
I9
tp1125
a(I47
I9
tp1126
a(I48
I9
tp1127
a(I49
I6
tp1128
a(I50
I0
tp1129
a(I52
I17
tp1130
a(I53
I9
tp1131
a(I54
I0
tp1132
a(I55
I0
tp1133
a(I57
I17
tp1134
a(I58
I9
tp1135
a(I59
I0
tp1136
asg987
(lp1137
(I0
I0
tp1138
a(I1
I0
tp1139
a(I3
I5
tp1140
a(I4
I7
tp1141
a(I5
I0
tp1142
a(I6
I0
tp1143
a(I8
I5
tp1144
a(I9
I5
tp1145
a(I10
I0
tp1146
a(I11
I1
tp1147
a(I12
I0
tp1148
a(I13
I5
tp1149
a(I14
I0
tp1150
a(I15
I0
tp1151
a(I16
I5
tp1152
a(I17
I0
tp1153
a(I18
I5
tp1154
a(I19
I0
tp1155
a(I20
I5
tp1156
a(I21
I0
tp1157
a(I22
I0
tp1158
a(I23
I0
tp1159
a(I24
I5
tp1160
a(I25
I5
tp1161
a(I26
I5
tp1162
a(I27
I5
tp1163
a(I28
I0
tp1164
a(I29
I0
tp1165
a(I30
I0
tp1166
a(I31
I0
tp1167
a(I32
I0
tp1168
a(I33
I5
tp1169
a(I34
I5
tp1170
a(I35
I5
tp1171
a(I36
I5
tp1172
a(I37
I0
tp1173
a(I38
I0
tp1174
a(I39
I0
tp1175
a(I40
I0
tp1176
a(I41
I5
tp1177
a(I42
I5
tp1178
a(I43
I5
tp1179
a(I44
I5
tp1180
a(I45
I7
tp1181
a(I46
I7
tp1182
a(I47
I7
tp1183
a(I48
I7
tp1184
a(I49
I6
tp1185
a(I50
I0
tp1186
a(I52
I5
tp1187
a(I53
I7
tp1188
a(I54
I0
tp1189
a(I55
I0
tp1190
a(I57
I5
tp1191
a(I58
I7
tp1192
a(I59
I0
tp1193
assbsS'checksums'
p1194
S'54810  3399\n'
p1195
s.