(dp0
S'content'
p1
(imystruct
Struct
p2
(dp3
S'omitmicro'
p4
(lp5
(I1
I3
tp6
a(I3
I4
tp7
a(I3
I5
tp8
a(I3
I6
tp9
a(I3
I8
tp10
a(I3
I9
tp11
a(I3
I10
tp12
a(I3
I11
tp13
a(I3
I12
tp14
a(I3
I13
tp15
a(I3
I14
tp16
a(I3
I15
tp17
a(I3
I16
tp18
a(I3
I17
tp19
a(I3
I18
tp20
a(I3
I19
tp21
a(I3
I20
tp22
a(I3
I21
tp23
a(I3
I22
tp24
a(I3
I23
tp25
a(I3
I24
tp26
a(I3
I25
tp27
a(I3
I26
tp28
a(I3
I27
tp29
a(I3
I28
tp30
a(I3
I29
tp31
a(I3
I30
tp32
a(I3
I31
tp33
a(I3
I32
tp34
a(I3
I33
tp35
a(I3
I34
tp36
a(I3
I35
tp37
a(I3
I36
tp38
a(I3
I37
tp39
a(I3
I38
tp40
a(I3
I39
tp41
a(I3
I40
tp42
a(I3
I41
tp43
a(I3
I42
tp44
a(I3
I43
tp45
a(I3
I44
tp46
a(I3
I45
tp47
a(I3
I46
tp48
a(I3
I47
tp49
a(I3
I48
tp50
a(I3
I49
tp51
a(I3
I50
tp52
a(I3
I52
tp53
a(I3
I53
tp54
a(I3
I54
tp55
a(I3
I55
tp56
a(I3
I57
tp57
a(I3
I58
tp58
a(I3
I59
tp59
a(I6
I8
tp60
a(I8
I9
tp61
a(I8
I10
tp62
a(I8
I11
tp63
a(I8
I12
tp64
a(I8
I13
tp65
a(I8
I14
tp66
a(I8
I15
tp67
a(I8
I16
tp68
a(I8
I17
tp69
a(I8
I18
tp70
a(I8
I19
tp71
a(I8
I20
tp72
a(I8
I21
tp73
a(I8
I22
tp74
a(I8
I23
tp75
a(I8
I24
tp76
a(I8
I25
tp77
a(I8
I26
tp78
a(I8
I27
tp79
a(I8
I28
tp80
a(I8
I29
tp81
a(I8
I30
tp82
a(I8
I31
tp83
a(I8
I32
tp84
a(I8
I33
tp85
a(I8
I34
tp86
a(I8
I35
tp87
a(I8
I36
tp88
a(I8
I37
tp89
a(I8
I38
tp90
a(I8
I39
tp91
a(I8
I40
tp92
a(I8
I41
tp93
a(I8
I42
tp94
a(I8
I43
tp95
a(I8
I44
tp96
a(I8
I45
tp97
a(I8
I46
tp98
a(I8
I47
tp99
a(I8
I48
tp100
a(I8
I49
tp101
a(I8
I50
tp102
a(I8
I52
tp103
a(I8
I53
tp104
a(I8
I54
tp105
a(I8
I55
tp106
a(I8
I57
tp107
a(I8
I58
tp108
a(I8
I59
tp109
a(I12
I13
tp110
a(I13
I14
tp111
a(I13
I15
tp112
a(I13
I16
tp113
a(I13
I17
tp114
a(I13
I18
tp115
a(I13
I19
tp116
a(I13
I20
tp117
a(I13
I21
tp118
a(I13
I22
tp119
a(I13
I23
tp120
a(I13
I24
tp121
a(I13
I25
tp122
a(I13
I26
tp123
a(I13
I27
tp124
a(I13
I28
tp125
a(I13
I29
tp126
a(I13
I30
tp127
a(I13
I31
tp128
a(I13
I32
tp129
a(I13
I33
tp130
a(I13
I34
tp131
a(I13
I35
tp132
a(I13
I36
tp133
a(I13
I37
tp134
a(I13
I38
tp135
a(I13
I39
tp136
a(I13
I40
tp137
a(I13
I41
tp138
a(I13
I42
tp139
a(I13
I43
tp140
a(I13
I44
tp141
a(I13
I45
tp142
a(I13
I46
tp143
a(I13
I47
tp144
a(I13
I48
tp145
a(I13
I49
tp146
a(I13
I50
tp147
a(I13
I52
tp148
a(I13
I53
tp149
a(I13
I54
tp150
a(I13
I55
tp151
a(I13
I57
tp152
a(I13
I58
tp153
a(I13
I59
tp154
a(I15
I16
tp155
a(I16
I17
tp156
a(I16
I18
tp157
a(I16
I19
tp158
a(I16
I20
tp159
a(I16
I21
tp160
a(I16
I22
tp161
a(I16
I23
tp162
a(I16
I24
tp163
a(I16
I25
tp164
a(I16
I26
tp165
a(I16
I27
tp166
a(I16
I28
tp167
a(I16
I29
tp168
a(I16
I30
tp169
a(I16
I31
tp170
a(I16
I32
tp171
a(I16
I33
tp172
a(I16
I34
tp173
a(I16
I35
tp174
a(I16
I36
tp175
a(I16
I37
tp176
a(I16
I38
tp177
a(I16
I39
tp178
a(I16
I40
tp179
a(I16
I41
tp180
a(I16
I42
tp181
a(I16
I43
tp182
a(I16
I44
tp183
a(I16
I45
tp184
a(I16
I46
tp185
a(I16
I47
tp186
a(I16
I48
tp187
a(I16
I49
tp188
a(I16
I50
tp189
a(I16
I52
tp190
a(I16
I53
tp191
a(I16
I54
tp192
a(I16
I55
tp193
a(I16
I57
tp194
a(I16
I58
tp195
a(I16
I59
tp196
a(I17
I18
tp197
a(I18
I19
tp198
a(I18
I20
tp199
a(I18
I21
tp200
a(I18
I22
tp201
a(I18
I23
tp202
a(I18
I24
tp203
a(I18
I25
tp204
a(I18
I26
tp205
a(I18
I27
tp206
a(I18
I28
tp207
a(I18
I29
tp208
a(I18
I30
tp209
a(I18
I31
tp210
a(I18
I32
tp211
a(I18
I33
tp212
a(I18
I34
tp213
a(I18
I35
tp214
a(I18
I36
tp215
a(I18
I37
tp216
a(I18
I38
tp217
a(I18
I39
tp218
a(I18
I40
tp219
a(I18
I41
tp220
a(I18
I42
tp221
a(I18
I43
tp222
a(I18
I44
tp223
a(I18
I45
tp224
a(I18
I46
tp225
a(I18
I47
tp226
a(I18
I48
tp227
a(I18
I49
tp228
a(I18
I50
tp229
a(I18
I52
tp230
a(I18
I53
tp231
a(I18
I54
tp232
a(I18
I55
tp233
a(I18
I57
tp234
a(I18
I58
tp235
a(I18
I59
tp236
a(I19
I20
tp237
a(I20
I21
tp238
a(I20
I22
tp239
a(I20
I23
tp240
a(I20
I24
tp241
a(I20
I25
tp242
a(I20
I26
tp243
a(I20
I27
tp244
a(I20
I28
tp245
a(I20
I29
tp246
a(I20
I30
tp247
a(I20
I31
tp248
a(I20
I32
tp249
a(I20
I33
tp250
a(I20
I34
tp251
a(I20
I35
tp252
a(I20
I36
tp253
a(I20
I37
tp254
a(I20
I38
tp255
a(I20
I39
tp256
a(I20
I40
tp257
a(I20
I41
tp258
a(I20
I42
tp259
a(I20
I43
tp260
a(I20
I44
tp261
a(I20
I45
tp262
a(I20
I46
tp263
a(I20
I47
tp264
a(I20
I48
tp265
a(I20
I49
tp266
a(I20
I50
tp267
a(I20
I52
tp268
a(I20
I53
tp269
a(I20
I54
tp270
a(I20
I55
tp271
a(I20
I57
tp272
a(I20
I58
tp273
a(I20
I59
tp274
a(I23
I24
tp275
a(I23
I25
tp276
a(I23
I26
tp277
a(I23
I27
tp278
a(I24
I25
tp279
a(I24
I26
tp280
a(I24
I27
tp281
a(I24
I28
tp282
a(I24
I29
tp283
a(I24
I30
tp284
a(I24
I31
tp285
a(I24
I32
tp286
a(I27
I28
tp287
a(I27
I29
tp288
a(I27
I30
tp289
a(I27
I31
tp290
a(I27
I32
tp291
a(I27
I33
tp292
a(I27
I34
tp293
a(I27
I35
tp294
a(I27
I36
tp295
a(I27
I37
tp296
a(I27
I38
tp297
a(I27
I39
tp298
a(I27
I40
tp299
a(I27
I41
tp300
a(I27
I42
tp301
a(I27
I43
tp302
a(I27
I44
tp303
a(I27
I45
tp304
a(I27
I46
tp305
a(I27
I47
tp306
a(I27
I48
tp307
a(I27
I49
tp308
a(I27
I50
tp309
a(I27
I52
tp310
a(I27
I53
tp311
a(I27
I54
tp312
a(I27
I55
tp313
a(I27
I57
tp314
a(I27
I58
tp315
a(I27
I59
tp316
a(I32
I33
tp317
a(I32
I34
tp318
a(I32
I35
tp319
a(I32
I36
tp320
a(I33
I34
tp321
a(I33
I35
tp322
a(I33
I36
tp323
a(I33
I37
tp324
a(I33
I38
tp325
a(I33
I39
tp326
a(I33
I40
tp327
a(I36
I37
tp328
a(I36
I38
tp329
a(I36
I39
tp330
a(I36
I40
tp331
a(I36
I41
tp332
a(I36
I42
tp333
a(I36
I43
tp334
a(I36
I44
tp335
a(I36
I45
tp336
a(I36
I46
tp337
a(I36
I47
tp338
a(I36
I48
tp339
a(I36
I49
tp340
a(I36
I50
tp341
a(I36
I52
tp342
a(I36
I53
tp343
a(I36
I54
tp344
a(I36
I55
tp345
a(I36
I57
tp346
a(I36
I58
tp347
a(I36
I59
tp348
a(I40
I41
tp349
a(I40
I42
tp350
a(I40
I43
tp351
a(I40
I44
tp352
a(I41
I42
tp353
a(I42
I43
tp354
a(I42
I44
tp355
a(I42
I45
tp356
a(I42
I46
tp357
a(I42
I47
tp358
a(I42
I48
tp359
a(I42
I49
tp360
a(I42
I50
tp361
a(I42
I52
tp362
a(I42
I53
tp363
a(I42
I54
tp364
a(I42
I55
tp365
a(I42
I57
tp366
a(I42
I58
tp367
a(I42
I59
tp368
a(I43
I44
tp369
a(I43
I45
tp370
a(I43
I46
tp371
a(I43
I47
tp372
a(I43
I48
tp373
a(I43
I49
tp374
a(I43
I50
tp375
a(I43
I52
tp376
a(I43
I53
tp377
a(I43
I54
tp378
a(I43
I55
tp379
a(I43
I57
tp380
a(I43
I58
tp381
a(I43
I59
tp382
a(I44
I45
tp383
a(I44
I46
tp384
a(I44
I47
tp385
a(I44
I48
tp386
a(I44
I49
tp387
a(I44
I50
tp388
a(I44
I52
tp389
a(I44
I53
tp390
a(I44
I54
tp391
a(I44
I55
tp392
a(I44
I57
tp393
a(I44
I58
tp394
a(I44
I59
tp395
a(I50
I52
tp396
a(I52
I53
tp397
a(I52
I54
tp398
a(I52
I55
tp399
a(I52
I57
tp400
a(I52
I58
tp401
a(I52
I59
tp402
a(I55
I57
tp403
a(I57
I58
tp404
a(I57
I59
tp405
asS'omit_one'
p406
(dp407
S'aligned'
p408
(lp409
sS'three'
p410
(lp411
sS'one'
p412
(lp413
ssS'prefix'
p414
(dp415
g408
(lp416
(I0
I0
tp417
a(I1
I0
tp418
a(I3
I2
tp419
a(I3
I5
tp420
a(I4
I7
tp421
a(I5
I0
tp422
a(I6
I0
tp423
a(I8
I2
tp424
a(I8
I5
tp425
a(I9
I5
tp426
a(I10
I0
tp427
a(I11
I1
tp428
a(I12
I0
tp429
a(I13
I2
tp430
a(I13
I5
tp431
a(I14
I0
tp432
a(I15
I0
tp433
a(I16
I2
tp434
a(I16
I5
tp435
a(I17
I0
tp436
a(I18
I2
tp437
a(I18
I5
tp438
a(I19
I0
tp439
a(I20
I2
tp440
a(I20
I5
tp441
a(I21
I0
tp442
a(I22
I0
tp443
a(I23
I0
tp444
a(I24
I2
tp445
a(I24
I5
tp446
a(I25
I2
tp447
a(I25
I5
tp448
a(I26
I2
tp449
a(I26
I5
tp450
a(I26
I8
tp451
a(I26
I11
tp452
a(I26
I14
tp453
a(I26
I17
tp454
a(I26
I20
tp455
a(I26
I23
tp456
a(I27
I2
tp457
a(I27
I5
tp458
a(I28
I0
tp459
a(I29
I0
tp460
a(I30
I0
tp461
a(I31
I0
tp462
a(I32
I0
tp463
a(I33
I2
tp464
a(I33
I5
tp465
a(I34
I2
tp466
a(I34
I5
tp467
a(I35
I2
tp468
a(I35
I5
tp469
a(I35
I8
tp470
a(I35
I11
tp471
a(I35
I14
tp472
a(I35
I17
tp473
a(I35
I20
tp474
a(I35
I23
tp475
a(I36
I2
tp476
a(I36
I5
tp477
a(I37
I0
tp478
a(I38
I0
tp479
a(I39
I0
tp480
a(I40
I0
tp481
a(I41
I2
tp482
a(I41
I5
tp483
a(I42
I2
tp484
a(I42
I5
tp485
a(I43
I2
tp486
a(I43
I5
tp487
a(I44
I2
tp488
a(I44
I5
tp489
a(I45
I7
tp490
a(I46
I7
tp491
a(I47
I7
tp492
a(I48
I7
tp493
a(I49
I6
tp494
a(I50
I0
tp495
a(I52
I2
tp496
a(I52
I5
tp497
a(I53
I7
tp498
a(I54
I0
tp499
a(I55
I0
tp500
a(I57
I2
tp501
a(I57
I5
tp502
a(I58
I7
tp503
a(I59
I0
tp504
asg410
(lp505
(I0
I0
tp506
a(I1
I0
tp507
a(I3
I17
tp508
a(I4
I9
tp509
a(I5
I0
tp510
a(I6
I0
tp511
a(I8
I17
tp512
a(I9
I5
tp513
a(I10
I0
tp514
a(I11
I3
tp515
a(I12
I0
tp516
a(I13
I17
tp517
a(I14
I0
tp518
a(I15
I0
tp519
a(I16
I17
tp520
a(I17
I0
tp521
a(I18
I17
tp522
a(I19
I0
tp523
a(I20
I17
tp524
a(I21
I0
tp525
a(I22
I0
tp526
a(I23
I0
tp527
a(I24
I17
tp528
a(I25
I17
tp529
a(I26
I17
tp530
a(I27
I17
tp531
a(I28
I0
tp532
a(I29
I0
tp533
a(I30
I0
tp534
a(I31
I0
tp535
a(I32
I0
tp536
a(I33
I17
tp537
a(I34
I17
tp538
a(I35
I17
tp539
a(I36
I17
tp540
a(I37
I0
tp541
a(I38
I0
tp542
a(I39
I0
tp543
a(I40
I0
tp544
a(I41
I17
tp545
a(I42
I17
tp546
a(I43
I17
tp547
a(I44
I17
tp548
a(I45
I9
tp549
a(I46
I9
tp550
a(I47
I9
tp551
a(I48
I9
tp552
a(I49
I6
tp553
a(I50
I0
tp554
a(I52
I17
tp555
a(I53
I9
tp556
a(I54
I0
tp557
a(I55
I0
tp558
a(I57
I17
tp559
a(I58
I9
tp560
a(I59
I0
tp561
asg412
(lp562
(I0
I0
tp563
a(I1
I0
tp564
a(I3
I5
tp565
a(I4
I7
tp566
a(I5
I0
tp567
a(I6
I0
tp568
a(I8
I5
tp569
a(I9
I5
tp570
a(I10
I0
tp571
a(I11
I1
tp572
a(I12
I0
tp573
a(I13
I5
tp574
a(I14
I0
tp575
a(I15
I0
tp576
a(I16
I5
tp577
a(I17
I0
tp578
a(I18
I5
tp579
a(I19
I0
tp580
a(I20
I5
tp581
a(I21
I0
tp582
a(I22
I0
tp583
a(I23
I0
tp584
a(I24
I5
tp585
a(I25
I5
tp586
a(I26
I5
tp587
a(I27
I5
tp588
a(I28
I0
tp589
a(I29
I0
tp590
a(I30
I0
tp591
a(I31
I0
tp592
a(I32
I0
tp593
a(I33
I5
tp594
a(I34
I5
tp595
a(I35
I5
tp596
a(I36
I5
tp597
a(I37
I0
tp598
a(I38
I0
tp599
a(I39
I0
tp600
a(I40
I0
tp601
a(I41
I5
tp602
a(I42
I5
tp603
a(I43
I5
tp604
a(I44
I5
tp605
a(I45
I7
tp606
a(I46
I7
tp607
a(I47
I7
tp608
a(I48
I7
tp609
a(I49
I6
tp610
a(I50
I0
tp611
a(I52
I5
tp612
a(I53
I7
tp613
a(I54
I0
tp614
a(I55
I0
tp615
a(I57
I5
tp616
a(I58
I7
tp617
a(I59
I0
tp618
assbsS'checksums'
p619
S'54810  3399\n'
p620
s.