(dp0
S'content'
p1
(imystruct
Struct
p2
(dp3
S'omitmicro'
p4
(lp5
(I0
I1
tp6
a(I0
I2
tp7
a(I0
I3
tp8
a(I0
I4
tp9
a(I0
I5
tp10
a(I0
I6
tp11
a(I0
I7
tp12
a(I0
I8
tp13
a(I0
I9
tp14
a(I0
I10
tp15
a(I0
I11
tp16
a(I0
I12
tp17
a(I0
I13
tp18
a(I0
I14
tp19
a(I0
I15
tp20
a(I0
I16
tp21
a(I0
I17
tp22
a(I1
I2
tp23
a(I1
I3
tp24
a(I1
I4
tp25
a(I1
I5
tp26
a(I1
I6
tp27
a(I1
I7
tp28
a(I1
I8
tp29
a(I1
I9
tp30
a(I1
I10
tp31
a(I1
I11
tp32
a(I1
I12
tp33
a(I1
I13
tp34
a(I1
I14
tp35
a(I1
I15
tp36
a(I1
I16
tp37
a(I1
I17
tp38
a(I1
I19
tp39
a(I2
I3
tp40
a(I2
I4
tp41
a(I2
I5
tp42
a(I2
I6
tp43
a(I2
I7
tp44
a(I2
I8
tp45
a(I2
I9
tp46
a(I2
I10
tp47
a(I2
I11
tp48
a(I2
I12
tp49
a(I2
I13
tp50
a(I2
I14
tp51
a(I2
I15
tp52
a(I2
I16
tp53
a(I2
I17
tp54
a(I2
I19
tp55
a(I2
I21
tp56
a(I3
I4
tp57
a(I3
I5
tp58
a(I3
I6
tp59
a(I3
I7
tp60
a(I3
I8
tp61
a(I3
I9
tp62
a(I3
I10
tp63
a(I3
I11
tp64
a(I3
I12
tp65
a(I3
I13
tp66
a(I3
I14
tp67
a(I3
I15
tp68
a(I3
I16
tp69
a(I3
I17
tp70
a(I3
I19
tp71
a(I3
I21
tp72
a(I3
I23
tp73
a(I3
I24
tp74
a(I3
I26
tp75
a(I3
I27
tp76
a(I3
I29
tp77
a(I3
I31
tp78
a(I3
I33
tp79
a(I3
I34
tp80
a(I3
I36
tp81
a(I3
I38
tp82
a(I3
I40
tp83
a(I3
I41
tp84
a(I3
I43
tp85
a(I3
I45
tp86
a(I3
I47
tp87
a(I3
I48
tp88
a(I4
I5
tp89
a(I4
I6
tp90
a(I4
I7
tp91
a(I4
I8
tp92
a(I4
I9
tp93
a(I4
I10
tp94
a(I4
I11
tp95
a(I4
I12
tp96
a(I4
I13
tp97
a(I4
I14
tp98
a(I4
I15
tp99
a(I4
I16
tp100
a(I4
I17
tp101
a(I4
I19
tp102
a(I4
I21
tp103
a(I4
I23
tp104
a(I4
I24
tp105
a(I4
I26
tp106
a(I4
I27
tp107
a(I4
I29
tp108
a(I4
I31
tp109
a(I4
I33
tp110
a(I4
I34
tp111
a(I4
I36
tp112
a(I4
I38
tp113
a(I4
I40
tp114
a(I4
I41
tp115
a(I4
I43
tp116
a(I4
I45
tp117
a(I4
I47
tp118
a(I4
I48
tp119
a(I5
I6
tp120
a(I5
I7
tp121
a(I5
I8
tp122
a(I5
I9
tp123
a(I5
I10
tp124
a(I5
I11
tp125
a(I5
I12
tp126
a(I5
I13
tp127
a(I5
I14
tp128
a(I5
I15
tp129
a(I5
I16
tp130
a(I5
I17
tp131
a(I5
I19
tp132
a(I5
I21
tp133
a(I5
I23
tp134
a(I5
I24
tp135
a(I5
I26
tp136
a(I5
I27
tp137
a(I5
I29
tp138
a(I5
I31
tp139
a(I5
I33
tp140
a(I5
I34
tp141
a(I5
I36
tp142
a(I5
I38
tp143
a(I5
I40
tp144
a(I5
I41
tp145
a(I5
I43
tp146
a(I5
I45
tp147
a(I5
I47
tp148
a(I5
I48
tp149
a(I7
I8
tp150
a(I7
I9
tp151
a(I7
I10
tp152
a(I7
I11
tp153
a(I7
I12
tp154
a(I7
I13
tp155
a(I7
I14
tp156
a(I7
I15
tp157
a(I7
I16
tp158
a(I7
I17
tp159
a(I7
I19
tp160
a(I7
I21
tp161
a(I7
I23
tp162
a(I7
I24
tp163
a(I7
I26
tp164
a(I7
I27
tp165
a(I7
I29
tp166
a(I7
I31
tp167
a(I7
I33
tp168
a(I7
I34
tp169
a(I7
I36
tp170
a(I7
I38
tp171
a(I7
I40
tp172
a(I7
I41
tp173
a(I7
I43
tp174
a(I7
I45
tp175
a(I7
I47
tp176
a(I7
I48
tp177
a(I8
I9
tp178
a(I8
I10
tp179
a(I8
I11
tp180
a(I8
I12
tp181
a(I8
I13
tp182
a(I8
I14
tp183
a(I8
I15
tp184
a(I8
I16
tp185
a(I8
I17
tp186
a(I8
I19
tp187
a(I8
I21
tp188
a(I8
I23
tp189
a(I8
I24
tp190
a(I8
I26
tp191
a(I8
I27
tp192
a(I8
I29
tp193
a(I8
I31
tp194
a(I8
I33
tp195
a(I8
I34
tp196
a(I8
I36
tp197
a(I8
I38
tp198
a(I8
I40
tp199
a(I8
I41
tp200
a(I8
I43
tp201
a(I8
I45
tp202
a(I8
I47
tp203
a(I8
I48
tp204
a(I9
I10
tp205
a(I9
I11
tp206
a(I9
I12
tp207
a(I9
I13
tp208
a(I9
I14
tp209
a(I9
I15
tp210
a(I9
I16
tp211
a(I9
I17
tp212
a(I9
I19
tp213
a(I9
I21
tp214
a(I9
I23
tp215
a(I9
I24
tp216
a(I9
I26
tp217
a(I9
I27
tp218
a(I9
I29
tp219
a(I9
I31
tp220
a(I9
I33
tp221
a(I9
I34
tp222
a(I9
I36
tp223
a(I9
I38
tp224
a(I9
I40
tp225
a(I9
I41
tp226
a(I9
I43
tp227
a(I9
I45
tp228
a(I9
I47
tp229
a(I9
I48
tp230
a(I10
I11
tp231
a(I10
I12
tp232
a(I10
I13
tp233
a(I10
I14
tp234
a(I10
I15
tp235
a(I10
I16
tp236
a(I10
I17
tp237
a(I10
I19
tp238
a(I10
I21
tp239
a(I10
I23
tp240
a(I10
I24
tp241
a(I10
I26
tp242
a(I10
I27
tp243
a(I10
I29
tp244
a(I10
I31
tp245
a(I10
I33
tp246
a(I10
I34
tp247
a(I10
I36
tp248
a(I10
I38
tp249
a(I10
I40
tp250
a(I10
I41
tp251
a(I10
I43
tp252
a(I10
I45
tp253
a(I10
I47
tp254
a(I10
I48
tp255
a(I11
I12
tp256
a(I11
I13
tp257
a(I11
I14
tp258
a(I11
I15
tp259
a(I11
I16
tp260
a(I11
I17
tp261
a(I11
I19
tp262
a(I11
I21
tp263
a(I11
I23
tp264
a(I11
I24
tp265
a(I11
I26
tp266
a(I11
I27
tp267
a(I11
I29
tp268
a(I11
I31
tp269
a(I11
I33
tp270
a(I11
I34
tp271
a(I11
I36
tp272
a(I11
I38
tp273
a(I11
I40
tp274
a(I11
I41
tp275
a(I11
I43
tp276
a(I11
I45
tp277
a(I11
I47
tp278
a(I11
I48
tp279
a(I12
I13
tp280
a(I12
I14
tp281
a(I12
I15
tp282
a(I12
I16
tp283
a(I12
I17
tp284
a(I12
I19
tp285
a(I12
I21
tp286
a(I12
I23
tp287
a(I12
I24
tp288
a(I12
I26
tp289
a(I12
I27
tp290
a(I12
I29
tp291
a(I12
I31
tp292
a(I12
I33
tp293
a(I12
I34
tp294
a(I12
I36
tp295
a(I12
I38
tp296
a(I12
I40
tp297
a(I12
I41
tp298
a(I12
I43
tp299
a(I12
I45
tp300
a(I12
I47
tp301
a(I12
I48
tp302
a(I13
I14
tp303
a(I13
I15
tp304
a(I13
I16
tp305
a(I13
I17
tp306
a(I13
I19
tp307
a(I13
I21
tp308
a(I13
I23
tp309
a(I13
I24
tp310
a(I13
I26
tp311
a(I13
I27
tp312
a(I13
I29
tp313
a(I13
I31
tp314
a(I13
I33
tp315
a(I13
I34
tp316
a(I13
I36
tp317
a(I13
I38
tp318
a(I13
I40
tp319
a(I13
I41
tp320
a(I13
I43
tp321
a(I13
I45
tp322
a(I13
I47
tp323
a(I13
I48
tp324
a(I15
I16
tp325
a(I15
I17
tp326
a(I15
I19
tp327
a(I15
I21
tp328
a(I15
I23
tp329
a(I15
I24
tp330
a(I15
I26
tp331
a(I15
I27
tp332
a(I15
I29
tp333
a(I15
I31
tp334
a(I15
I33
tp335
a(I15
I34
tp336
a(I15
I36
tp337
a(I15
I38
tp338
a(I15
I40
tp339
a(I15
I41
tp340
a(I15
I43
tp341
a(I15
I45
tp342
a(I15
I47
tp343
a(I15
I48
tp344
a(I16
I17
tp345
a(I16
I19
tp346
a(I16
I21
tp347
a(I16
I23
tp348
a(I16
I24
tp349
a(I16
I26
tp350
a(I16
I27
tp351
a(I16
I29
tp352
a(I16
I31
tp353
a(I16
I33
tp354
a(I16
I34
tp355
a(I16
I36
tp356
a(I16
I38
tp357
a(I16
I40
tp358
a(I16
I41
tp359
a(I16
I43
tp360
a(I16
I45
tp361
a(I16
I47
tp362
a(I16
I48
tp363
a(I23
I24
tp364
a(I26
I27
tp365
a(I26
I29
tp366
a(I26
I31
tp367
a(I26
I33
tp368
a(I26
I34
tp369
a(I26
I36
tp370
a(I26
I38
tp371
a(I26
I40
tp372
a(I26
I41
tp373
a(I26
I43
tp374
a(I26
I45
tp375
a(I26
I47
tp376
a(I26
I48
tp377
a(I47
I48
tp378
asS'omit_one'
p379
(dp380
S'aligned'
p381
(lp382
((I31
I0
tp383
(I31
I1
tp384
tp385
a(g383
(I31
I2
tp386
tp387
a(g383
(I31
I3
tp388
tp389
a(g383
(I31
I4
tp390
tp391
a(g383
(I31
I5
tp392
tp393
a(g383
(I31
I6
tp394
tp395
a(g383
(I31
I7
tp396
tp397
a(g383
(I31
I8
tp398
tp399
a(g383
(I31
I9
tp400
tp401
a(g383
(I31
I10
tp402
tp403
a(g383
(I31
I11
tp404
tp405
a(g383
(I31
I12
tp406
tp407
a(g383
(I31
I13
tp408
tp409
a(g383
(I31
I14
tp410
tp411
a(g383
(I31
I15
tp412
tp413
a((I31
I1
tp414
(I31
I2
tp415
tp416
a(g414
(I31
I3
tp417
tp418
a(g414
(I31
I4
tp419
tp420
a(g414
(I31
I5
tp421
tp422
a(g414
(I31
I6
tp423
tp424
a(g414
(I31
I7
tp425
tp426
a(g414
(I31
I8
tp427
tp428
a(g414
(I31
I9
tp429
tp430
a(g414
(I31
I10
tp431
tp432
a(g414
(I31
I11
tp433
tp434
a(g414
(I31
I12
tp435
tp436
a(g414
(I31
I13
tp437
tp438
a(g414
(I31
I14
tp439
tp440
a(g414
(I31
I15
tp441
tp442
a((I31
I2
tp443
(I31
I3
tp444
tp445
a(g443
(I31
I4
tp446
tp447
a(g443
(I31
I5
tp448
tp449
a(g443
(I31
I6
tp450
tp451
a(g443
(I31
I7
tp452
tp453
a(g443
(I31
I8
tp454
tp455
a(g443
(I31
I9
tp456
tp457
a(g443
(I31
I10
tp458
tp459
a(g443
(I31
I11
tp460
tp461
a(g443
(I31
I12
tp462
tp463
a(g443
(I31
I13
tp464
tp465
a(g443
(I31
I14
tp466
tp467
a(g443
(I31
I15
tp468
tp469
a((I31
I3
tp470
(I31
I4
tp471
tp472
a(g470
(I31
I5
tp473
tp474
a(g470
(I31
I6
tp475
tp476
a(g470
(I31
I7
tp477
tp478
a(g470
(I31
I8
tp479
tp480
a(g470
(I31
I9
tp481
tp482
a(g470
(I31
I10
tp483
tp484
a(g470
(I31
I11
tp485
tp486
a(g470
(I31
I12
tp487
tp488
a(g470
(I31
I13
tp489
tp490
a(g470
(I31
I14
tp491
tp492
a(g470
(I31
I15
tp493
tp494
a((I31
I4
tp495
(I31
I5
tp496
tp497
a(g495
(I31
I6
tp498
tp499
a(g495
(I31
I7
tp500
tp501
a(g495
(I31
I8
tp502
tp503
a(g495
(I31
I9
tp504
tp505
a(g495
(I31
I10
tp506
tp507
a(g495
(I31
I11
tp508
tp509
a(g495
(I31
I12
tp510
tp511
a(g495
(I31
I13
tp512
tp513
a(g495
(I31
I14
tp514
tp515
a(g495
(I31
I15
tp516
tp517
a((I31
I5
tp518
(I31
I6
tp519
tp520
a(g518
(I31
I7
tp521
tp522
a(g518
(I31
I8
tp523
tp524
a(g518
(I31
I9
tp525
tp526
a(g518
(I31
I10
tp527
tp528
a(g518
(I31
I11
tp529
tp530
a(g518
(I31
I12
tp531
tp532
a(g518
(I31
I13
tp533
tp534
a(g518
(I31
I14
tp535
tp536
a(g518
(I31
I15
tp537
tp538
a((I31
I6
tp539
(I31
I7
tp540
tp541
a(g539
(I31
I8
tp542
tp543
a(g539
(I31
I9
tp544
tp545
a(g539
(I31
I10
tp546
tp547
a(g539
(I31
I11
tp548
tp549
a(g539
(I31
I12
tp550
tp551
a(g539
(I31
I13
tp552
tp553
a(g539
(I31
I14
tp554
tp555
a(g539
(I31
I15
tp556
tp557
a((I31
I7
tp558
(I31
I8
tp559
tp560
a(g558
(I31
I9
tp561
tp562
a(g558
(I31
I10
tp563
tp564
a(g558
(I31
I11
tp565
tp566
a(g558
(I31
I12
tp567
tp568
a(g558
(I31
I13
tp569
tp570
a(g558
(I31
I14
tp571
tp572
a(g558
(I31
I15
tp573
tp574
a((I31
I8
tp575
(I31
I9
tp576
tp577
a(g575
(I31
I10
tp578
tp579
a(g575
(I31
I11
tp580
tp581
a(g575
(I31
I12
tp582
tp583
a(g575
(I31
I13
tp584
tp585
a(g575
(I31
I14
tp586
tp587
a(g575
(I31
I15
tp588
tp589
a((I31
I9
tp590
(I31
I10
tp591
tp592
a(g590
(I31
I11
tp593
tp594
a(g590
(I31
I12
tp595
tp596
a(g590
(I31
I13
tp597
tp598
a(g590
(I31
I14
tp599
tp600
a(g590
(I31
I15
tp601
tp602
a((I31
I10
tp603
(I31
I11
tp604
tp605
a(g603
(I31
I12
tp606
tp607
a(g603
(I31
I13
tp608
tp609
a(g603
(I31
I14
tp610
tp611
a(g603
(I31
I15
tp612
tp613
a((I31
I11
tp614
(I31
I12
tp615
tp616
a(g614
(I31
I13
tp617
tp618
a(g614
(I31
I14
tp619
tp620
a(g614
(I31
I15
tp621
tp622
a((I31
I12
tp623
(I31
I13
tp624
tp625
a(g623
(I31
I14
tp626
tp627
a(g623
(I31
I15
tp628
tp629
a((I31
I13
tp630
(I31
I14
tp631
tp632
a(g630
(I31
I15
tp633
tp634
a((I31
I14
tp635
(I31
I15
tp636
tp637
a((I38
I0
tp638
(I38
I1
tp639
tp640
a(g638
(I38
I2
tp641
tp642
a(g638
(I38
I3
tp643
tp644
a(g638
(I38
I4
tp645
tp646
a(g638
(I38
I5
tp647
tp648
a(g638
(I38
I6
tp649
tp650
a(g638
(I38
I7
tp651
tp652
a(g638
(I38
I8
tp653
tp654
a(g638
(I38
I9
tp655
tp656
a(g638
(I38
I10
tp657
tp658
a(g638
(I38
I11
tp659
tp660
a(g638
(I38
I12
tp661
tp662
a(g638
(I38
I13
tp663
tp664
a(g638
(I38
I14
tp665
tp666
a(g638
(I38
I15
tp667
tp668
a((I38
I1
tp669
(I38
I2
tp670
tp671
a(g669
(I38
I3
tp672
tp673
a(g669
(I38
I4
tp674
tp675
a(g669
(I38
I5
tp676
tp677
a(g669
(I38
I6
tp678
tp679
a(g669
(I38
I7
tp680
tp681
a(g669
(I38
I8
tp682
tp683
a(g669
(I38
I9
tp684
tp685
a(g669
(I38
I10
tp686
tp687
a(g669
(I38
I11
tp688
tp689
a(g669
(I38
I12
tp690
tp691
a(g669
(I38
I13
tp692
tp693
a(g669
(I38
I14
tp694
tp695
a(g669
(I38
I15
tp696
tp697
a((I38
I2
tp698
(I38
I3
tp699
tp700
a(g698
(I38
I4
tp701
tp702
a(g698
(I38
I5
tp703
tp704
a(g698
(I38
I6
tp705
tp706
a(g698
(I38
I7
tp707
tp708
a(g698
(I38
I8
tp709
tp710
a(g698
(I38
I9
tp711
tp712
a(g698
(I38
I10
tp713
tp714
a(g698
(I38
I11
tp715
tp716
a(g698
(I38
I12
tp717
tp718
a(g698
(I38
I13
tp719
tp720
a(g698
(I38
I14
tp721
tp722
a(g698
(I38
I15
tp723
tp724
a((I38
I3
tp725
(I38
I4
tp726
tp727
a(g725
(I38
I5
tp728
tp729
a(g725
(I38
I6
tp730
tp731
a(g725
(I38
I7
tp732
tp733
a(g725
(I38
I8
tp734
tp735
a(g725
(I38
I9
tp736
tp737
a(g725
(I38
I10
tp738
tp739
a(g725
(I38
I11
tp740
tp741
a(g725
(I38
I12
tp742
tp743
a(g725
(I38
I13
tp744
tp745
a(g725
(I38
I14
tp746
tp747
a(g725
(I38
I15
tp748
tp749
a((I38
I4
tp750
(I38
I5
tp751
tp752
a(g750
(I38
I6
tp753
tp754
a(g750
(I38
I7
tp755
tp756
a(g750
(I38
I8
tp757
tp758
a(g750
(I38
I9
tp759
tp760
a(g750
(I38
I10
tp761
tp762
a(g750
(I38
I11
tp763
tp764
a(g750
(I38
I12
tp765
tp766
a(g750
(I38
I13
tp767
tp768
a(g750
(I38
I14
tp769
tp770
a(g750
(I38
I15
tp771
tp772
a((I38
I5
tp773
(I38
I6
tp774
tp775
a(g773
(I38
I7
tp776
tp777
a(g773
(I38
I8
tp778
tp779
a(g773
(I38
I9
tp780
tp781
a(g773
(I38
I10
tp782
tp783
a(g773
(I38
I11
tp784
tp785
a(g773
(I38
I12
tp786
tp787
a(g773
(I38
I13
tp788
tp789
a(g773
(I38
I14
tp790
tp791
a(g773
(I38
I15
tp792
tp793
a((I38
I6
tp794
(I38
I7
tp795
tp796
a(g794
(I38
I8
tp797
tp798
a(g794
(I38
I9
tp799
tp800
a(g794
(I38
I10
tp801
tp802
a(g794
(I38
I11
tp803
tp804
a(g794
(I38
I12
tp805
tp806
a(g794
(I38
I13
tp807
tp808
a(g794
(I38
I14
tp809
tp810
a(g794
(I38
I15
tp811
tp812
a((I38
I7
tp813
(I38
I8
tp814
tp815
a(g813
(I38
I9
tp816
tp817
a(g813
(I38
I10
tp818
tp819
a(g813
(I38
I11
tp820
tp821
a(g813
(I38
I12
tp822
tp823
a(g813
(I38
I13
tp824
tp825
a(g813
(I38
I14
tp826
tp827
a(g813
(I38
I15
tp828
tp829
a((I38
I8
tp830
(I38
I9
tp831
tp832
a(g830
(I38
I10
tp833
tp834
a(g830
(I38
I11
tp835
tp836
a(g830
(I38
I12
tp837
tp838
a(g830
(I38
I13
tp839
tp840
a(g830
(I38
I14
tp841
tp842
a(g830
(I38
I15
tp843
tp844
a((I38
I9
tp845
(I38
I10
tp846
tp847
a(g845
(I38
I11
tp848
tp849
a(g845
(I38
I12
tp850
tp851
a(g845
(I38
I13
tp852
tp853
a(g845
(I38
I14
tp854
tp855
a(g845
(I38
I15
tp856
tp857
a((I38
I10
tp858
(I38
I11
tp859
tp860
a(g858
(I38
I12
tp861
tp862
a(g858
(I38
I13
tp863
tp864
a(g858
(I38
I14
tp865
tp866
a(g858
(I38
I15
tp867
tp868
a((I38
I11
tp869
(I38
I12
tp870
tp871
a(g869
(I38
I13
tp872
tp873
a(g869
(I38
I14
tp874
tp875
a(g869
(I38
I15
tp876
tp877
a((I38
I12
tp878
(I38
I13
tp879
tp880
a(g878
(I38
I14
tp881
tp882
a(g878
(I38
I15
tp883
tp884
a((I38
I13
tp885
(I38
I14
tp886
tp887
a(g885
(I38
I15
tp888
tp889
a((I38
I14
tp890
(I38
I15
tp891
tp892
asS'three'
p893
(lp894
sS'one'
p895
(lp896
ssS'prefix'
p897
(dp898
g381
(lp899
(I0
I0
tp900
a(I1
I0
tp901
a(I2
I0
tp902
a(I3
I0
tp903
a(I4
I0
tp904
a(I5
I0
tp905
a(I6
I2
tp906
a(I6
I5
tp907
a(I7
I5
tp908
a(I8
I0
tp909
a(I9
I1
tp910
a(I10
I0
tp911
a(I11
I0
tp912
a(I12
I0
tp913
a(I13
I0
tp914
a(I14
I2
tp915
a(I14
I5
tp916
a(I15
I5
tp917
a(I16
I0
tp918
a(I17
I0
tp919
a(I18
I0
tp920
a(I19
I0
tp921
a(I20
I0
tp922
a(I21
I0
tp923
a(I22
I0
tp924
a(I23
I0
tp925
a(I24
I2
tp926
a(I24
I5
tp927
a(I25
I0
tp928
a(I26
I7
tp929
a(I27
I0
tp930
a(I28
I0
tp931
a(I29
I0
tp932
a(I30
I0
tp933
a(I31
I0
tp934
a(I31
I1
tp935
a(I31
I2
tp936
a(I31
I3
tp937
a(I31
I4
tp938
a(I31
I5
tp939
a(I31
I6
tp940
a(I31
I7
tp941
a(I31
I8
tp942
a(I31
I9
tp943
a(I31
I10
tp944
a(I31
I11
tp945
a(I31
I12
tp946
a(I31
I13
tp947
a(I31
I14
tp948
a(I31
I15
tp949
a(I32
I0
tp950
a(I33
I0
tp951
a(I34
I0
tp952
a(I35
I0
tp953
a(I36
I0
tp954
a(I37
I0
tp955
a(I38
I0
tp956
a(I38
I1
tp957
a(I38
I2
tp958
a(I38
I3
tp959
a(I38
I4
tp960
a(I38
I5
tp961
a(I38
I6
tp962
a(I38
I7
tp963
a(I38
I8
tp964
a(I38
I9
tp965
a(I38
I10
tp966
a(I38
I11
tp967
a(I38
I12
tp968
a(I38
I13
tp969
a(I38
I14
tp970
a(I38
I15
tp971
a(I39
I0
tp972
a(I40
I0
tp973
a(I41
I0
tp974
a(I42
I0
tp975
a(I43
I0
tp976
a(I44
I0
tp977
a(I45
I0
tp978
a(I46
I0
tp979
a(I47
I1
tp980
a(I48
I0
tp981
asg893
(lp982
(I0
I2
tp983
a(I1
I2
tp984
a(I2
I2
tp985
a(I3
I0
tp986
a(I4
I0
tp987
a(I5
I0
tp988
a(I6
I17
tp989
a(I7
I5
tp990
a(I8
I0
tp991
a(I9
I3
tp992
a(I10
I0
tp993
a(I11
I0
tp994
a(I12
I0
tp995
a(I13
I0
tp996
a(I14
I17
tp997
a(I15
I5
tp998
a(I16
I0
tp999
a(I17
I2
tp1000
a(I18
I0
tp1001
a(I19
I2
tp1002
a(I20
I0
tp1003
a(I21
I2
tp1004
a(I22
I0
tp1005
a(I23
I0
tp1006
a(I24
I17
tp1007
a(I25
I0
tp1008
a(I26
I9
tp1009
a(I27
I2
tp1010
a(I28
I0
tp1011
a(I29
I2
tp1012
a(I30
I0
tp1013
a(I31
I2
tp1014
a(I32
I0
tp1015
a(I33
I0
tp1016
a(I34
I2
tp1017
a(I35
I0
tp1018
a(I36
I2
tp1019
a(I37
I0
tp1020
a(I38
I2
tp1021
a(I39
I0
tp1022
a(I40
I0
tp1023
a(I41
I2
tp1024
a(I42
I0
tp1025
a(I43
I2
tp1026
a(I44
I0
tp1027
a(I45
I2
tp1028
a(I46
I0
tp1029
a(I47
I3
tp1030
a(I48
I0
tp1031
asg895
(lp1032
(I0
I0
tp1033
a(I1
I0
tp1034
a(I2
I0
tp1035
a(I3
I0
tp1036
a(I4
I0
tp1037
a(I5
I0
tp1038
a(I6
I5
tp1039
a(I7
I5
tp1040
a(I8
I0
tp1041
a(I9
I1
tp1042
a(I10
I0
tp1043
a(I11
I0
tp1044
a(I12
I0
tp1045
a(I13
I0
tp1046
a(I14
I5
tp1047
a(I15
I5
tp1048
a(I16
I0
tp1049
a(I17
I0
tp1050
a(I18
I0
tp1051
a(I19
I0
tp1052
a(I20
I0
tp1053
a(I21
I0
tp1054
a(I22
I0
tp1055
a(I23
I0
tp1056
a(I24
I5
tp1057
a(I25
I0
tp1058
a(I26
I7
tp1059
a(I27
I0
tp1060
a(I28
I0
tp1061
a(I29
I0
tp1062
a(I30
I0
tp1063
a(I31
I0
tp1064
a(I32
I0
tp1065
a(I33
I0
tp1066
a(I34
I0
tp1067
a(I35
I0
tp1068
a(I36
I0
tp1069
a(I37
I0
tp1070
a(I38
I0
tp1071
a(I39
I0
tp1072
a(I40
I0
tp1073
a(I41
I0
tp1074
a(I42
I0
tp1075
a(I43
I0
tp1076
a(I44
I0
tp1077
a(I45
I0
tp1078
a(I46
I0
tp1079
a(I47
I1
tp1080
a(I48
I0
tp1081
assbsS'checksums'
p1082
S'00725   105\n'
p1083
s.