(dp0
S'content'
p1
(imystruct
Struct
p2
(dp3
S'omitmicro'
p4
(lp5
(I0
I1
tp6
a(I0
I2
tp7
a(I0
I3
tp8
a(I0
I4
tp9
a(I0
I5
tp10
a(I0
I6
tp11
a(I0
I7
tp12
a(I0
I8
tp13
a(I0
I9
tp14
a(I0
I10
tp15
a(I0
I11
tp16
a(I0
I12
tp17
a(I0
I13
tp18
a(I0
I14
tp19
a(I0
I15
tp20
a(I0
I16
tp21
a(I0
I17
tp22
a(I1
I2
tp23
a(I1
I3
tp24
a(I1
I4
tp25
a(I1
I5
tp26
a(I1
I6
tp27
a(I1
I7
tp28
a(I1
I8
tp29
a(I1
I9
tp30
a(I1
I10
tp31
a(I1
I11
tp32
a(I1
I12
tp33
a(I1
I13
tp34
a(I1
I14
tp35
a(I1
I15
tp36
a(I1
I16
tp37
a(I1
I17
tp38
a(I1
I19
tp39
a(I2
I3
tp40
a(I2
I4
tp41
a(I2
I5
tp42
a(I2
I6
tp43
a(I2
I7
tp44
a(I2
I8
tp45
a(I2
I9
tp46
a(I2
I10
tp47
a(I2
I11
tp48
a(I2
I12
tp49
a(I2
I13
tp50
a(I2
I14
tp51
a(I2
I15
tp52
a(I2
I16
tp53
a(I2
I17
tp54
a(I2
I19
tp55
a(I2
I21
tp56
a(I16
I17
tp57
a(I16
I19
tp58
a(I16
I21
tp59
a(I26
I27
tp60
a(I26
I29
tp61
a(I26
I31
tp62
a(I26
I33
tp63
a(I26
I34
tp64
a(I26
I36
tp65
a(I26
I38
tp66
a(I26
I40
tp67
a(I26
I41
tp68
a(I26
I43
tp69
a(I26
I45
tp70
asS'omit_one'
p71
(dp72
S'aligned'
p73
(lp74
((I31
I0
tp75
(I31
I1
tp76
tp77
a(g75
(I31
I2
tp78
tp79
a(g75
(I31
I3
tp80
tp81
a(g75
(I31
I4
tp82
tp83
a(g75
(I31
I5
tp84
tp85
a(g75
(I31
I6
tp86
tp87
a(g75
(I31
I7
tp88
tp89
a(g75
(I31
I8
tp90
tp91
a(g75
(I31
I9
tp92
tp93
a(g75
(I31
I10
tp94
tp95
a(g75
(I31
I11
tp96
tp97
a(g75
(I31
I12
tp98
tp99
a(g75
(I31
I13
tp100
tp101
a(g75
(I31
I14
tp102
tp103
a(g75
(I31
I15
tp104
tp105
a((I31
I1
tp106
(I31
I2
tp107
tp108
a(g106
(I31
I3
tp109
tp110
a(g106
(I31
I4
tp111
tp112
a(g106
(I31
I5
tp113
tp114
a(g106
(I31
I6
tp115
tp116
a(g106
(I31
I7
tp117
tp118
a(g106
(I31
I8
tp119
tp120
a(g106
(I31
I9
tp121
tp122
a(g106
(I31
I10
tp123
tp124
a(g106
(I31
I11
tp125
tp126
a(g106
(I31
I12
tp127
tp128
a(g106
(I31
I13
tp129
tp130
a(g106
(I31
I14
tp131
tp132
a(g106
(I31
I15
tp133
tp134
a((I31
I2
tp135
(I31
I3
tp136
tp137
a(g135
(I31
I4
tp138
tp139
a(g135
(I31
I5
tp140
tp141
a(g135
(I31
I6
tp142
tp143
a(g135
(I31
I7
tp144
tp145
a(g135
(I31
I8
tp146
tp147
a(g135
(I31
I9
tp148
tp149
a(g135
(I31
I10
tp150
tp151
a(g135
(I31
I11
tp152
tp153
a(g135
(I31
I12
tp154
tp155
a(g135
(I31
I13
tp156
tp157
a(g135
(I31
I14
tp158
tp159
a(g135
(I31
I15
tp160
tp161
a((I31
I3
tp162
(I31
I4
tp163
tp164
a(g162
(I31
I5
tp165
tp166
a(g162
(I31
I6
tp167
tp168
a(g162
(I31
I7
tp169
tp170
a(g162
(I31
I8
tp171
tp172
a(g162
(I31
I9
tp173
tp174
a(g162
(I31
I10
tp175
tp176
a(g162
(I31
I11
tp177
tp178
a(g162
(I31
I12
tp179
tp180
a(g162
(I31
I13
tp181
tp182
a(g162
(I31
I14
tp183
tp184
a(g162
(I31
I15
tp185
tp186
a((I31
I4
tp187
(I31
I5
tp188
tp189
a(g187
(I31
I6
tp190
tp191
a(g187
(I31
I7
tp192
tp193
a(g187
(I31
I8
tp194
tp195
a(g187
(I31
I9
tp196
tp197
a(g187
(I31
I10
tp198
tp199
a(g187
(I31
I11
tp200
tp201
a(g187
(I31
I12
tp202
tp203
a(g187
(I31
I13
tp204
tp205
a(g187
(I31
I14
tp206
tp207
a(g187
(I31
I15
tp208
tp209
a((I31
I5
tp210
(I31
I6
tp211
tp212
a(g210
(I31
I7
tp213
tp214
a(g210
(I31
I8
tp215
tp216
a(g210
(I31
I9
tp217
tp218
a(g210
(I31
I10
tp219
tp220
a(g210
(I31
I11
tp221
tp222
a(g210
(I31
I12
tp223
tp224
a(g210
(I31
I13
tp225
tp226
a(g210
(I31
I14
tp227
tp228
a(g210
(I31
I15
tp229
tp230
a((I31
I6
tp231
(I31
I7
tp232
tp233
a(g231
(I31
I8
tp234
tp235
a(g231
(I31
I9
tp236
tp237
a(g231
(I31
I10
tp238
tp239
a(g231
(I31
I11
tp240
tp241
a(g231
(I31
I12
tp242
tp243
a(g231
(I31
I13
tp244
tp245
a(g231
(I31
I14
tp246
tp247
a(g231
(I31
I15
tp248
tp249
a((I31
I7
tp250
(I31
I8
tp251
tp252
a(g250
(I31
I9
tp253
tp254
a(g250
(I31
I10
tp255
tp256
a(g250
(I31
I11
tp257
tp258
a(g250
(I31
I12
tp259
tp260
a(g250
(I31
I13
tp261
tp262
a(g250
(I31
I14
tp263
tp264
a(g250
(I31
I15
tp265
tp266
a((I31
I8
tp267
(I31
I9
tp268
tp269
a(g267
(I31
I10
tp270
tp271
a(g267
(I31
I11
tp272
tp273
a(g267
(I31
I12
tp274
tp275
a(g267
(I31
I13
tp276
tp277
a(g267
(I31
I14
tp278
tp279
a(g267
(I31
I15
tp280
tp281
a((I31
I9
tp282
(I31
I10
tp283
tp284
a(g282
(I31
I11
tp285
tp286
a(g282
(I31
I12
tp287
tp288
a(g282
(I31
I13
tp289
tp290
a(g282
(I31
I14
tp291
tp292
a(g282
(I31
I15
tp293
tp294
a((I31
I10
tp295
(I31
I11
tp296
tp297
a(g295
(I31
I12
tp298
tp299
a(g295
(I31
I13
tp300
tp301
a(g295
(I31
I14
tp302
tp303
a(g295
(I31
I15
tp304
tp305
a((I31
I11
tp306
(I31
I12
tp307
tp308
a(g306
(I31
I13
tp309
tp310
a(g306
(I31
I14
tp311
tp312
a(g306
(I31
I15
tp313
tp314
a((I31
I12
tp315
(I31
I13
tp316
tp317
a(g315
(I31
I14
tp318
tp319
a(g315
(I31
I15
tp320
tp321
a((I31
I13
tp322
(I31
I14
tp323
tp324
a(g322
(I31
I15
tp325
tp326
a((I31
I14
tp327
(I31
I15
tp328
tp329
a((I38
I0
tp330
(I38
I1
tp331
tp332
a(g330
(I38
I2
tp333
tp334
a(g330
(I38
I3
tp335
tp336
a(g330
(I38
I4
tp337
tp338
a(g330
(I38
I5
tp339
tp340
a(g330
(I38
I6
tp341
tp342
a(g330
(I38
I7
tp343
tp344
a(g330
(I38
I8
tp345
tp346
a(g330
(I38
I9
tp347
tp348
a(g330
(I38
I10
tp349
tp350
a(g330
(I38
I11
tp351
tp352
a(g330
(I38
I12
tp353
tp354
a(g330
(I38
I13
tp355
tp356
a(g330
(I38
I14
tp357
tp358
a(g330
(I38
I15
tp359
tp360
a((I38
I1
tp361
(I38
I2
tp362
tp363
a(g361
(I38
I3
tp364
tp365
a(g361
(I38
I4
tp366
tp367
a(g361
(I38
I5
tp368
tp369
a(g361
(I38
I6
tp370
tp371
a(g361
(I38
I7
tp372
tp373
a(g361
(I38
I8
tp374
tp375
a(g361
(I38
I9
tp376
tp377
a(g361
(I38
I10
tp378
tp379
a(g361
(I38
I11
tp380
tp381
a(g361
(I38
I12
tp382
tp383
a(g361
(I38
I13
tp384
tp385
a(g361
(I38
I14
tp386
tp387
a(g361
(I38
I15
tp388
tp389
a((I38
I2
tp390
(I38
I3
tp391
tp392
a(g390
(I38
I4
tp393
tp394
a(g390
(I38
I5
tp395
tp396
a(g390
(I38
I6
tp397
tp398
a(g390
(I38
I7
tp399
tp400
a(g390
(I38
I8
tp401
tp402
a(g390
(I38
I9
tp403
tp404
a(g390
(I38
I10
tp405
tp406
a(g390
(I38
I11
tp407
tp408
a(g390
(I38
I12
tp409
tp410
a(g390
(I38
I13
tp411
tp412
a(g390
(I38
I14
tp413
tp414
a(g390
(I38
I15
tp415
tp416
a((I38
I3
tp417
(I38
I4
tp418
tp419
a(g417
(I38
I5
tp420
tp421
a(g417
(I38
I6
tp422
tp423
a(g417
(I38
I7
tp424
tp425
a(g417
(I38
I8
tp426
tp427
a(g417
(I38
I9
tp428
tp429
a(g417
(I38
I10
tp430
tp431
a(g417
(I38
I11
tp432
tp433
a(g417
(I38
I12
tp434
tp435
a(g417
(I38
I13
tp436
tp437
a(g417
(I38
I14
tp438
tp439
a(g417
(I38
I15
tp440
tp441
a((I38
I4
tp442
(I38
I5
tp443
tp444
a(g442
(I38
I6
tp445
tp446
a(g442
(I38
I7
tp447
tp448
a(g442
(I38
I8
tp449
tp450
a(g442
(I38
I9
tp451
tp452
a(g442
(I38
I10
tp453
tp454
a(g442
(I38
I11
tp455
tp456
a(g442
(I38
I12
tp457
tp458
a(g442
(I38
I13
tp459
tp460
a(g442
(I38
I14
tp461
tp462
a(g442
(I38
I15
tp463
tp464
a((I38
I5
tp465
(I38
I6
tp466
tp467
a(g465
(I38
I7
tp468
tp469
a(g465
(I38
I8
tp470
tp471
a(g465
(I38
I9
tp472
tp473
a(g465
(I38
I10
tp474
tp475
a(g465
(I38
I11
tp476
tp477
a(g465
(I38
I12
tp478
tp479
a(g465
(I38
I13
tp480
tp481
a(g465
(I38
I14
tp482
tp483
a(g465
(I38
I15
tp484
tp485
a((I38
I6
tp486
(I38
I7
tp487
tp488
a(g486
(I38
I8
tp489
tp490
a(g486
(I38
I9
tp491
tp492
a(g486
(I38
I10
tp493
tp494
a(g486
(I38
I11
tp495
tp496
a(g486
(I38
I12
tp497
tp498
a(g486
(I38
I13
tp499
tp500
a(g486
(I38
I14
tp501
tp502
a(g486
(I38
I15
tp503
tp504
a((I38
I7
tp505
(I38
I8
tp506
tp507
a(g505
(I38
I9
tp508
tp509
a(g505
(I38
I10
tp510
tp511
a(g505
(I38
I11
tp512
tp513
a(g505
(I38
I12
tp514
tp515
a(g505
(I38
I13
tp516
tp517
a(g505
(I38
I14
tp518
tp519
a(g505
(I38
I15
tp520
tp521
a((I38
I8
tp522
(I38
I9
tp523
tp524
a(g522
(I38
I10
tp525
tp526
a(g522
(I38
I11
tp527
tp528
a(g522
(I38
I12
tp529
tp530
a(g522
(I38
I13
tp531
tp532
a(g522
(I38
I14
tp533
tp534
a(g522
(I38
I15
tp535
tp536
a((I38
I9
tp537
(I38
I10
tp538
tp539
a(g537
(I38
I11
tp540
tp541
a(g537
(I38
I12
tp542
tp543
a(g537
(I38
I13
tp544
tp545
a(g537
(I38
I14
tp546
tp547
a(g537
(I38
I15
tp548
tp549
a((I38
I10
tp550
(I38
I11
tp551
tp552
a(g550
(I38
I12
tp553
tp554
a(g550
(I38
I13
tp555
tp556
a(g550
(I38
I14
tp557
tp558
a(g550
(I38
I15
tp559
tp560
a((I38
I11
tp561
(I38
I12
tp562
tp563
a(g561
(I38
I13
tp564
tp565
a(g561
(I38
I14
tp566
tp567
a(g561
(I38
I15
tp568
tp569
a((I38
I12
tp570
(I38
I13
tp571
tp572
a(g570
(I38
I14
tp573
tp574
a(g570
(I38
I15
tp575
tp576
a((I38
I13
tp577
(I38
I14
tp578
tp579
a(g577
(I38
I15
tp580
tp581
a((I38
I14
tp582
(I38
I15
tp583
tp584
asS'three'
p585
(lp586
sS'one'
p587
(lp588
ssS'prefix'
p589
(dp590
g73
(lp591
(I0
I0
tp592
a(I1
I0
tp593
a(I2
I0
tp594
a(I3
I0
tp595
a(I4
I0
tp596
a(I5
I0
tp597
a(I6
I0
tp598
a(I6
I1
tp599
a(I6
I2
tp600
a(I6
I3
tp601
a(I6
I4
tp602
a(I6
I5
tp603
a(I7
I5
tp604
a(I8
I0
tp605
a(I9
I1
tp606
a(I10
I0
tp607
a(I11
I0
tp608
a(I12
I0
tp609
a(I13
I0
tp610
a(I14
I0
tp611
a(I14
I1
tp612
a(I14
I2
tp613
a(I14
I3
tp614
a(I14
I4
tp615
a(I14
I5
tp616
a(I15
I5
tp617
a(I16
I0
tp618
a(I17
I0
tp619
a(I18
I0
tp620
a(I19
I0
tp621
a(I20
I0
tp622
a(I21
I0
tp623
a(I22
I0
tp624
a(I23
I0
tp625
a(I24
I0
tp626
a(I24
I1
tp627
a(I24
I2
tp628
a(I24
I3
tp629
a(I24
I4
tp630
a(I24
I5
tp631
a(I25
I0
tp632
a(I26
I7
tp633
a(I27
I0
tp634
a(I28
I0
tp635
a(I29
I0
tp636
a(I30
I0
tp637
a(I31
I0
tp638
a(I31
I1
tp639
a(I31
I2
tp640
a(I31
I3
tp641
a(I31
I4
tp642
a(I31
I5
tp643
a(I31
I6
tp644
a(I31
I7
tp645
a(I31
I8
tp646
a(I31
I9
tp647
a(I31
I10
tp648
a(I31
I11
tp649
a(I31
I12
tp650
a(I31
I13
tp651
a(I31
I14
tp652
a(I31
I15
tp653
a(I32
I0
tp654
a(I33
I0
tp655
a(I34
I0
tp656
a(I35
I0
tp657
a(I36
I0
tp658
a(I37
I0
tp659
a(I38
I0
tp660
a(I38
I1
tp661
a(I38
I2
tp662
a(I38
I3
tp663
a(I38
I4
tp664
a(I38
I5
tp665
a(I38
I6
tp666
a(I38
I7
tp667
a(I38
I8
tp668
a(I38
I9
tp669
a(I38
I10
tp670
a(I38
I11
tp671
a(I38
I12
tp672
a(I38
I13
tp673
a(I38
I14
tp674
a(I38
I15
tp675
a(I39
I0
tp676
a(I40
I0
tp677
a(I41
I0
tp678
a(I42
I0
tp679
a(I43
I0
tp680
a(I44
I0
tp681
a(I45
I0
tp682
a(I46
I0
tp683
a(I47
I1
tp684
a(I48
I0
tp685
asg585
(lp686
(I0
I2
tp687
a(I1
I2
tp688
a(I2
I2
tp689
a(I3
I0
tp690
a(I4
I0
tp691
a(I5
I0
tp692
a(I6
I17
tp693
a(I7
I5
tp694
a(I8
I0
tp695
a(I9
I3
tp696
a(I10
I0
tp697
a(I11
I0
tp698
a(I12
I0
tp699
a(I13
I0
tp700
a(I14
I17
tp701
a(I15
I5
tp702
a(I16
I0
tp703
a(I17
I2
tp704
a(I18
I0
tp705
a(I19
I2
tp706
a(I20
I0
tp707
a(I21
I2
tp708
a(I22
I0
tp709
a(I23
I0
tp710
a(I24
I17
tp711
a(I25
I0
tp712
a(I26
I9
tp713
a(I27
I2
tp714
a(I28
I0
tp715
a(I29
I2
tp716
a(I30
I0
tp717
a(I31
I2
tp718
a(I32
I0
tp719
a(I33
I0
tp720
a(I34
I2
tp721
a(I35
I0
tp722
a(I36
I2
tp723
a(I37
I0
tp724
a(I38
I2
tp725
a(I39
I0
tp726
a(I40
I0
tp727
a(I41
I2
tp728
a(I42
I0
tp729
a(I43
I2
tp730
a(I44
I0
tp731
a(I45
I2
tp732
a(I46
I0
tp733
a(I47
I3
tp734
a(I48
I0
tp735
asg587
(lp736
(I0
I0
tp737
a(I1
I0
tp738
a(I2
I0
tp739
a(I3
I0
tp740
a(I4
I0
tp741
a(I5
I0
tp742
a(I6
I0
tp743
a(I6
I1
tp744
a(I6
I2
tp745
a(I6
I3
tp746
a(I6
I4
tp747
a(I6
I5
tp748
a(I7
I5
tp749
a(I8
I0
tp750
a(I9
I1
tp751
a(I10
I0
tp752
a(I11
I0
tp753
a(I12
I0
tp754
a(I13
I0
tp755
a(I14
I0
tp756
a(I14
I1
tp757
a(I14
I2
tp758
a(I14
I3
tp759
a(I14
I4
tp760
a(I14
I5
tp761
a(I15
I5
tp762
a(I16
I0
tp763
a(I17
I0
tp764
a(I18
I0
tp765
a(I19
I0
tp766
a(I20
I0
tp767
a(I21
I0
tp768
a(I22
I0
tp769
a(I23
I0
tp770
a(I24
I0
tp771
a(I24
I1
tp772
a(I24
I2
tp773
a(I24
I3
tp774
a(I24
I4
tp775
a(I24
I5
tp776
a(I25
I0
tp777
a(I26
I7
tp778
a(I27
I0
tp779
a(I28
I0
tp780
a(I29
I0
tp781
a(I30
I0
tp782
a(I31
I0
tp783
a(I32
I0
tp784
a(I33
I0
tp785
a(I34
I0
tp786
a(I35
I0
tp787
a(I36
I0
tp788
a(I37
I0
tp789
a(I38
I0
tp790
a(I39
I0
tp791
a(I40
I0
tp792
a(I41
I0
tp793
a(I42
I0
tp794
a(I43
I0
tp795
a(I44
I0
tp796
a(I45
I0
tp797
a(I46
I0
tp798
a(I47
I1
tp799
a(I48
I0
tp800
assbsS'checksums'
p801
S'00725   105\n'
p802
s.