(dp0
S'content'
p1
(imystruct
Struct
p2
(dp3
S'omitmicro'
p4
(lp5
(I0
I1
tp6
a(I0
I2
tp7
a(I1
I2
tp8
a(I16
I17
tp9
a(I16
I19
tp10
a(I16
I21
tp11
a(I23
I24
tp12
a(I26
I27
tp13
a(I26
I29
tp14
a(I26
I31
tp15
a(I26
I33
tp16
a(I26
I34
tp17
a(I26
I36
tp18
a(I26
I38
tp19
a(I26
I40
tp20
a(I26
I41
tp21
a(I26
I43
tp22
a(I26
I45
tp23
asS'omit_one'
p24
(dp25
S'aligned'
p26
(lp27
((I7
I0
tp28
(I7
I1
tp29
tp30
a((I9
I0
tp31
(I9
I1
tp32
tp33
a((I15
I0
tp34
(I15
I1
tp35
tp36
a((I26
I0
tp37
(I26
I1
tp38
tp39
a(g37
(I26
I2
tp40
tp41
a(g37
(I26
I3
tp42
tp43
a((I26
I1
tp44
(I26
I2
tp45
tp46
a(g44
(I26
I3
tp47
tp48
a((I26
I2
tp49
(I26
I3
tp50
tp51
a((I31
I0
tp52
(I31
I1
tp53
tp54
a(g52
(I31
I2
tp55
tp56
a(g52
(I31
I3
tp57
tp58
a(g52
(I31
I4
tp59
tp60
a(g52
(I31
I5
tp61
tp62
a(g52
(I31
I6
tp63
tp64
a(g52
(I31
I7
tp65
tp66
a(g52
(I31
I8
tp67
tp68
a(g52
(I31
I9
tp69
tp70
a(g52
(I31
I10
tp71
tp72
a(g52
(I31
I11
tp73
tp74
a(g52
(I31
I12
tp75
tp76
a(g52
(I31
I13
tp77
tp78
a(g52
(I31
I14
tp79
tp80
a(g52
(I31
I15
tp81
tp82
a((I31
I1
tp83
(I31
I2
tp84
tp85
a(g83
(I31
I3
tp86
tp87
a(g83
(I31
I4
tp88
tp89
a(g83
(I31
I5
tp90
tp91
a(g83
(I31
I6
tp92
tp93
a(g83
(I31
I7
tp94
tp95
a(g83
(I31
I8
tp96
tp97
a(g83
(I31
I9
tp98
tp99
a(g83
(I31
I10
tp100
tp101
a(g83
(I31
I11
tp102
tp103
a(g83
(I31
I12
tp104
tp105
a(g83
(I31
I13
tp106
tp107
a(g83
(I31
I14
tp108
tp109
a(g83
(I31
I15
tp110
tp111
a((I31
I2
tp112
(I31
I3
tp113
tp114
a(g112
(I31
I4
tp115
tp116
a(g112
(I31
I5
tp117
tp118
a(g112
(I31
I6
tp119
tp120
a(g112
(I31
I7
tp121
tp122
a(g112
(I31
I8
tp123
tp124
a(g112
(I31
I9
tp125
tp126
a(g112
(I31
I10
tp127
tp128
a(g112
(I31
I11
tp129
tp130
a(g112
(I31
I12
tp131
tp132
a(g112
(I31
I13
tp133
tp134
a(g112
(I31
I14
tp135
tp136
a(g112
(I31
I15
tp137
tp138
a((I31
I3
tp139
(I31
I4
tp140
tp141
a(g139
(I31
I5
tp142
tp143
a(g139
(I31
I6
tp144
tp145
a(g139
(I31
I7
tp146
tp147
a(g139
(I31
I8
tp148
tp149
a(g139
(I31
I9
tp150
tp151
a(g139
(I31
I10
tp152
tp153
a(g139
(I31
I11
tp154
tp155
a(g139
(I31
I12
tp156
tp157
a(g139
(I31
I13
tp158
tp159
a(g139
(I31
I14
tp160
tp161
a(g139
(I31
I15
tp162
tp163
a((I31
I4
tp164
(I31
I5
tp165
tp166
a(g164
(I31
I6
tp167
tp168
a(g164
(I31
I7
tp169
tp170
a(g164
(I31
I8
tp171
tp172
a(g164
(I31
I9
tp173
tp174
a(g164
(I31
I10
tp175
tp176
a(g164
(I31
I11
tp177
tp178
a(g164
(I31
I12
tp179
tp180
a(g164
(I31
I13
tp181
tp182
a(g164
(I31
I14
tp183
tp184
a(g164
(I31
I15
tp185
tp186
a((I31
I5
tp187
(I31
I6
tp188
tp189
a(g187
(I31
I7
tp190
tp191
a(g187
(I31
I8
tp192
tp193
a(g187
(I31
I9
tp194
tp195
a(g187
(I31
I10
tp196
tp197
a(g187
(I31
I11
tp198
tp199
a(g187
(I31
I12
tp200
tp201
a(g187
(I31
I13
tp202
tp203
a(g187
(I31
I14
tp204
tp205
a(g187
(I31
I15
tp206
tp207
a((I31
I6
tp208
(I31
I7
tp209
tp210
a(g208
(I31
I8
tp211
tp212
a(g208
(I31
I9
tp213
tp214
a(g208
(I31
I10
tp215
tp216
a(g208
(I31
I11
tp217
tp218
a(g208
(I31
I12
tp219
tp220
a(g208
(I31
I13
tp221
tp222
a(g208
(I31
I14
tp223
tp224
a(g208
(I31
I15
tp225
tp226
a((I31
I7
tp227
(I31
I8
tp228
tp229
a(g227
(I31
I9
tp230
tp231
a(g227
(I31
I10
tp232
tp233
a(g227
(I31
I11
tp234
tp235
a(g227
(I31
I12
tp236
tp237
a(g227
(I31
I13
tp238
tp239
a(g227
(I31
I14
tp240
tp241
a(g227
(I31
I15
tp242
tp243
a((I31
I8
tp244
(I31
I9
tp245
tp246
a(g244
(I31
I10
tp247
tp248
a(g244
(I31
I11
tp249
tp250
a(g244
(I31
I12
tp251
tp252
a(g244
(I31
I13
tp253
tp254
a(g244
(I31
I14
tp255
tp256
a(g244
(I31
I15
tp257
tp258
a((I31
I9
tp259
(I31
I10
tp260
tp261
a(g259
(I31
I11
tp262
tp263
a(g259
(I31
I12
tp264
tp265
a(g259
(I31
I13
tp266
tp267
a(g259
(I31
I14
tp268
tp269
a(g259
(I31
I15
tp270
tp271
a((I31
I10
tp272
(I31
I11
tp273
tp274
a(g272
(I31
I12
tp275
tp276
a(g272
(I31
I13
tp277
tp278
a(g272
(I31
I14
tp279
tp280
a(g272
(I31
I15
tp281
tp282
a((I31
I11
tp283
(I31
I12
tp284
tp285
a(g283
(I31
I13
tp286
tp287
a(g283
(I31
I14
tp288
tp289
a(g283
(I31
I15
tp290
tp291
a((I31
I12
tp292
(I31
I13
tp293
tp294
a(g292
(I31
I14
tp295
tp296
a(g292
(I31
I15
tp297
tp298
a((I31
I13
tp299
(I31
I14
tp300
tp301
a(g299
(I31
I15
tp302
tp303
a((I31
I14
tp304
(I31
I15
tp305
tp306
a((I38
I0
tp307
(I38
I1
tp308
tp309
a(g307
(I38
I2
tp310
tp311
a(g307
(I38
I3
tp312
tp313
a(g307
(I38
I4
tp314
tp315
a(g307
(I38
I5
tp316
tp317
a(g307
(I38
I6
tp318
tp319
a(g307
(I38
I7
tp320
tp321
a(g307
(I38
I8
tp322
tp323
a(g307
(I38
I9
tp324
tp325
a(g307
(I38
I10
tp326
tp327
a(g307
(I38
I11
tp328
tp329
a(g307
(I38
I12
tp330
tp331
a(g307
(I38
I13
tp332
tp333
a(g307
(I38
I14
tp334
tp335
a(g307
(I38
I15
tp336
tp337
a((I38
I1
tp338
(I38
I2
tp339
tp340
a(g338
(I38
I3
tp341
tp342
a(g338
(I38
I4
tp343
tp344
a(g338
(I38
I5
tp345
tp346
a(g338
(I38
I6
tp347
tp348
a(g338
(I38
I7
tp349
tp350
a(g338
(I38
I8
tp351
tp352
a(g338
(I38
I9
tp353
tp354
a(g338
(I38
I10
tp355
tp356
a(g338
(I38
I11
tp357
tp358
a(g338
(I38
I12
tp359
tp360
a(g338
(I38
I13
tp361
tp362
a(g338
(I38
I14
tp363
tp364
a(g338
(I38
I15
tp365
tp366
a((I38
I2
tp367
(I38
I3
tp368
tp369
a(g367
(I38
I4
tp370
tp371
a(g367
(I38
I5
tp372
tp373
a(g367
(I38
I6
tp374
tp375
a(g367
(I38
I7
tp376
tp377
a(g367
(I38
I8
tp378
tp379
a(g367
(I38
I9
tp380
tp381
a(g367
(I38
I10
tp382
tp383
a(g367
(I38
I11
tp384
tp385
a(g367
(I38
I12
tp386
tp387
a(g367
(I38
I13
tp388
tp389
a(g367
(I38
I14
tp390
tp391
a(g367
(I38
I15
tp392
tp393
a((I38
I3
tp394
(I38
I4
tp395
tp396
a(g394
(I38
I5
tp397
tp398
a(g394
(I38
I6
tp399
tp400
a(g394
(I38
I7
tp401
tp402
a(g394
(I38
I8
tp403
tp404
a(g394
(I38
I9
tp405
tp406
a(g394
(I38
I10
tp407
tp408
a(g394
(I38
I11
tp409
tp410
a(g394
(I38
I12
tp411
tp412
a(g394
(I38
I13
tp413
tp414
a(g394
(I38
I14
tp415
tp416
a(g394
(I38
I15
tp417
tp418
a((I38
I4
tp419
(I38
I5
tp420
tp421
a(g419
(I38
I6
tp422
tp423
a(g419
(I38
I7
tp424
tp425
a(g419
(I38
I8
tp426
tp427
a(g419
(I38
I9
tp428
tp429
a(g419
(I38
I10
tp430
tp431
a(g419
(I38
I11
tp432
tp433
a(g419
(I38
I12
tp434
tp435
a(g419
(I38
I13
tp436
tp437
a(g419
(I38
I14
tp438
tp439
a(g419
(I38
I15
tp440
tp441
a((I38
I5
tp442
(I38
I6
tp443
tp444
a(g442
(I38
I7
tp445
tp446
a(g442
(I38
I8
tp447
tp448
a(g442
(I38
I9
tp449
tp450
a(g442
(I38
I10
tp451
tp452
a(g442
(I38
I11
tp453
tp454
a(g442
(I38
I12
tp455
tp456
a(g442
(I38
I13
tp457
tp458
a(g442
(I38
I14
tp459
tp460
a(g442
(I38
I15
tp461
tp462
a((I38
I6
tp463
(I38
I7
tp464
tp465
a(g463
(I38
I8
tp466
tp467
a(g463
(I38
I9
tp468
tp469
a(g463
(I38
I10
tp470
tp471
a(g463
(I38
I11
tp472
tp473
a(g463
(I38
I12
tp474
tp475
a(g463
(I38
I13
tp476
tp477
a(g463
(I38
I14
tp478
tp479
a(g463
(I38
I15
tp480
tp481
a((I38
I7
tp482
(I38
I8
tp483
tp484
a(g482
(I38
I9
tp485
tp486
a(g482
(I38
I10
tp487
tp488
a(g482
(I38
I11
tp489
tp490
a(g482
(I38
I12
tp491
tp492
a(g482
(I38
I13
tp493
tp494
a(g482
(I38
I14
tp495
tp496
a(g482
(I38
I15
tp497
tp498
a((I38
I8
tp499
(I38
I9
tp500
tp501
a(g499
(I38
I10
tp502
tp503
a(g499
(I38
I11
tp504
tp505
a(g499
(I38
I12
tp506
tp507
a(g499
(I38
I13
tp508
tp509
a(g499
(I38
I14
tp510
tp511
a(g499
(I38
I15
tp512
tp513
a((I38
I9
tp514
(I38
I10
tp515
tp516
a(g514
(I38
I11
tp517
tp518
a(g514
(I38
I12
tp519
tp520
a(g514
(I38
I13
tp521
tp522
a(g514
(I38
I14
tp523
tp524
a(g514
(I38
I15
tp525
tp526
a((I38
I10
tp527
(I38
I11
tp528
tp529
a(g527
(I38
I12
tp530
tp531
a(g527
(I38
I13
tp532
tp533
a(g527
(I38
I14
tp534
tp535
a(g527
(I38
I15
tp536
tp537
a((I38
I11
tp538
(I38
I12
tp539
tp540
a(g538
(I38
I13
tp541
tp542
a(g538
(I38
I14
tp543
tp544
a(g538
(I38
I15
tp545
tp546
a((I38
I12
tp547
(I38
I13
tp548
tp549
a(g547
(I38
I14
tp550
tp551
a(g547
(I38
I15
tp552
tp553
a((I38
I13
tp554
(I38
I14
tp555
tp556
a(g554
(I38
I15
tp557
tp558
a((I38
I14
tp559
(I38
I15
tp560
tp561
a((I47
I0
tp562
(I47
I1
tp563
tp564
asS'three'
p565
(lp566
((I0
I0
tp567
(I0
I1
tp568
tp569
a(g567
(I0
I2
tp570
tp571
a((I0
I1
tp572
(I0
I2
tp573
tp574
a((I1
I0
tp575
(I1
I1
tp576
tp577
a(g575
(I1
I2
tp578
tp579
a((I1
I1
tp580
(I1
I2
tp581
tp582
a((I2
I0
tp583
(I2
I1
tp584
tp585
a(g583
(I2
I2
tp586
tp587
a((I2
I1
tp588
(I2
I2
tp589
tp590
a((I6
I2
tp591
(I6
I3
tp592
tp593
a(g591
(I6
I4
tp594
tp595
a(g591
(I6
I5
tp596
tp597
a(g591
(I6
I6
tp598
tp599
a(g591
(I6
I7
tp600
tp601
a(g591
(I6
I8
tp602
tp603
a((I6
I5
tp604
(I6
I6
tp605
tp606
a(g604
(I6
I7
tp607
tp608
a(g604
(I6
I8
tp609
tp610
a((I7
I0
tp611
(I7
I1
tp612
tp613
a((I9
I0
tp614
(I9
I1
tp615
tp616
a(g614
(I9
I2
tp617
tp618
a(g614
(I9
I3
tp619
tp620
a((I9
I1
tp621
(I9
I2
tp622
tp623
a(g621
(I9
I3
tp624
tp625
a((I9
I2
tp626
(I9
I3
tp627
tp628
a((I14
I2
tp629
(I14
I3
tp630
tp631
a(g629
(I14
I4
tp632
tp633
a(g629
(I14
I5
tp634
tp635
a(g629
(I14
I6
tp636
tp637
a(g629
(I14
I7
tp638
tp639
a(g629
(I14
I8
tp640
tp641
a((I14
I5
tp642
(I14
I6
tp643
tp644
a(g642
(I14
I7
tp645
tp646
a(g642
(I14
I8
tp647
tp648
a((I15
I0
tp649
(I15
I1
tp650
tp651
a((I17
I0
tp652
(I17
I1
tp653
tp654
a(g652
(I17
I2
tp655
tp656
a((I17
I1
tp657
(I17
I2
tp658
tp659
a((I19
I0
tp660
(I19
I1
tp661
tp662
a(g660
(I19
I2
tp663
tp664
a((I19
I1
tp665
(I19
I2
tp666
tp667
a((I21
I0
tp668
(I21
I1
tp669
tp670
a(g668
(I21
I2
tp671
tp672
a((I21
I1
tp673
(I21
I2
tp674
tp675
a((I24
I2
tp676
(I24
I3
tp677
tp678
a(g676
(I24
I4
tp679
tp680
a(g676
(I24
I5
tp681
tp682
a(g676
(I24
I6
tp683
tp684
a(g676
(I24
I7
tp685
tp686
a(g676
(I24
I8
tp687
tp688
a((I24
I5
tp689
(I24
I6
tp690
tp691
a(g689
(I24
I7
tp692
tp693
a(g689
(I24
I8
tp694
tp695
a((I26
I0
tp696
(I26
I1
tp697
tp698
a(g696
(I26
I2
tp699
tp700
a(g696
(I26
I3
tp701
tp702
a(g696
(I26
I4
tp703
tp704
a(g696
(I26
I5
tp705
tp706
a((I26
I1
tp707
(I26
I2
tp708
tp709
a(g707
(I26
I3
tp710
tp711
a(g707
(I26
I4
tp712
tp713
a(g707
(I26
I5
tp714
tp715
a((I26
I2
tp716
(I26
I3
tp717
tp718
a(g716
(I26
I4
tp719
tp720
a(g716
(I26
I5
tp721
tp722
a((I26
I3
tp723
(I26
I4
tp724
tp725
a(g723
(I26
I5
tp726
tp727
a((I26
I4
tp728
(I26
I5
tp729
tp730
a((I27
I0
tp731
(I27
I1
tp732
tp733
a(g731
(I27
I2
tp734
tp735
a((I27
I1
tp736
(I27
I2
tp737
tp738
a((I29
I0
tp739
(I29
I1
tp740
tp741
a(g739
(I29
I2
tp742
tp743
a((I29
I1
tp744
(I29
I2
tp745
tp746
a((I31
I0
tp747
(I31
I1
tp748
tp749
a(g747
(I31
I2
tp750
tp751
a((I31
I1
tp752
(I31
I2
tp753
tp754
a((I34
I0
tp755
(I34
I1
tp756
tp757
a(g755
(I34
I2
tp758
tp759
a((I34
I1
tp760
(I34
I2
tp761
tp762
a((I36
I0
tp763
(I36
I1
tp764
tp765
a(g763
(I36
I2
tp766
tp767
a((I36
I1
tp768
(I36
I2
tp769
tp770
a((I38
I0
tp771
(I38
I1
tp772
tp773
a(g771
(I38
I2
tp774
tp775
a((I38
I1
tp776
(I38
I2
tp777
tp778
a((I41
I0
tp779
(I41
I1
tp780
tp781
a(g779
(I41
I2
tp782
tp783
a((I41
I1
tp784
(I41
I2
tp785
tp786
a((I43
I0
tp787
(I43
I1
tp788
tp789
a(g787
(I43
I2
tp790
tp791
a((I43
I1
tp792
(I43
I2
tp793
tp794
a((I45
I0
tp795
(I45
I1
tp796
tp797
a(g795
(I45
I2
tp798
tp799
a((I45
I1
tp800
(I45
I2
tp801
tp802
a((I47
I0
tp803
(I47
I1
tp804
tp805
a(g803
(I47
I2
tp806
tp807
a(g803
(I47
I3
tp808
tp809
a((I47
I1
tp810
(I47
I2
tp811
tp812
a(g810
(I47
I3
tp813
tp814
a((I47
I2
tp815
(I47
I3
tp816
tp817
asS'one'
p818
(lp819
((I7
I0
tp820
(I7
I1
tp821
tp822
a((I9
I0
tp823
(I9
I1
tp824
tp825
a((I15
I0
tp826
(I15
I1
tp827
tp828
a((I26
I0
tp829
(I26
I1
tp830
tp831
a(g829
(I26
I2
tp832
tp833
a(g829
(I26
I3
tp834
tp835
a((I26
I1
tp836
(I26
I2
tp837
tp838
a(g836
(I26
I3
tp839
tp840
a((I26
I2
tp841
(I26
I3
tp842
tp843
a((I47
I0
tp844
(I47
I1
tp845
tp846
assS'prefix'
p847
(dp848
g26
(lp849
(I0
I0
tp850
a(I1
I0
tp851
a(I2
I0
tp852
a(I3
I0
tp853
a(I4
I0
tp854
a(I5
I0
tp855
a(I6
I0
tp856
a(I6
I1
tp857
a(I6
I2
tp858
a(I6
I3
tp859
a(I6
I4
tp860
a(I6
I5
tp861
a(I7
I0
tp862
a(I7
I1
tp863
a(I7
I2
tp864
a(I7
I3
tp865
a(I7
I4
tp866
a(I7
I5
tp867
a(I8
I0
tp868
a(I9
I0
tp869
a(I9
I1
tp870
a(I10
I0
tp871
a(I11
I0
tp872
a(I12
I0
tp873
a(I13
I0
tp874
a(I14
I0
tp875
a(I14
I1
tp876
a(I14
I2
tp877
a(I14
I3
tp878
a(I14
I4
tp879
a(I14
I5
tp880
a(I15
I0
tp881
a(I15
I1
tp882
a(I15
I2
tp883
a(I15
I3
tp884
a(I15
I4
tp885
a(I15
I5
tp886
a(I16
I0
tp887
a(I17
I0
tp888
a(I18
I0
tp889
a(I19
I0
tp890
a(I20
I0
tp891
a(I21
I0
tp892
a(I22
I0
tp893
a(I23
I0
tp894
a(I24
I0
tp895
a(I24
I1
tp896
a(I24
I2
tp897
a(I24
I3
tp898
a(I24
I4
tp899
a(I24
I5
tp900
a(I25
I0
tp901
a(I26
I0
tp902
a(I26
I1
tp903
a(I26
I2
tp904
a(I26
I3
tp905
a(I26
I4
tp906
a(I26
I5
tp907
a(I26
I6
tp908
a(I26
I7
tp909
a(I27
I0
tp910
a(I28
I0
tp911
a(I29
I0
tp912
a(I30
I0
tp913
a(I31
I0
tp914
a(I31
I1
tp915
a(I31
I2
tp916
a(I31
I3
tp917
a(I31
I4
tp918
a(I31
I5
tp919
a(I31
I6
tp920
a(I31
I7
tp921
a(I31
I8
tp922
a(I31
I9
tp923
a(I31
I10
tp924
a(I31
I11
tp925
a(I31
I12
tp926
a(I31
I13
tp927
a(I31
I14
tp928
a(I31
I15
tp929
a(I32
I0
tp930
a(I33
I0
tp931
a(I34
I0
tp932
a(I35
I0
tp933
a(I36
I0
tp934
a(I37
I0
tp935
a(I38
I0
tp936
a(I38
I1
tp937
a(I38
I2
tp938
a(I38
I3
tp939
a(I38
I4
tp940
a(I38
I5
tp941
a(I38
I6
tp942
a(I38
I7
tp943
a(I38
I8
tp944
a(I38
I9
tp945
a(I38
I10
tp946
a(I38
I11
tp947
a(I38
I12
tp948
a(I38
I13
tp949
a(I38
I14
tp950
a(I38
I15
tp951
a(I39
I0
tp952
a(I40
I0
tp953
a(I41
I0
tp954
a(I42
I0
tp955
a(I43
I0
tp956
a(I44
I0
tp957
a(I45
I0
tp958
a(I46
I0
tp959
a(I47
I0
tp960
a(I47
I1
tp961
a(I48
I0
tp962
asg565
(lp963
(I0
I0
tp964
a(I0
I1
tp965
a(I0
I2
tp966
a(I1
I0
tp967
a(I1
I1
tp968
a(I1
I2
tp969
a(I2
I0
tp970
a(I2
I1
tp971
a(I2
I2
tp972
a(I3
I0
tp973
a(I4
I0
tp974
a(I5
I0
tp975
a(I6
I0
tp976
a(I6
I1
tp977
a(I6
I2
tp978
a(I6
I3
tp979
a(I6
I4
tp980
a(I6
I5
tp981
a(I6
I6
tp982
a(I6
I7
tp983
a(I6
I8
tp984
a(I6
I9
tp985
a(I6
I10
tp986
a(I6
I11
tp987
a(I6
I12
tp988
a(I6
I13
tp989
a(I6
I14
tp990
a(I6
I15
tp991
a(I6
I16
tp992
a(I6
I17
tp993
a(I7
I0
tp994
a(I7
I1
tp995
a(I7
I2
tp996
a(I7
I3
tp997
a(I7
I4
tp998
a(I7
I5
tp999
a(I8
I0
tp1000
a(I9
I0
tp1001
a(I9
I1
tp1002
a(I9
I2
tp1003
a(I9
I3
tp1004
a(I10
I0
tp1005
a(I11
I0
tp1006
a(I12
I0
tp1007
a(I13
I0
tp1008
a(I14
I0
tp1009
a(I14
I1
tp1010
a(I14
I2
tp1011
a(I14
I3
tp1012
a(I14
I4
tp1013
a(I14
I5
tp1014
a(I14
I6
tp1015
a(I14
I7
tp1016
a(I14
I8
tp1017
a(I14
I9
tp1018
a(I14
I10
tp1019
a(I14
I11
tp1020
a(I14
I12
tp1021
a(I14
I13
tp1022
a(I14
I14
tp1023
a(I14
I15
tp1024
a(I14
I16
tp1025
a(I14
I17
tp1026
a(I15
I0
tp1027
a(I15
I1
tp1028
a(I15
I2
tp1029
a(I15
I3
tp1030
a(I15
I4
tp1031
a(I15
I5
tp1032
a(I16
I0
tp1033
a(I17
I0
tp1034
a(I17
I1
tp1035
a(I17
I2
tp1036
a(I18
I0
tp1037
a(I19
I0
tp1038
a(I19
I1
tp1039
a(I19
I2
tp1040
a(I20
I0
tp1041
a(I21
I0
tp1042
a(I21
I1
tp1043
a(I21
I2
tp1044
a(I22
I0
tp1045
a(I23
I0
tp1046
a(I24
I0
tp1047
a(I24
I1
tp1048
a(I24
I2
tp1049
a(I24
I3
tp1050
a(I24
I4
tp1051
a(I24
I5
tp1052
a(I24
I6
tp1053
a(I24
I7
tp1054
a(I24
I8
tp1055
a(I24
I9
tp1056
a(I24
I10
tp1057
a(I24
I11
tp1058
a(I24
I12
tp1059
a(I24
I13
tp1060
a(I24
I14
tp1061
a(I24
I15
tp1062
a(I24
I16
tp1063
a(I24
I17
tp1064
a(I25
I0
tp1065
a(I26
I0
tp1066
a(I26
I1
tp1067
a(I26
I2
tp1068
a(I26
I3
tp1069
a(I26
I4
tp1070
a(I26
I5
tp1071
a(I26
I6
tp1072
a(I26
I7
tp1073
a(I26
I8
tp1074
a(I26
I9
tp1075
a(I27
I0
tp1076
a(I27
I1
tp1077
a(I27
I2
tp1078
a(I28
I0
tp1079
a(I29
I0
tp1080
a(I29
I1
tp1081
a(I29
I2
tp1082
a(I30
I0
tp1083
a(I31
I0
tp1084
a(I31
I1
tp1085
a(I31
I2
tp1086
a(I32
I0
tp1087
a(I33
I0
tp1088
a(I34
I0
tp1089
a(I34
I1
tp1090
a(I34
I2
tp1091
a(I35
I0
tp1092
a(I36
I0
tp1093
a(I36
I1
tp1094
a(I36
I2
tp1095
a(I37
I0
tp1096
a(I38
I0
tp1097
a(I38
I1
tp1098
a(I38
I2
tp1099
a(I39
I0
tp1100
a(I40
I0
tp1101
a(I41
I0
tp1102
a(I41
I1
tp1103
a(I41
I2
tp1104
a(I42
I0
tp1105
a(I43
I0
tp1106
a(I43
I1
tp1107
a(I43
I2
tp1108
a(I44
I0
tp1109
a(I45
I0
tp1110
a(I45
I1
tp1111
a(I45
I2
tp1112
a(I46
I0
tp1113
a(I47
I0
tp1114
a(I47
I1
tp1115
a(I47
I2
tp1116
a(I47
I3
tp1117
a(I48
I0
tp1118
asg818
(lp1119
(I0
I0
tp1120
a(I1
I0
tp1121
a(I2
I0
tp1122
a(I3
I0
tp1123
a(I4
I0
tp1124
a(I5
I0
tp1125
a(I6
I0
tp1126
a(I6
I1
tp1127
a(I6
I2
tp1128
a(I6
I3
tp1129
a(I6
I4
tp1130
a(I6
I5
tp1131
a(I7
I0
tp1132
a(I7
I1
tp1133
a(I7
I2
tp1134
a(I7
I3
tp1135
a(I7
I4
tp1136
a(I7
I5
tp1137
a(I8
I0
tp1138
a(I9
I0
tp1139
a(I9
I1
tp1140
a(I10
I0
tp1141
a(I11
I0
tp1142
a(I12
I0
tp1143
a(I13
I0
tp1144
a(I14
I0
tp1145
a(I14
I1
tp1146
a(I14
I2
tp1147
a(I14
I3
tp1148
a(I14
I4
tp1149
a(I14
I5
tp1150
a(I15
I0
tp1151
a(I15
I1
tp1152
a(I15
I2
tp1153
a(I15
I3
tp1154
a(I15
I4
tp1155
a(I15
I5
tp1156
a(I16
I0
tp1157
a(I17
I0
tp1158
a(I18
I0
tp1159
a(I19
I0
tp1160
a(I20
I0
tp1161
a(I21
I0
tp1162
a(I22
I0
tp1163
a(I23
I0
tp1164
a(I24
I0
tp1165
a(I24
I1
tp1166
a(I24
I2
tp1167
a(I24
I3
tp1168
a(I24
I4
tp1169
a(I24
I5
tp1170
a(I25
I0
tp1171
a(I26
I0
tp1172
a(I26
I1
tp1173
a(I26
I2
tp1174
a(I26
I3
tp1175
a(I26
I4
tp1176
a(I26
I5
tp1177
a(I26
I6
tp1178
a(I26
I7
tp1179
a(I27
I0
tp1180
a(I28
I0
tp1181
a(I29
I0
tp1182
a(I30
I0
tp1183
a(I31
I0
tp1184
a(I32
I0
tp1185
a(I33
I0
tp1186
a(I34
I0
tp1187
a(I35
I0
tp1188
a(I36
I0
tp1189
a(I37
I0
tp1190
a(I38
I0
tp1191
a(I39
I0
tp1192
a(I40
I0
tp1193
a(I41
I0
tp1194
a(I42
I0
tp1195
a(I43
I0
tp1196
a(I44
I0
tp1197
a(I45
I0
tp1198
a(I46
I0
tp1199
a(I47
I0
tp1200
a(I47
I1
tp1201
a(I48
I0
tp1202
assbsS'checksums'
p1203
S'00725   105\n'
p1204
s.