(dp0
S'content'
p1
(imystruct
Struct
p2
(dp3
S'omitmicro'
p4
(lp5
(I1
I2
tp6
a(I1
I3
tp7
a(I1
I4
tp8
a(I1
I5
tp9
a(I1
I6
tp10
a(I1
I7
tp11
a(I2
I3
tp12
a(I2
I4
tp13
a(I2
I5
tp14
a(I2
I6
tp15
a(I2
I7
tp16
a(I3
I4
tp17
a(I3
I5
tp18
a(I3
I6
tp19
a(I3
I7
tp20
a(I4
I5
tp21
a(I4
I6
tp22
a(I4
I7
tp23
a(I5
I6
tp24
a(I5
I7
tp25
a(I6
I7
tp26
a(I10
I11
tp27
a(I10
I12
tp28
a(I10
I13
tp29
a(I10
I14
tp30
a(I10
I16
tp31
a(I10
I17
tp32
a(I10
I18
tp33
a(I10
I20
tp34
a(I10
I21
tp35
a(I10
I22
tp36
a(I10
I23
tp37
a(I10
I24
tp38
a(I10
I25
tp39
a(I10
I26
tp40
a(I10
I27
tp41
a(I10
I28
tp42
a(I10
I29
tp43
a(I10
I30
tp44
a(I10
I31
tp45
a(I10
I32
tp46
a(I10
I33
tp47
a(I10
I34
tp48
a(I10
I35
tp49
a(I10
I36
tp50
a(I10
I37
tp51
a(I10
I38
tp52
a(I10
I39
tp53
a(I10
I40
tp54
a(I10
I41
tp55
a(I10
I42
tp56
a(I10
I44
tp57
a(I10
I46
tp58
a(I10
I47
tp59
a(I10
I49
tp60
a(I10
I50
tp61
a(I10
I51
tp62
a(I10
I52
tp63
a(I10
I53
tp64
a(I10
I54
tp65
a(I10
I55
tp66
a(I10
I56
tp67
a(I10
I57
tp68
a(I10
I58
tp69
a(I10
I59
tp70
a(I10
I60
tp71
a(I10
I61
tp72
a(I10
I62
tp73
a(I10
I63
tp74
a(I10
I64
tp75
a(I10
I65
tp76
a(I10
I66
tp77
a(I10
I69
tp78
a(I10
I70
tp79
a(I10
I71
tp80
a(I10
I73
tp81
a(I10
I74
tp82
a(I10
I76
tp83
a(I10
I77
tp84
a(I10
I78
tp85
a(I10
I79
tp86
a(I11
I12
tp87
a(I11
I13
tp88
a(I11
I14
tp89
a(I11
I16
tp90
a(I11
I17
tp91
a(I11
I18
tp92
a(I11
I20
tp93
a(I11
I21
tp94
a(I11
I22
tp95
a(I11
I23
tp96
a(I11
I24
tp97
a(I11
I25
tp98
a(I13
I14
tp99
a(I17
I18
tp100
a(I20
I21
tp101
a(I20
I22
tp102
a(I20
I23
tp103
a(I20
I24
tp104
a(I20
I25
tp105
a(I20
I26
tp106
a(I20
I27
tp107
a(I20
I28
tp108
a(I20
I29
tp109
a(I20
I30
tp110
a(I20
I31
tp111
a(I20
I32
tp112
a(I20
I33
tp113
a(I20
I34
tp114
a(I20
I35
tp115
a(I20
I36
tp116
a(I20
I37
tp117
a(I20
I38
tp118
a(I20
I39
tp119
a(I20
I40
tp120
a(I20
I41
tp121
a(I20
I42
tp122
a(I20
I44
tp123
a(I20
I46
tp124
a(I20
I47
tp125
a(I20
I49
tp126
a(I20
I50
tp127
a(I20
I51
tp128
a(I20
I52
tp129
a(I20
I53
tp130
a(I20
I54
tp131
a(I20
I55
tp132
a(I20
I56
tp133
a(I20
I57
tp134
a(I20
I58
tp135
a(I20
I59
tp136
a(I20
I60
tp137
a(I20
I61
tp138
a(I20
I62
tp139
a(I20
I63
tp140
a(I20
I64
tp141
a(I20
I65
tp142
a(I20
I66
tp143
a(I20
I69
tp144
a(I20
I70
tp145
a(I20
I71
tp146
a(I20
I73
tp147
a(I20
I74
tp148
a(I20
I76
tp149
a(I20
I77
tp150
a(I20
I78
tp151
a(I20
I79
tp152
a(I21
I22
tp153
a(I21
I23
tp154
a(I21
I24
tp155
a(I21
I25
tp156
a(I21
I26
tp157
a(I21
I27
tp158
a(I21
I28
tp159
a(I21
I29
tp160
a(I21
I30
tp161
a(I21
I31
tp162
a(I21
I32
tp163
a(I21
I33
tp164
a(I21
I34
tp165
a(I21
I35
tp166
a(I21
I36
tp167
a(I21
I37
tp168
a(I21
I38
tp169
a(I21
I39
tp170
a(I21
I40
tp171
a(I21
I41
tp172
a(I21
I42
tp173
a(I21
I44
tp174
a(I21
I46
tp175
a(I21
I47
tp176
a(I21
I49
tp177
a(I21
I50
tp178
a(I21
I51
tp179
a(I21
I52
tp180
a(I21
I53
tp181
a(I21
I54
tp182
a(I21
I55
tp183
a(I21
I56
tp184
a(I21
I57
tp185
a(I21
I58
tp186
a(I21
I59
tp187
a(I21
I60
tp188
a(I21
I61
tp189
a(I21
I62
tp190
a(I21
I63
tp191
a(I21
I64
tp192
a(I21
I65
tp193
a(I21
I66
tp194
a(I21
I69
tp195
a(I21
I70
tp196
a(I21
I71
tp197
a(I21
I73
tp198
a(I21
I74
tp199
a(I21
I76
tp200
a(I21
I77
tp201
a(I21
I78
tp202
a(I21
I79
tp203
a(I22
I23
tp204
a(I22
I24
tp205
a(I22
I25
tp206
a(I22
I26
tp207
a(I22
I27
tp208
a(I22
I28
tp209
a(I22
I29
tp210
a(I22
I30
tp211
a(I22
I31
tp212
a(I22
I32
tp213
a(I22
I33
tp214
a(I22
I34
tp215
a(I22
I35
tp216
a(I22
I36
tp217
a(I22
I37
tp218
a(I22
I38
tp219
a(I22
I39
tp220
a(I22
I40
tp221
a(I22
I41
tp222
a(I22
I42
tp223
a(I22
I44
tp224
a(I22
I46
tp225
a(I22
I47
tp226
a(I22
I49
tp227
a(I22
I50
tp228
a(I22
I51
tp229
a(I22
I52
tp230
a(I22
I53
tp231
a(I22
I54
tp232
a(I22
I55
tp233
a(I22
I56
tp234
a(I22
I57
tp235
a(I22
I58
tp236
a(I22
I59
tp237
a(I22
I60
tp238
a(I22
I61
tp239
a(I22
I62
tp240
a(I22
I63
tp241
a(I22
I64
tp242
a(I22
I65
tp243
a(I22
I66
tp244
a(I22
I69
tp245
a(I22
I70
tp246
a(I22
I71
tp247
a(I22
I73
tp248
a(I22
I74
tp249
a(I22
I76
tp250
a(I22
I77
tp251
a(I22
I78
tp252
a(I22
I79
tp253
a(I23
I24
tp254
a(I23
I25
tp255
a(I23
I26
tp256
a(I23
I27
tp257
a(I23
I28
tp258
a(I23
I29
tp259
a(I23
I30
tp260
a(I23
I31
tp261
a(I23
I32
tp262
a(I23
I33
tp263
a(I23
I34
tp264
a(I23
I35
tp265
a(I23
I36
tp266
a(I23
I37
tp267
a(I23
I38
tp268
a(I23
I39
tp269
a(I23
I40
tp270
a(I23
I41
tp271
a(I23
I42
tp272
a(I23
I44
tp273
a(I23
I46
tp274
a(I23
I47
tp275
a(I23
I49
tp276
a(I23
I50
tp277
a(I23
I51
tp278
a(I23
I52
tp279
a(I23
I53
tp280
a(I23
I54
tp281
a(I23
I55
tp282
a(I23
I56
tp283
a(I23
I57
tp284
a(I23
I58
tp285
a(I23
I59
tp286
a(I23
I60
tp287
a(I23
I61
tp288
a(I23
I62
tp289
a(I23
I63
tp290
a(I23
I64
tp291
a(I23
I65
tp292
a(I23
I66
tp293
a(I23
I69
tp294
a(I23
I70
tp295
a(I23
I71
tp296
a(I23
I73
tp297
a(I23
I74
tp298
a(I23
I76
tp299
a(I23
I77
tp300
a(I23
I78
tp301
a(I23
I79
tp302
a(I26
I27
tp303
a(I26
I28
tp304
a(I26
I29
tp305
a(I26
I30
tp306
a(I26
I31
tp307
a(I26
I32
tp308
a(I26
I33
tp309
a(I26
I34
tp310
a(I26
I35
tp311
a(I26
I36
tp312
a(I26
I37
tp313
a(I26
I38
tp314
a(I26
I39
tp315
a(I26
I40
tp316
a(I26
I41
tp317
a(I26
I42
tp318
a(I26
I44
tp319
a(I26
I46
tp320
a(I26
I47
tp321
a(I26
I49
tp322
a(I26
I50
tp323
a(I26
I51
tp324
a(I26
I52
tp325
a(I26
I53
tp326
a(I26
I54
tp327
a(I26
I55
tp328
a(I26
I56
tp329
a(I26
I57
tp330
a(I26
I58
tp331
a(I26
I59
tp332
a(I26
I60
tp333
a(I26
I61
tp334
a(I26
I62
tp335
a(I26
I63
tp336
a(I26
I64
tp337
a(I26
I65
tp338
a(I26
I66
tp339
a(I26
I69
tp340
a(I26
I70
tp341
a(I26
I71
tp342
a(I26
I73
tp343
a(I26
I74
tp344
a(I26
I76
tp345
a(I26
I77
tp346
a(I26
I78
tp347
a(I26
I79
tp348
a(I27
I28
tp349
a(I27
I29
tp350
a(I27
I30
tp351
a(I27
I31
tp352
a(I27
I32
tp353
a(I27
I33
tp354
a(I27
I34
tp355
a(I27
I35
tp356
a(I27
I36
tp357
a(I27
I37
tp358
a(I27
I38
tp359
a(I27
I39
tp360
a(I27
I40
tp361
a(I27
I41
tp362
a(I27
I42
tp363
a(I27
I44
tp364
a(I27
I46
tp365
a(I27
I47
tp366
a(I27
I49
tp367
a(I27
I50
tp368
a(I27
I51
tp369
a(I27
I52
tp370
a(I27
I53
tp371
a(I27
I54
tp372
a(I27
I55
tp373
a(I27
I56
tp374
a(I27
I57
tp375
a(I27
I58
tp376
a(I27
I59
tp377
a(I27
I60
tp378
a(I27
I61
tp379
a(I27
I62
tp380
a(I27
I63
tp381
a(I27
I64
tp382
a(I27
I65
tp383
a(I27
I66
tp384
a(I27
I69
tp385
a(I27
I70
tp386
a(I27
I71
tp387
a(I27
I73
tp388
a(I27
I74
tp389
a(I27
I76
tp390
a(I27
I77
tp391
a(I27
I78
tp392
a(I27
I79
tp393
a(I30
I31
tp394
a(I30
I32
tp395
a(I30
I33
tp396
a(I30
I34
tp397
a(I30
I35
tp398
a(I30
I36
tp399
a(I30
I37
tp400
a(I30
I38
tp401
a(I30
I39
tp402
a(I30
I40
tp403
a(I30
I41
tp404
a(I30
I42
tp405
a(I30
I44
tp406
a(I30
I46
tp407
a(I30
I47
tp408
a(I30
I49
tp409
a(I30
I50
tp410
a(I30
I51
tp411
a(I30
I52
tp412
a(I30
I53
tp413
a(I30
I54
tp414
a(I30
I55
tp415
a(I30
I56
tp416
a(I30
I57
tp417
a(I30
I58
tp418
a(I30
I59
tp419
a(I30
I60
tp420
a(I30
I61
tp421
a(I30
I62
tp422
a(I30
I63
tp423
a(I30
I64
tp424
a(I30
I65
tp425
a(I30
I66
tp426
a(I30
I69
tp427
a(I30
I70
tp428
a(I30
I71
tp429
a(I30
I73
tp430
a(I30
I74
tp431
a(I30
I76
tp432
a(I30
I77
tp433
a(I30
I78
tp434
a(I30
I79
tp435
a(I31
I32
tp436
a(I31
I33
tp437
a(I31
I34
tp438
a(I31
I35
tp439
a(I31
I36
tp440
a(I31
I37
tp441
a(I31
I38
tp442
a(I31
I39
tp443
a(I31
I40
tp444
a(I31
I41
tp445
a(I31
I42
tp446
a(I31
I44
tp447
a(I31
I46
tp448
a(I31
I47
tp449
a(I31
I49
tp450
a(I31
I50
tp451
a(I31
I51
tp452
a(I31
I52
tp453
a(I31
I53
tp454
a(I31
I54
tp455
a(I31
I55
tp456
a(I31
I56
tp457
a(I31
I57
tp458
a(I31
I58
tp459
a(I31
I59
tp460
a(I31
I60
tp461
a(I31
I61
tp462
a(I31
I62
tp463
a(I31
I63
tp464
a(I31
I64
tp465
a(I31
I65
tp466
a(I31
I66
tp467
a(I31
I69
tp468
a(I31
I70
tp469
a(I31
I71
tp470
a(I31
I73
tp471
a(I31
I74
tp472
a(I31
I76
tp473
a(I31
I77
tp474
a(I31
I78
tp475
a(I31
I79
tp476
a(I32
I33
tp477
a(I32
I34
tp478
a(I32
I35
tp479
a(I32
I36
tp480
a(I32
I37
tp481
a(I32
I38
tp482
a(I32
I39
tp483
a(I32
I40
tp484
a(I32
I41
tp485
a(I32
I42
tp486
a(I32
I44
tp487
a(I32
I46
tp488
a(I32
I47
tp489
a(I32
I49
tp490
a(I32
I50
tp491
a(I32
I51
tp492
a(I32
I52
tp493
a(I32
I53
tp494
a(I32
I54
tp495
a(I32
I55
tp496
a(I32
I56
tp497
a(I32
I57
tp498
a(I32
I58
tp499
a(I32
I59
tp500
a(I32
I60
tp501
a(I32
I61
tp502
a(I32
I62
tp503
a(I32
I63
tp504
a(I32
I64
tp505
a(I32
I65
tp506
a(I32
I66
tp507
a(I32
I69
tp508
a(I32
I70
tp509
a(I32
I71
tp510
a(I32
I73
tp511
a(I32
I74
tp512
a(I32
I76
tp513
a(I32
I77
tp514
a(I32
I78
tp515
a(I32
I79
tp516
a(I35
I36
tp517
a(I35
I37
tp518
a(I35
I38
tp519
a(I35
I39
tp520
a(I35
I40
tp521
a(I35
I41
tp522
a(I36
I37
tp523
a(I36
I38
tp524
a(I36
I39
tp525
a(I36
I40
tp526
a(I36
I41
tp527
a(I36
I42
tp528
a(I36
I44
tp529
a(I36
I46
tp530
a(I36
I47
tp531
a(I36
I49
tp532
a(I36
I50
tp533
a(I36
I51
tp534
a(I36
I52
tp535
a(I36
I53
tp536
a(I36
I54
tp537
a(I36
I55
tp538
a(I36
I56
tp539
a(I36
I57
tp540
a(I36
I58
tp541
a(I36
I59
tp542
a(I36
I60
tp543
a(I36
I61
tp544
a(I36
I62
tp545
a(I36
I63
tp546
a(I36
I64
tp547
a(I36
I65
tp548
a(I36
I66
tp549
a(I36
I69
tp550
a(I36
I70
tp551
a(I36
I71
tp552
a(I36
I73
tp553
a(I36
I74
tp554
a(I36
I76
tp555
a(I36
I77
tp556
a(I36
I78
tp557
a(I36
I79
tp558
a(I38
I39
tp559
a(I38
I40
tp560
a(I38
I41
tp561
a(I38
I42
tp562
a(I39
I40
tp563
a(I39
I41
tp564
a(I39
I42
tp565
a(I40
I41
tp566
a(I40
I42
tp567
a(I41
I42
tp568
a(I42
I44
tp569
a(I42
I46
tp570
a(I42
I47
tp571
a(I42
I49
tp572
a(I42
I50
tp573
a(I42
I51
tp574
a(I42
I52
tp575
a(I42
I53
tp576
a(I42
I54
tp577
a(I42
I55
tp578
a(I42
I56
tp579
a(I42
I57
tp580
a(I42
I58
tp581
a(I42
I59
tp582
a(I42
I60
tp583
a(I42
I61
tp584
a(I42
I62
tp585
a(I42
I63
tp586
a(I42
I64
tp587
a(I42
I65
tp588
a(I42
I66
tp589
a(I42
I69
tp590
a(I42
I70
tp591
a(I42
I71
tp592
a(I42
I73
tp593
a(I42
I74
tp594
a(I42
I76
tp595
a(I42
I77
tp596
a(I42
I78
tp597
a(I42
I79
tp598
a(I44
I46
tp599
a(I44
I47
tp600
a(I44
I49
tp601
a(I44
I50
tp602
a(I44
I51
tp603
a(I44
I52
tp604
a(I44
I53
tp605
a(I44
I54
tp606
a(I44
I55
tp607
a(I44
I56
tp608
a(I44
I57
tp609
a(I44
I58
tp610
a(I44
I59
tp611
a(I44
I60
tp612
a(I44
I61
tp613
a(I44
I62
tp614
a(I44
I63
tp615
a(I44
I64
tp616
a(I44
I65
tp617
a(I44
I66
tp618
a(I44
I69
tp619
a(I44
I70
tp620
a(I44
I71
tp621
a(I44
I73
tp622
a(I44
I74
tp623
a(I44
I76
tp624
a(I44
I77
tp625
a(I44
I78
tp626
a(I44
I79
tp627
a(I46
I47
tp628
a(I46
I49
tp629
a(I46
I50
tp630
a(I46
I51
tp631
a(I46
I52
tp632
a(I46
I53
tp633
a(I46
I54
tp634
a(I46
I55
tp635
a(I46
I56
tp636
a(I46
I57
tp637
a(I46
I58
tp638
a(I46
I59
tp639
a(I46
I60
tp640
a(I46
I61
tp641
a(I46
I62
tp642
a(I46
I63
tp643
a(I46
I64
tp644
a(I46
I65
tp645
a(I46
I66
tp646
a(I46
I69
tp647
a(I46
I70
tp648
a(I46
I71
tp649
a(I46
I73
tp650
a(I46
I74
tp651
a(I46
I76
tp652
a(I46
I77
tp653
a(I46
I78
tp654
a(I46
I79
tp655
a(I49
I50
tp656
a(I49
I51
tp657
a(I49
I52
tp658
a(I49
I53
tp659
a(I49
I54
tp660
a(I49
I55
tp661
a(I49
I56
tp662
a(I49
I57
tp663
a(I49
I58
tp664
a(I49
I59
tp665
a(I49
I60
tp666
a(I49
I61
tp667
a(I49
I62
tp668
a(I49
I63
tp669
a(I49
I64
tp670
a(I49
I65
tp671
a(I49
I66
tp672
a(I49
I69
tp673
a(I49
I70
tp674
a(I49
I71
tp675
a(I49
I73
tp676
a(I49
I74
tp677
a(I49
I76
tp678
a(I49
I77
tp679
a(I49
I78
tp680
a(I49
I79
tp681
a(I50
I51
tp682
a(I50
I52
tp683
a(I50
I53
tp684
a(I50
I54
tp685
a(I50
I55
tp686
a(I50
I56
tp687
a(I50
I57
tp688
a(I50
I58
tp689
a(I50
I59
tp690
a(I50
I60
tp691
a(I50
I61
tp692
a(I50
I62
tp693
a(I50
I63
tp694
a(I50
I64
tp695
a(I50
I65
tp696
a(I50
I66
tp697
a(I50
I69
tp698
a(I50
I70
tp699
a(I50
I71
tp700
a(I50
I73
tp701
a(I50
I74
tp702
a(I50
I76
tp703
a(I50
I77
tp704
a(I50
I78
tp705
a(I50
I79
tp706
a(I53
I54
tp707
a(I53
I55
tp708
a(I53
I56
tp709
a(I53
I57
tp710
a(I53
I58
tp711
a(I53
I59
tp712
a(I53
I60
tp713
a(I53
I61
tp714
a(I53
I62
tp715
a(I53
I63
tp716
a(I53
I64
tp717
a(I53
I65
tp718
a(I53
I66
tp719
a(I53
I69
tp720
a(I53
I70
tp721
a(I53
I71
tp722
a(I53
I73
tp723
a(I53
I74
tp724
a(I53
I76
tp725
a(I53
I77
tp726
a(I53
I78
tp727
a(I53
I79
tp728
a(I54
I55
tp729
a(I54
I56
tp730
a(I54
I57
tp731
a(I54
I58
tp732
a(I54
I59
tp733
a(I54
I60
tp734
a(I54
I61
tp735
a(I54
I62
tp736
a(I54
I63
tp737
a(I54
I64
tp738
a(I54
I65
tp739
a(I54
I66
tp740
a(I54
I69
tp741
a(I54
I70
tp742
a(I54
I71
tp743
a(I54
I73
tp744
a(I54
I74
tp745
a(I54
I76
tp746
a(I54
I77
tp747
a(I54
I78
tp748
a(I54
I79
tp749
a(I55
I56
tp750
a(I55
I57
tp751
a(I55
I58
tp752
a(I55
I59
tp753
a(I55
I60
tp754
a(I55
I61
tp755
a(I55
I62
tp756
a(I55
I63
tp757
a(I55
I64
tp758
a(I55
I65
tp759
a(I55
I66
tp760
a(I55
I69
tp761
a(I55
I70
tp762
a(I55
I71
tp763
a(I55
I73
tp764
a(I55
I74
tp765
a(I55
I76
tp766
a(I55
I77
tp767
a(I55
I78
tp768
a(I55
I79
tp769
a(I58
I59
tp770
a(I58
I60
tp771
a(I58
I61
tp772
a(I58
I62
tp773
a(I59
I60
tp774
a(I59
I61
tp775
a(I59
I62
tp776
a(I59
I63
tp777
a(I59
I64
tp778
a(I59
I65
tp779
a(I59
I66
tp780
a(I59
I69
tp781
a(I59
I70
tp782
a(I59
I71
tp783
a(I59
I73
tp784
a(I59
I74
tp785
a(I59
I76
tp786
a(I59
I77
tp787
a(I59
I78
tp788
a(I59
I79
tp789
a(I61
I62
tp790
a(I61
I63
tp791
a(I61
I64
tp792
a(I61
I65
tp793
a(I61
I66
tp794
a(I62
I63
tp795
a(I62
I64
tp796
a(I62
I65
tp797
a(I62
I66
tp798
a(I63
I64
tp799
a(I63
I65
tp800
a(I63
I66
tp801
a(I63
I69
tp802
a(I63
I70
tp803
a(I63
I71
tp804
a(I63
I73
tp805
a(I63
I74
tp806
a(I64
I65
tp807
a(I64
I66
tp808
a(I65
I66
tp809
a(I66
I69
tp810
a(I66
I70
tp811
a(I66
I71
tp812
a(I66
I73
tp813
a(I66
I74
tp814
a(I69
I70
tp815
a(I69
I71
tp816
a(I69
I73
tp817
a(I69
I74
tp818
a(I70
I71
tp819
a(I70
I73
tp820
a(I70
I74
tp821
a(I70
I76
tp822
a(I70
I77
tp823
a(I70
I78
tp824
a(I70
I79
tp825
a(I73
I74
tp826
a(I73
I76
tp827
a(I73
I77
tp828
a(I73
I78
tp829
a(I73
I79
tp830
a(I78
I79
tp831
asS'omit_one'
p832
(dp833
S'aligned'
p834
(lp835
((I2
I0
tp836
(I2
I1
tp837
tp838
a(g836
(I2
I2
tp839
tp840
a(g836
(I2
I3
tp841
tp842
a(g836
(I2
I4
tp843
tp844
a((I2
I1
tp845
(I2
I2
tp846
tp847
a(g845
(I2
I3
tp848
tp849
a(g845
(I2
I4
tp850
tp851
a((I2
I2
tp852
(I2
I3
tp853
tp854
a(g852
(I2
I4
tp855
tp856
a((I2
I3
tp857
(I2
I4
tp858
tp859
a((I3
I0
tp860
(I3
I1
tp861
tp862
a(g860
(I3
I2
tp863
tp864
a(g860
(I3
I3
tp865
tp866
a(g860
(I3
I4
tp867
tp868
a(g860
(I3
I5
tp869
tp870
a(g860
(I3
I6
tp871
tp872
a((I3
I1
tp873
(I3
I2
tp874
tp875
a(g873
(I3
I3
tp876
tp877
a(g873
(I3
I4
tp878
tp879
a(g873
(I3
I5
tp880
tp881
a(g873
(I3
I6
tp882
tp883
a((I3
I2
tp884
(I3
I3
tp885
tp886
a(g884
(I3
I4
tp887
tp888
a(g884
(I3
I5
tp889
tp890
a(g884
(I3
I6
tp891
tp892
a((I3
I3
tp893
(I3
I4
tp894
tp895
a(g893
(I3
I5
tp896
tp897
a(g893
(I3
I6
tp898
tp899
a((I3
I4
tp900
(I3
I5
tp901
tp902
a(g900
(I3
I6
tp903
tp904
a((I3
I5
tp905
(I3
I6
tp906
tp907
a((I4
I0
tp908
(I4
I1
tp909
tp910
a(g908
(I4
I2
tp911
tp912
a(g908
(I4
I3
tp913
tp914
a(g908
(I4
I4
tp915
tp916
a(g908
(I4
I5
tp917
tp918
a((I4
I1
tp919
(I4
I2
tp920
tp921
a(g919
(I4
I3
tp922
tp923
a(g919
(I4
I4
tp924
tp925
a(g919
(I4
I5
tp926
tp927
a((I4
I2
tp928
(I4
I3
tp929
tp930
a(g928
(I4
I4
tp931
tp932
a(g928
(I4
I5
tp933
tp934
a((I4
I3
tp935
(I4
I4
tp936
tp937
a(g935
(I4
I5
tp938
tp939
a((I4
I4
tp940
(I4
I5
tp941
tp942
a((I6
I0
tp943
(I6
I1
tp944
tp945
a(g943
(I6
I2
tp946
tp947
a(g943
(I6
I3
tp948
tp949
a(g943
(I6
I4
tp950
tp951
a(g943
(I6
I5
tp952
tp953
a((I6
I1
tp954
(I6
I2
tp955
tp956
a(g954
(I6
I3
tp957
tp958
a(g954
(I6
I4
tp959
tp960
a(g954
(I6
I5
tp961
tp962
a((I6
I2
tp963
(I6
I3
tp964
tp965
a(g963
(I6
I4
tp966
tp967
a(g963
(I6
I5
tp968
tp969
a((I6
I3
tp970
(I6
I4
tp971
tp972
a(g970
(I6
I5
tp973
tp974
a((I6
I4
tp975
(I6
I5
tp976
tp977
a((I7
I0
tp978
(I7
I1
tp979
tp980
a(g978
(I7
I2
tp981
tp982
a((I7
I1
tp983
(I7
I2
tp984
tp985
a((I14
I0
tp986
(I14
I1
tp987
tp988
a(g986
(I14
I2
tp989
tp990
a(g986
(I14
I3
tp991
tp992
a(g986
(I14
I4
tp993
tp994
a((I14
I1
tp995
(I14
I2
tp996
tp997
a(g995
(I14
I3
tp998
tp999
a(g995
(I14
I4
tp1000
tp1001
a((I14
I2
tp1002
(I14
I3
tp1003
tp1004
a(g1002
(I14
I4
tp1005
tp1006
a((I14
I3
tp1007
(I14
I4
tp1008
tp1009
a((I27
I0
tp1010
(I27
I1
tp1011
tp1012
a(g1010
(I27
I2
tp1013
tp1014
a(g1010
(I27
I3
tp1015
tp1016
a(g1010
(I27
I4
tp1017
tp1018
a(g1010
(I27
I5
tp1019
tp1020
a(g1010
(I27
I6
tp1021
tp1022
a(g1010
(I27
I7
tp1023
tp1024
a(g1010
(I27
I8
tp1025
tp1026
a(g1010
(I27
I9
tp1027
tp1028
a(g1010
(I27
I10
tp1029
tp1030
a((I27
I1
tp1031
(I27
I2
tp1032
tp1033
a(g1031
(I27
I3
tp1034
tp1035
a(g1031
(I27
I4
tp1036
tp1037
a(g1031
(I27
I5
tp1038
tp1039
a(g1031
(I27
I6
tp1040
tp1041
a(g1031
(I27
I7
tp1042
tp1043
a(g1031
(I27
I8
tp1044
tp1045
a(g1031
(I27
I9
tp1046
tp1047
a(g1031
(I27
I10
tp1048
tp1049
a((I27
I2
tp1050
(I27
I3
tp1051
tp1052
a(g1050
(I27
I4
tp1053
tp1054
a(g1050
(I27
I5
tp1055
tp1056
a(g1050
(I27
I6
tp1057
tp1058
a(g1050
(I27
I7
tp1059
tp1060
a(g1050
(I27
I8
tp1061
tp1062
a(g1050
(I27
I9
tp1063
tp1064
a(g1050
(I27
I10
tp1065
tp1066
a((I27
I3
tp1067
(I27
I4
tp1068
tp1069
a(g1067
(I27
I5
tp1070
tp1071
a(g1067
(I27
I6
tp1072
tp1073
a(g1067
(I27
I7
tp1074
tp1075
a(g1067
(I27
I8
tp1076
tp1077
a(g1067
(I27
I9
tp1078
tp1079
a(g1067
(I27
I10
tp1080
tp1081
a((I27
I4
tp1082
(I27
I5
tp1083
tp1084
a(g1082
(I27
I6
tp1085
tp1086
a(g1082
(I27
I7
tp1087
tp1088
a(g1082
(I27
I8
tp1089
tp1090
a(g1082
(I27
I9
tp1091
tp1092
a(g1082
(I27
I10
tp1093
tp1094
a((I27
I5
tp1095
(I27
I6
tp1096
tp1097
a(g1095
(I27
I7
tp1098
tp1099
a(g1095
(I27
I8
tp1100
tp1101
a(g1095
(I27
I9
tp1102
tp1103
a(g1095
(I27
I10
tp1104
tp1105
a((I27
I6
tp1106
(I27
I7
tp1107
tp1108
a(g1106
(I27
I8
tp1109
tp1110
a(g1106
(I27
I9
tp1111
tp1112
a(g1106
(I27
I10
tp1113
tp1114
a((I27
I7
tp1115
(I27
I8
tp1116
tp1117
a(g1115
(I27
I9
tp1118
tp1119
a(g1115
(I27
I10
tp1120
tp1121
a((I27
I8
tp1122
(I27
I9
tp1123
tp1124
a(g1122
(I27
I10
tp1125
tp1126
a((I27
I9
tp1127
(I27
I10
tp1128
tp1129
a((I30
I0
tp1130
(I30
I1
tp1131
tp1132
a(g1130
(I30
I2
tp1133
tp1134
a(g1130
(I30
I3
tp1135
tp1136
a(g1130
(I30
I4
tp1137
tp1138
a(g1130
(I30
I5
tp1139
tp1140
a((I30
I1
tp1141
(I30
I2
tp1142
tp1143
a(g1141
(I30
I3
tp1144
tp1145
a(g1141
(I30
I4
tp1146
tp1147
a(g1141
(I30
I5
tp1148
tp1149
a((I30
I2
tp1150
(I30
I3
tp1151
tp1152
a(g1150
(I30
I4
tp1153
tp1154
a(g1150
(I30
I5
tp1155
tp1156
a((I30
I3
tp1157
(I30
I4
tp1158
tp1159
a(g1157
(I30
I5
tp1160
tp1161
a((I30
I4
tp1162
(I30
I5
tp1163
tp1164
a((I32
I0
tp1165
(I32
I1
tp1166
tp1167
a(g1165
(I32
I2
tp1168
tp1169
a(g1165
(I32
I3
tp1170
tp1171
a(g1165
(I32
I4
tp1172
tp1173
a(g1165
(I32
I5
tp1174
tp1175
a((I32
I1
tp1176
(I32
I2
tp1177
tp1178
a(g1176
(I32
I3
tp1179
tp1180
a(g1176
(I32
I4
tp1181
tp1182
a(g1176
(I32
I5
tp1183
tp1184
a((I32
I2
tp1185
(I32
I3
tp1186
tp1187
a(g1185
(I32
I4
tp1188
tp1189
a(g1185
(I32
I5
tp1190
tp1191
a((I32
I3
tp1192
(I32
I4
tp1193
tp1194
a(g1192
(I32
I5
tp1195
tp1196
a((I32
I4
tp1197
(I32
I5
tp1198
tp1199
a((I39
I0
tp1200
(I39
I1
tp1201
tp1202
a(g1200
(I39
I2
tp1203
tp1204
a(g1200
(I39
I3
tp1205
tp1206
a(g1200
(I39
I4
tp1207
tp1208
a(g1200
(I39
I5
tp1209
tp1210
a(g1200
(I39
I6
tp1211
tp1212
a(g1200
(I39
I7
tp1213
tp1214
a(g1200
(I39
I8
tp1215
tp1216
a(g1200
(I39
I9
tp1217
tp1218
a(g1200
(I39
I10
tp1219
tp1220
a(g1200
(I39
I11
tp1221
tp1222
a(g1200
(I39
I12
tp1223
tp1224
a(g1200
(I39
I13
tp1225
tp1226
a(g1200
(I39
I14
tp1227
tp1228
a(g1200
(I39
I15
tp1229
tp1230
a((I39
I1
tp1231
(I39
I2
tp1232
tp1233
a(g1231
(I39
I3
tp1234
tp1235
a(g1231
(I39
I4
tp1236
tp1237
a(g1231
(I39
I5
tp1238
tp1239
a(g1231
(I39
I6
tp1240
tp1241
a(g1231
(I39
I7
tp1242
tp1243
a(g1231
(I39
I8
tp1244
tp1245
a(g1231
(I39
I9
tp1246
tp1247
a(g1231
(I39
I10
tp1248
tp1249
a(g1231
(I39
I11
tp1250
tp1251
a(g1231
(I39
I12
tp1252
tp1253
a(g1231
(I39
I13
tp1254
tp1255
a(g1231
(I39
I14
tp1256
tp1257
a(g1231
(I39
I15
tp1258
tp1259
a((I39
I2
tp1260
(I39
I3
tp1261
tp1262
a(g1260
(I39
I4
tp1263
tp1264
a(g1260
(I39
I5
tp1265
tp1266
a(g1260
(I39
I6
tp1267
tp1268
a(g1260
(I39
I7
tp1269
tp1270
a(g1260
(I39
I8
tp1271
tp1272
a(g1260
(I39
I9
tp1273
tp1274
a(g1260
(I39
I10
tp1275
tp1276
a(g1260
(I39
I11
tp1277
tp1278
a(g1260
(I39
I12
tp1279
tp1280
a(g1260
(I39
I13
tp1281
tp1282
a(g1260
(I39
I14
tp1283
tp1284
a(g1260
(I39
I15
tp1285
tp1286
a((I39
I3
tp1287
(I39
I4
tp1288
tp1289
a(g1287
(I39
I5
tp1290
tp1291
a(g1287
(I39
I6
tp1292
tp1293
a(g1287
(I39
I7
tp1294
tp1295
a(g1287
(I39
I8
tp1296
tp1297
a(g1287
(I39
I9
tp1298
tp1299
a(g1287
(I39
I10
tp1300
tp1301
a(g1287
(I39
I11
tp1302
tp1303
a(g1287
(I39
I12
tp1304
tp1305
a(g1287
(I39
I13
tp1306
tp1307
a(g1287
(I39
I14
tp1308
tp1309
a(g1287
(I39
I15
tp1310
tp1311
a((I39
I4
tp1312
(I39
I5
tp1313
tp1314
a(g1312
(I39
I6
tp1315
tp1316
a(g1312
(I39
I7
tp1317
tp1318
a(g1312
(I39
I8
tp1319
tp1320
a(g1312
(I39
I9
tp1321
tp1322
a(g1312
(I39
I10
tp1323
tp1324
a(g1312
(I39
I11
tp1325
tp1326
a(g1312
(I39
I12
tp1327
tp1328
a(g1312
(I39
I13
tp1329
tp1330
a(g1312
(I39
I14
tp1331
tp1332
a(g1312
(I39
I15
tp1333
tp1334
a((I39
I5
tp1335
(I39
I6
tp1336
tp1337
a(g1335
(I39
I7
tp1338
tp1339
a(g1335
(I39
I8
tp1340
tp1341
a(g1335
(I39
I9
tp1342
tp1343
a(g1335
(I39
I10
tp1344
tp1345
a(g1335
(I39
I11
tp1346
tp1347
a(g1335
(I39
I12
tp1348
tp1349
a(g1335
(I39
I13
tp1350
tp1351
a(g1335
(I39
I14
tp1352
tp1353
a(g1335
(I39
I15
tp1354
tp1355
a((I39
I6
tp1356
(I39
I7
tp1357
tp1358
a(g1356
(I39
I8
tp1359
tp1360
a(g1356
(I39
I9
tp1361
tp1362
a(g1356
(I39
I10
tp1363
tp1364
a(g1356
(I39
I11
tp1365
tp1366
a(g1356
(I39
I12
tp1367
tp1368
a(g1356
(I39
I13
tp1369
tp1370
a(g1356
(I39
I14
tp1371
tp1372
a(g1356
(I39
I15
tp1373
tp1374
a((I39
I7
tp1375
(I39
I8
tp1376
tp1377
a(g1375
(I39
I9
tp1378
tp1379
a(g1375
(I39
I10
tp1380
tp1381
a(g1375
(I39
I11
tp1382
tp1383
a(g1375
(I39
I12
tp1384
tp1385
a(g1375
(I39
I13
tp1386
tp1387
a(g1375
(I39
I14
tp1388
tp1389
a(g1375
(I39
I15
tp1390
tp1391
a((I39
I8
tp1392
(I39
I9
tp1393
tp1394
a(g1392
(I39
I10
tp1395
tp1396
a(g1392
(I39
I11
tp1397
tp1398
a(g1392
(I39
I12
tp1399
tp1400
a(g1392
(I39
I13
tp1401
tp1402
a(g1392
(I39
I14
tp1403
tp1404
a(g1392
(I39
I15
tp1405
tp1406
a((I39
I9
tp1407
(I39
I10
tp1408
tp1409
a(g1407
(I39
I11
tp1410
tp1411
a(g1407
(I39
I12
tp1412
tp1413
a(g1407
(I39
I13
tp1414
tp1415
a(g1407
(I39
I14
tp1416
tp1417
a(g1407
(I39
I15
tp1418
tp1419
a((I39
I10
tp1420
(I39
I11
tp1421
tp1422
a(g1420
(I39
I12
tp1423
tp1424
a(g1420
(I39
I13
tp1425
tp1426
a(g1420
(I39
I14
tp1427
tp1428
a(g1420
(I39
I15
tp1429
tp1430
a((I39
I11
tp1431
(I39
I12
tp1432
tp1433
a(g1431
(I39
I13
tp1434
tp1435
a(g1431
(I39
I14
tp1436
tp1437
a(g1431
(I39
I15
tp1438
tp1439
a((I39
I12
tp1440
(I39
I13
tp1441
tp1442
a(g1440
(I39
I14
tp1443
tp1444
a(g1440
(I39
I15
tp1445
tp1446
a((I39
I13
tp1447
(I39
I14
tp1448
tp1449
a(g1447
(I39
I15
tp1450
tp1451
a((I39
I14
tp1452
(I39
I15
tp1453
tp1454
a((I41
I0
tp1455
(I41
I1
tp1456
tp1457
a(g1455
(I41
I2
tp1458
tp1459
a(g1455
(I41
I3
tp1460
tp1461
a(g1455
(I41
I4
tp1462
tp1463
a(g1455
(I41
I5
tp1464
tp1465
a(g1455
(I41
I6
tp1466
tp1467
a(g1455
(I41
I7
tp1468
tp1469
a((I41
I1
tp1470
(I41
I2
tp1471
tp1472
a(g1470
(I41
I3
tp1473
tp1474
a(g1470
(I41
I4
tp1475
tp1476
a(g1470
(I41
I5
tp1477
tp1478
a(g1470
(I41
I6
tp1479
tp1480
a(g1470
(I41
I7
tp1481
tp1482
a((I41
I2
tp1483
(I41
I3
tp1484
tp1485
a(g1483
(I41
I4
tp1486
tp1487
a(g1483
(I41
I5
tp1488
tp1489
a(g1483
(I41
I6
tp1490
tp1491
a(g1483
(I41
I7
tp1492
tp1493
a((I41
I3
tp1494
(I41
I4
tp1495
tp1496
a(g1494
(I41
I5
tp1497
tp1498
a(g1494
(I41
I6
tp1499
tp1500
a(g1494
(I41
I7
tp1501
tp1502
a((I41
I4
tp1503
(I41
I5
tp1504
tp1505
a(g1503
(I41
I6
tp1506
tp1507
a(g1503
(I41
I7
tp1508
tp1509
a((I41
I5
tp1510
(I41
I6
tp1511
tp1512
a(g1510
(I41
I7
tp1513
tp1514
a((I41
I6
tp1515
(I41
I7
tp1516
tp1517
a((I47
I0
tp1518
(I47
I1
tp1519
tp1520
a(g1518
(I47
I2
tp1521
tp1522
a(g1518
(I47
I3
tp1523
tp1524
a((I47
I1
tp1525
(I47
I2
tp1526
tp1527
a(g1525
(I47
I3
tp1528
tp1529
a((I47
I2
tp1530
(I47
I3
tp1531
tp1532
a((I49
I0
tp1533
(I49
I1
tp1534
tp1535
a(g1533
(I49
I2
tp1536
tp1537
a(g1533
(I49
I3
tp1538
tp1539
a(g1533
(I49
I4
tp1540
tp1541
a(g1533
(I49
I5
tp1542
tp1543
a(g1533
(I49
I6
tp1544
tp1545
a(g1533
(I49
I7
tp1546
tp1547
a(g1533
(I49
I8
tp1548
tp1549
a(g1533
(I49
I9
tp1550
tp1551
a(g1533
(I49
I10
tp1552
tp1553
a((I49
I1
tp1554
(I49
I2
tp1555
tp1556
a(g1554
(I49
I3
tp1557
tp1558
a(g1554
(I49
I4
tp1559
tp1560
a(g1554
(I49
I5
tp1561
tp1562
a(g1554
(I49
I6
tp1563
tp1564
a(g1554
(I49
I7
tp1565
tp1566
a(g1554
(I49
I8
tp1567
tp1568
a(g1554
(I49
I9
tp1569
tp1570
a(g1554
(I49
I10
tp1571
tp1572
a((I49
I2
tp1573
(I49
I3
tp1574
tp1575
a(g1573
(I49
I4
tp1576
tp1577
a(g1573
(I49
I5
tp1578
tp1579
a(g1573
(I49
I6
tp1580
tp1581
a(g1573
(I49
I7
tp1582
tp1583
a(g1573
(I49
I8
tp1584
tp1585
a(g1573
(I49
I9
tp1586
tp1587
a(g1573
(I49
I10
tp1588
tp1589
a((I49
I3
tp1590
(I49
I4
tp1591
tp1592
a(g1590
(I49
I5
tp1593
tp1594
a(g1590
(I49
I6
tp1595
tp1596
a(g1590
(I49
I7
tp1597
tp1598
a(g1590
(I49
I8
tp1599
tp1600
a(g1590
(I49
I9
tp1601
tp1602
a(g1590
(I49
I10
tp1603
tp1604
a((I49
I4
tp1605
(I49
I5
tp1606
tp1607
a(g1605
(I49
I6
tp1608
tp1609
a(g1605
(I49
I7
tp1610
tp1611
a(g1605
(I49
I8
tp1612
tp1613
a(g1605
(I49
I9
tp1614
tp1615
a(g1605
(I49
I10
tp1616
tp1617
a((I49
I5
tp1618
(I49
I6
tp1619
tp1620
a(g1618
(I49
I7
tp1621
tp1622
a(g1618
(I49
I8
tp1623
tp1624
a(g1618
(I49
I9
tp1625
tp1626
a(g1618
(I49
I10
tp1627
tp1628
a((I49
I6
tp1629
(I49
I7
tp1630
tp1631
a(g1629
(I49
I8
tp1632
tp1633
a(g1629
(I49
I9
tp1634
tp1635
a(g1629
(I49
I10
tp1636
tp1637
a((I49
I7
tp1638
(I49
I8
tp1639
tp1640
a(g1638
(I49
I9
tp1641
tp1642
a(g1638
(I49
I10
tp1643
tp1644
a((I49
I8
tp1645
(I49
I9
tp1646
tp1647
a(g1645
(I49
I10
tp1648
tp1649
a((I49
I9
tp1650
(I49
I10
tp1651
tp1652
a((I53
I0
tp1653
(I53
I1
tp1654
tp1655
a(g1653
(I53
I2
tp1656
tp1657
a(g1653
(I53
I3
tp1658
tp1659
a(g1653
(I53
I4
tp1660
tp1661
a(g1653
(I53
I5
tp1662
tp1663
a((I53
I1
tp1664
(I53
I2
tp1665
tp1666
a(g1664
(I53
I3
tp1667
tp1668
a(g1664
(I53
I4
tp1669
tp1670
a(g1664
(I53
I5
tp1671
tp1672
a((I53
I2
tp1673
(I53
I3
tp1674
tp1675
a(g1673
(I53
I4
tp1676
tp1677
a(g1673
(I53
I5
tp1678
tp1679
a((I53
I3
tp1680
(I53
I4
tp1681
tp1682
a(g1680
(I53
I5
tp1683
tp1684
a((I53
I4
tp1685
(I53
I5
tp1686
tp1687
a((I55
I0
tp1688
(I55
I1
tp1689
tp1690
a(g1688
(I55
I2
tp1691
tp1692
a(g1688
(I55
I3
tp1693
tp1694
a(g1688
(I55
I4
tp1695
tp1696
a(g1688
(I55
I5
tp1697
tp1698
a((I55
I1
tp1699
(I55
I2
tp1700
tp1701
a(g1699
(I55
I3
tp1702
tp1703
a(g1699
(I55
I4
tp1704
tp1705
a(g1699
(I55
I5
tp1706
tp1707
a((I55
I2
tp1708
(I55
I3
tp1709
tp1710
a(g1708
(I55
I4
tp1711
tp1712
a(g1708
(I55
I5
tp1713
tp1714
a((I55
I3
tp1715
(I55
I4
tp1716
tp1717
a(g1715
(I55
I5
tp1718
tp1719
a((I55
I4
tp1720
(I55
I5
tp1721
tp1722
a((I62
I0
tp1723
(I62
I1
tp1724
tp1725
a(g1723
(I62
I2
tp1726
tp1727
a(g1723
(I62
I3
tp1728
tp1729
a(g1723
(I62
I4
tp1730
tp1731
a(g1723
(I62
I5
tp1732
tp1733
a(g1723
(I62
I6
tp1734
tp1735
a(g1723
(I62
I7
tp1736
tp1737
a(g1723
(I62
I8
tp1738
tp1739
a(g1723
(I62
I9
tp1740
tp1741
a(g1723
(I62
I10
tp1742
tp1743
a(g1723
(I62
I11
tp1744
tp1745
a(g1723
(I62
I12
tp1746
tp1747
a(g1723
(I62
I13
tp1748
tp1749
a(g1723
(I62
I14
tp1750
tp1751
a(g1723
(I62
I15
tp1752
tp1753
a((I62
I1
tp1754
(I62
I2
tp1755
tp1756
a(g1754
(I62
I3
tp1757
tp1758
a(g1754
(I62
I4
tp1759
tp1760
a(g1754
(I62
I5
tp1761
tp1762
a(g1754
(I62
I6
tp1763
tp1764
a(g1754
(I62
I7
tp1765
tp1766
a(g1754
(I62
I8
tp1767
tp1768
a(g1754
(I62
I9
tp1769
tp1770
a(g1754
(I62
I10
tp1771
tp1772
a(g1754
(I62
I11
tp1773
tp1774
a(g1754
(I62
I12
tp1775
tp1776
a(g1754
(I62
I13
tp1777
tp1778
a(g1754
(I62
I14
tp1779
tp1780
a(g1754
(I62
I15
tp1781
tp1782
a((I62
I2
tp1783
(I62
I3
tp1784
tp1785
a(g1783
(I62
I4
tp1786
tp1787
a(g1783
(I62
I5
tp1788
tp1789
a(g1783
(I62
I6
tp1790
tp1791
a(g1783
(I62
I7
tp1792
tp1793
a(g1783
(I62
I8
tp1794
tp1795
a(g1783
(I62
I9
tp1796
tp1797
a(g1783
(I62
I10
tp1798
tp1799
a(g1783
(I62
I11
tp1800
tp1801
a(g1783
(I62
I12
tp1802
tp1803
a(g1783
(I62
I13
tp1804
tp1805
a(g1783
(I62
I14
tp1806
tp1807
a(g1783
(I62
I15
tp1808
tp1809
a((I62
I3
tp1810
(I62
I4
tp1811
tp1812
a(g1810
(I62
I5
tp1813
tp1814
a(g1810
(I62
I6
tp1815
tp1816
a(g1810
(I62
I7
tp1817
tp1818
a(g1810
(I62
I8
tp1819
tp1820
a(g1810
(I62
I9
tp1821
tp1822
a(g1810
(I62
I10
tp1823
tp1824
a(g1810
(I62
I11
tp1825
tp1826
a(g1810
(I62
I12
tp1827
tp1828
a(g1810
(I62
I13
tp1829
tp1830
a(g1810
(I62
I14
tp1831
tp1832
a(g1810
(I62
I15
tp1833
tp1834
a((I62
I4
tp1835
(I62
I5
tp1836
tp1837
a(g1835
(I62
I6
tp1838
tp1839
a(g1835
(I62
I7
tp1840
tp1841
a(g1835
(I62
I8
tp1842
tp1843
a(g1835
(I62
I9
tp1844
tp1845
a(g1835
(I62
I10
tp1846
tp1847
a(g1835
(I62
I11
tp1848
tp1849
a(g1835
(I62
I12
tp1850
tp1851
a(g1835
(I62
I13
tp1852
tp1853
a(g1835
(I62
I14
tp1854
tp1855
a(g1835
(I62
I15
tp1856
tp1857
a((I62
I5
tp1858
(I62
I6
tp1859
tp1860
a(g1858
(I62
I7
tp1861
tp1862
a(g1858
(I62
I8
tp1863
tp1864
a(g1858
(I62
I9
tp1865
tp1866
a(g1858
(I62
I10
tp1867
tp1868
a(g1858
(I62
I11
tp1869
tp1870
a(g1858
(I62
I12
tp1871
tp1872
a(g1858
(I62
I13
tp1873
tp1874
a(g1858
(I62
I14
tp1875
tp1876
a(g1858
(I62
I15
tp1877
tp1878
a((I62
I6
tp1879
(I62
I7
tp1880
tp1881
a(g1879
(I62
I8
tp1882
tp1883
a(g1879
(I62
I9
tp1884
tp1885
a(g1879
(I62
I10
tp1886
tp1887
a(g1879
(I62
I11
tp1888
tp1889
a(g1879
(I62
I12
tp1890
tp1891
a(g1879
(I62
I13
tp1892
tp1893
a(g1879
(I62
I14
tp1894
tp1895
a(g1879
(I62
I15
tp1896
tp1897
a((I62
I7
tp1898
(I62
I8
tp1899
tp1900
a(g1898
(I62
I9
tp1901
tp1902
a(g1898
(I62
I10
tp1903
tp1904
a(g1898
(I62
I11
tp1905
tp1906
a(g1898
(I62
I12
tp1907
tp1908
a(g1898
(I62
I13
tp1909
tp1910
a(g1898
(I62
I14
tp1911
tp1912
a(g1898
(I62
I15
tp1913
tp1914
a((I62
I8
tp1915
(I62
I9
tp1916
tp1917
a(g1915
(I62
I10
tp1918
tp1919
a(g1915
(I62
I11
tp1920
tp1921
a(g1915
(I62
I12
tp1922
tp1923
a(g1915
(I62
I13
tp1924
tp1925
a(g1915
(I62
I14
tp1926
tp1927
a(g1915
(I62
I15
tp1928
tp1929
a((I62
I9
tp1930
(I62
I10
tp1931
tp1932
a(g1930
(I62
I11
tp1933
tp1934
a(g1930
(I62
I12
tp1935
tp1936
a(g1930
(I62
I13
tp1937
tp1938
a(g1930
(I62
I14
tp1939
tp1940
a(g1930
(I62
I15
tp1941
tp1942
a((I62
I10
tp1943
(I62
I11
tp1944
tp1945
a(g1943
(I62
I12
tp1946
tp1947
a(g1943
(I62
I13
tp1948
tp1949
a(g1943
(I62
I14
tp1950
tp1951
a(g1943
(I62
I15
tp1952
tp1953
a((I62
I11
tp1954
(I62
I12
tp1955
tp1956
a(g1954
(I62
I13
tp1957
tp1958
a(g1954
(I62
I14
tp1959
tp1960
a(g1954
(I62
I15
tp1961
tp1962
a((I62
I12
tp1963
(I62
I13
tp1964
tp1965
a(g1963
(I62
I14
tp1966
tp1967
a(g1963
(I62
I15
tp1968
tp1969
a((I62
I13
tp1970
(I62
I14
tp1971
tp1972
a(g1970
(I62
I15
tp1973
tp1974
a((I62
I14
tp1975
(I62
I15
tp1976
tp1977
a((I65
I0
tp1978
(I65
I1
tp1979
tp1980
a(g1978
(I65
I2
tp1981
tp1982
a(g1978
(I65
I3
tp1983
tp1984
a(g1978
(I65
I4
tp1985
tp1986
a(g1978
(I65
I5
tp1987
tp1988
a(g1978
(I65
I6
tp1989
tp1990
a(g1978
(I65
I7
tp1991
tp1992
a((I65
I1
tp1993
(I65
I2
tp1994
tp1995
a(g1993
(I65
I3
tp1996
tp1997
a(g1993
(I65
I4
tp1998
tp1999
a(g1993
(I65
I5
tp2000
tp2001
a(g1993
(I65
I6
tp2002
tp2003
a(g1993
(I65
I7
tp2004
tp2005
a((I65
I2
tp2006
(I65
I3
tp2007
tp2008
a(g2006
(I65
I4
tp2009
tp2010
a(g2006
(I65
I5
tp2011
tp2012
a(g2006
(I65
I6
tp2013
tp2014
a(g2006
(I65
I7
tp2015
tp2016
a((I65
I3
tp2017
(I65
I4
tp2018
tp2019
a(g2017
(I65
I5
tp2020
tp2021
a(g2017
(I65
I6
tp2022
tp2023
a(g2017
(I65
I7
tp2024
tp2025
a((I65
I4
tp2026
(I65
I5
tp2027
tp2028
a(g2026
(I65
I6
tp2029
tp2030
a(g2026
(I65
I7
tp2031
tp2032
a((I65
I5
tp2033
(I65
I6
tp2034
tp2035
a(g2033
(I65
I7
tp2036
tp2037
a((I65
I6
tp2038
(I65
I7
tp2039
tp2040
a((I71
I0
tp2041
(I71
I1
tp2042
tp2043
a(g2041
(I71
I2
tp2044
tp2045
a((I71
I1
tp2046
(I71
I2
tp2047
tp2048
a((I74
I0
tp2049
(I74
I1
tp2050
tp2051
a(g2049
(I74
I2
tp2052
tp2053
a(g2049
(I74
I3
tp2054
tp2055
a(g2049
(I74
I4
tp2056
tp2057
a(g2049
(I74
I5
tp2058
tp2059
a(g2049
(I74
I6
tp2060
tp2061
a(g2049
(I74
I7
tp2062
tp2063
a(g2049
(I74
I8
tp2064
tp2065
a(g2049
(I74
I9
tp2066
tp2067
a(g2049
(I74
I10
tp2068
tp2069
a((I74
I1
tp2070
(I74
I2
tp2071
tp2072
a(g2070
(I74
I3
tp2073
tp2074
a(g2070
(I74
I4
tp2075
tp2076
a(g2070
(I74
I5
tp2077
tp2078
a(g2070
(I74
I6
tp2079
tp2080
a(g2070
(I74
I7
tp2081
tp2082
a(g2070
(I74
I8
tp2083
tp2084
a(g2070
(I74
I9
tp2085
tp2086
a(g2070
(I74
I10
tp2087
tp2088
a((I74
I2
tp2089
(I74
I3
tp2090
tp2091
a(g2089
(I74
I4
tp2092
tp2093
a(g2089
(I74
I5
tp2094
tp2095
a(g2089
(I74
I6
tp2096
tp2097
a(g2089
(I74
I7
tp2098
tp2099
a(g2089
(I74
I8
tp2100
tp2101
a(g2089
(I74
I9
tp2102
tp2103
a(g2089
(I74
I10
tp2104
tp2105
a((I74
I3
tp2106
(I74
I4
tp2107
tp2108
a(g2106
(I74
I5
tp2109
tp2110
a(g2106
(I74
I6
tp2111
tp2112
a(g2106
(I74
I7
tp2113
tp2114
a(g2106
(I74
I8
tp2115
tp2116
a(g2106
(I74
I9
tp2117
tp2118
a(g2106
(I74
I10
tp2119
tp2120
a((I74
I4
tp2121
(I74
I5
tp2122
tp2123
a(g2121
(I74
I6
tp2124
tp2125
a(g2121
(I74
I7
tp2126
tp2127
a(g2121
(I74
I8
tp2128
tp2129
a(g2121
(I74
I9
tp2130
tp2131
a(g2121
(I74
I10
tp2132
tp2133
a((I74
I5
tp2134
(I74
I6
tp2135
tp2136
a(g2134
(I74
I7
tp2137
tp2138
a(g2134
(I74
I8
tp2139
tp2140
a(g2134
(I74
I9
tp2141
tp2142
a(g2134
(I74
I10
tp2143
tp2144
a((I74
I6
tp2145
(I74
I7
tp2146
tp2147
a(g2145
(I74
I8
tp2148
tp2149
a(g2145
(I74
I9
tp2150
tp2151
a(g2145
(I74
I10
tp2152
tp2153
a((I74
I7
tp2154
(I74
I8
tp2155
tp2156
a(g2154
(I74
I9
tp2157
tp2158
a(g2154
(I74
I10
tp2159
tp2160
a((I74
I8
tp2161
(I74
I9
tp2162
tp2163
a(g2161
(I74
I10
tp2164
tp2165
a((I74
I9
tp2166
(I74
I10
tp2167
tp2168
asS'three'
p2169
(lp2170
sS'one'
p2171
(lp2172
ssS'prefix'
p2173
(dp2174
g834
(lp2175
(I0
I0
tp2176
a(I1
I1
tp2177
a(I1
I3
tp2178
a(I1
I5
tp2179
a(I1
I7
tp2180
a(I1
I9
tp2181
a(I1
I11
tp2182
a(I1
I13
tp2183
a(I1
I15
tp2184
a(I1
I17
tp2185
a(I1
I19
tp2186
a(I1
I21
tp2187
a(I1
I23
tp2188
a(I1
I25
tp2189
a(I1
I27
tp2190
a(I1
I29
tp2191
a(I1
I31
tp2192
a(I2
I0
tp2193
a(I2
I1
tp2194
a(I2
I2
tp2195
a(I2
I3
tp2196
a(I2
I4
tp2197
a(I3
I0
tp2198
a(I3
I1
tp2199
a(I3
I2
tp2200
a(I3
I3
tp2201
a(I3
I4
tp2202
a(I3
I5
tp2203
a(I3
I6
tp2204
a(I4
I0
tp2205
a(I4
I1
tp2206
a(I4
I2
tp2207
a(I4
I3
tp2208
a(I4
I4
tp2209
a(I4
I5
tp2210
a(I5
I1
tp2211
a(I5
I3
tp2212
a(I5
I5
tp2213
a(I5
I7
tp2214
a(I5
I9
tp2215
a(I5
I11
tp2216
a(I5
I13
tp2217
a(I5
I15
tp2218
a(I5
I17
tp2219
a(I5
I19
tp2220
a(I5
I21
tp2221
a(I5
I23
tp2222
a(I5
I25
tp2223
a(I5
I27
tp2224
a(I5
I29
tp2225
a(I5
I31
tp2226
a(I5
I33
tp2227
a(I5
I35
tp2228
a(I5
I37
tp2229
a(I5
I39
tp2230
a(I5
I41
tp2231
a(I5
I43
tp2232
a(I5
I45
tp2233
a(I5
I47
tp2234
a(I5
I49
tp2235
a(I5
I51
tp2236
a(I5
I53
tp2237
a(I5
I55
tp2238
a(I5
I57
tp2239
a(I5
I59
tp2240
a(I5
I61
tp2241
a(I5
I63
tp2242
a(I6
I0
tp2243
a(I6
I1
tp2244
a(I6
I2
tp2245
a(I6
I3
tp2246
a(I6
I4
tp2247
a(I6
I5
tp2248
a(I7
I0
tp2249
a(I7
I1
tp2250
a(I7
I2
tp2251
a(I8
I0
tp2252
a(I9
I0
tp2253
a(I10
I24
tp2254
a(I11
I0
tp2255
a(I12
I0
tp2256
a(I13
I1
tp2257
a(I13
I3
tp2258
a(I13
I5
tp2259
a(I13
I7
tp2260
a(I13
I9
tp2261
a(I13
I11
tp2262
a(I13
I13
tp2263
a(I13
I15
tp2264
a(I13
I17
tp2265
a(I13
I19
tp2266
a(I13
I21
tp2267
a(I13
I23
tp2268
a(I13
I25
tp2269
a(I13
I27
tp2270
a(I13
I29
tp2271
a(I13
I31
tp2272
a(I14
I0
tp2273
a(I14
I1
tp2274
a(I14
I2
tp2275
a(I14
I3
tp2276
a(I14
I4
tp2277
a(I15
I0
tp2278
a(I16
I0
tp2279
a(I17
I1
tp2280
a(I17
I3
tp2281
a(I17
I5
tp2282
a(I17
I7
tp2283
a(I17
I9
tp2284
a(I17
I11
tp2285
a(I17
I13
tp2286
a(I17
I15
tp2287
a(I17
I17
tp2288
a(I17
I19
tp2289
a(I17
I21
tp2290
a(I17
I23
tp2291
a(I17
I25
tp2292
a(I17
I27
tp2293
a(I17
I29
tp2294
a(I17
I31
tp2295
a(I18
I0
tp2296
a(I19
I0
tp2297
a(I20
I15
tp2298
a(I21
I7
tp2299
a(I22
I3
tp2300
a(I23
I22
tp2301
a(I24
I0
tp2302
a(I25
I0
tp2303
a(I26
I1
tp2304
a(I26
I3
tp2305
a(I26
I5
tp2306
a(I26
I7
tp2307
a(I26
I9
tp2308
a(I26
I11
tp2309
a(I26
I13
tp2310
a(I26
I15
tp2311
a(I26
I17
tp2312
a(I26
I19
tp2313
a(I26
I21
tp2314
a(I26
I23
tp2315
a(I26
I25
tp2316
a(I26
I27
tp2317
a(I26
I29
tp2318
a(I26
I31
tp2319
a(I27
I0
tp2320
a(I27
I1
tp2321
a(I27
I2
tp2322
a(I27
I3
tp2323
a(I27
I4
tp2324
a(I27
I5
tp2325
a(I27
I6
tp2326
a(I27
I7
tp2327
a(I27
I8
tp2328
a(I27
I9
tp2329
a(I27
I10
tp2330
a(I28
I0
tp2331
a(I29
I0
tp2332
a(I30
I0
tp2333
a(I30
I1
tp2334
a(I30
I2
tp2335
a(I30
I3
tp2336
a(I30
I4
tp2337
a(I30
I5
tp2338
a(I31
I1
tp2339
a(I31
I3
tp2340
a(I31
I5
tp2341
a(I31
I7
tp2342
a(I31
I9
tp2343
a(I31
I11
tp2344
a(I31
I13
tp2345
a(I31
I15
tp2346
a(I31
I17
tp2347
a(I31
I19
tp2348
a(I31
I21
tp2349
a(I31
I23
tp2350
a(I31
I25
tp2351
a(I31
I27
tp2352
a(I31
I29
tp2353
a(I31
I31
tp2354
a(I31
I33
tp2355
a(I31
I35
tp2356
a(I31
I37
tp2357
a(I31
I39
tp2358
a(I31
I41
tp2359
a(I31
I43
tp2360
a(I31
I45
tp2361
a(I31
I47
tp2362
a(I31
I49
tp2363
a(I31
I51
tp2364
a(I31
I53
tp2365
a(I31
I55
tp2366
a(I31
I57
tp2367
a(I31
I59
tp2368
a(I31
I61
tp2369
a(I31
I63
tp2370
a(I32
I0
tp2371
a(I32
I1
tp2372
a(I32
I2
tp2373
a(I32
I3
tp2374
a(I32
I4
tp2375
a(I32
I5
tp2376
a(I33
I0
tp2377
a(I34
I0
tp2378
a(I35
I0
tp2379
a(I36
I26
tp2380
a(I37
I0
tp2381
a(I38
I1
tp2382
a(I38
I3
tp2383
a(I38
I5
tp2384
a(I38
I7
tp2385
a(I38
I9
tp2386
a(I38
I11
tp2387
a(I38
I13
tp2388
a(I38
I15
tp2389
a(I38
I17
tp2390
a(I38
I19
tp2391
a(I38
I21
tp2392
a(I38
I23
tp2393
a(I38
I25
tp2394
a(I38
I27
tp2395
a(I38
I29
tp2396
a(I38
I31
tp2397
a(I39
I0
tp2398
a(I39
I1
tp2399
a(I39
I2
tp2400
a(I39
I3
tp2401
a(I39
I4
tp2402
a(I39
I5
tp2403
a(I39
I6
tp2404
a(I39
I7
tp2405
a(I39
I8
tp2406
a(I39
I9
tp2407
a(I39
I10
tp2408
a(I39
I11
tp2409
a(I39
I12
tp2410
a(I39
I13
tp2411
a(I39
I14
tp2412
a(I39
I15
tp2413
a(I40
I1
tp2414
a(I40
I3
tp2415
a(I40
I5
tp2416
a(I40
I7
tp2417
a(I40
I9
tp2418
a(I40
I11
tp2419
a(I40
I13
tp2420
a(I40
I15
tp2421
a(I40
I17
tp2422
a(I40
I19
tp2423
a(I40
I21
tp2424
a(I40
I23
tp2425
a(I40
I25
tp2426
a(I40
I27
tp2427
a(I40
I29
tp2428
a(I40
I31
tp2429
a(I40
I33
tp2430
a(I40
I35
tp2431
a(I40
I37
tp2432
a(I40
I39
tp2433
a(I40
I41
tp2434
a(I40
I43
tp2435
a(I40
I45
tp2436
a(I40
I47
tp2437
a(I40
I49
tp2438
a(I40
I51
tp2439
a(I40
I53
tp2440
a(I40
I55
tp2441
a(I40
I57
tp2442
a(I40
I59
tp2443
a(I40
I61
tp2444
a(I40
I63
tp2445
a(I41
I0
tp2446
a(I41
I1
tp2447
a(I41
I2
tp2448
a(I41
I3
tp2449
a(I41
I4
tp2450
a(I41
I5
tp2451
a(I41
I6
tp2452
a(I41
I7
tp2453
a(I42
I1
tp2454
a(I42
I3
tp2455
a(I42
I5
tp2456
a(I42
I7
tp2457
a(I42
I9
tp2458
a(I42
I11
tp2459
a(I42
I13
tp2460
a(I42
I15
tp2461
a(I42
I17
tp2462
a(I42
I19
tp2463
a(I42
I21
tp2464
a(I42
I23
tp2465
a(I42
I25
tp2466
a(I42
I27
tp2467
a(I42
I29
tp2468
a(I42
I31
tp2469
a(I43
I0
tp2470
a(I44
I0
tp2471
a(I45
I0
tp2472
a(I46
I24
tp2473
a(I47
I0
tp2474
a(I47
I1
tp2475
a(I47
I2
tp2476
a(I47
I3
tp2477
a(I48
I0
tp2478
a(I49
I0
tp2479
a(I49
I1
tp2480
a(I49
I2
tp2481
a(I49
I3
tp2482
a(I49
I4
tp2483
a(I49
I5
tp2484
a(I49
I6
tp2485
a(I49
I7
tp2486
a(I49
I8
tp2487
a(I49
I9
tp2488
a(I49
I10
tp2489
a(I50
I22
tp2490
a(I51
I0
tp2491
a(I52
I0
tp2492
a(I53
I0
tp2493
a(I53
I1
tp2494
a(I53
I2
tp2495
a(I53
I3
tp2496
a(I53
I4
tp2497
a(I53
I5
tp2498
a(I54
I1
tp2499
a(I54
I3
tp2500
a(I54
I5
tp2501
a(I54
I7
tp2502
a(I54
I9
tp2503
a(I54
I11
tp2504
a(I54
I13
tp2505
a(I54
I15
tp2506
a(I54
I17
tp2507
a(I54
I19
tp2508
a(I54
I21
tp2509
a(I54
I23
tp2510
a(I54
I25
tp2511
a(I54
I27
tp2512
a(I54
I29
tp2513
a(I54
I31
tp2514
a(I54
I33
tp2515
a(I54
I35
tp2516
a(I54
I37
tp2517
a(I54
I39
tp2518
a(I54
I41
tp2519
a(I54
I43
tp2520
a(I54
I45
tp2521
a(I54
I47
tp2522
a(I54
I49
tp2523
a(I54
I51
tp2524
a(I54
I53
tp2525
a(I54
I55
tp2526
a(I54
I57
tp2527
a(I54
I59
tp2528
a(I54
I61
tp2529
a(I54
I63
tp2530
a(I55
I0
tp2531
a(I55
I1
tp2532
a(I55
I2
tp2533
a(I55
I3
tp2534
a(I55
I4
tp2535
a(I55
I5
tp2536
a(I56
I0
tp2537
a(I57
I0
tp2538
a(I58
I0
tp2539
a(I59
I26
tp2540
a(I60
I0
tp2541
a(I61
I1
tp2542
a(I61
I3
tp2543
a(I61
I5
tp2544
a(I61
I7
tp2545
a(I61
I9
tp2546
a(I61
I11
tp2547
a(I61
I13
tp2548
a(I61
I15
tp2549
a(I61
I17
tp2550
a(I61
I19
tp2551
a(I61
I21
tp2552
a(I61
I23
tp2553
a(I61
I25
tp2554
a(I61
I27
tp2555
a(I61
I29
tp2556
a(I61
I31
tp2557
a(I62
I0
tp2558
a(I62
I1
tp2559
a(I62
I2
tp2560
a(I62
I3
tp2561
a(I62
I4
tp2562
a(I62
I5
tp2563
a(I62
I6
tp2564
a(I62
I7
tp2565
a(I62
I8
tp2566
a(I62
I9
tp2567
a(I62
I10
tp2568
a(I62
I11
tp2569
a(I62
I12
tp2570
a(I62
I13
tp2571
a(I62
I14
tp2572
a(I62
I15
tp2573
a(I63
I1
tp2574
a(I63
I3
tp2575
a(I63
I5
tp2576
a(I63
I7
tp2577
a(I63
I9
tp2578
a(I63
I11
tp2579
a(I63
I13
tp2580
a(I63
I15
tp2581
a(I63
I17
tp2582
a(I63
I19
tp2583
a(I63
I21
tp2584
a(I63
I23
tp2585
a(I63
I25
tp2586
a(I63
I27
tp2587
a(I63
I29
tp2588
a(I63
I31
tp2589
a(I64
I1
tp2590
a(I64
I3
tp2591
a(I64
I5
tp2592
a(I64
I7
tp2593
a(I64
I9
tp2594
a(I64
I11
tp2595
a(I64
I13
tp2596
a(I64
I15
tp2597
a(I64
I17
tp2598
a(I64
I19
tp2599
a(I64
I21
tp2600
a(I64
I23
tp2601
a(I64
I25
tp2602
a(I64
I27
tp2603
a(I64
I29
tp2604
a(I64
I31
tp2605
a(I64
I33
tp2606
a(I64
I35
tp2607
a(I64
I37
tp2608
a(I64
I39
tp2609
a(I64
I41
tp2610
a(I64
I43
tp2611
a(I64
I45
tp2612
a(I64
I47
tp2613
a(I64
I49
tp2614
a(I64
I51
tp2615
a(I64
I53
tp2616
a(I64
I55
tp2617
a(I64
I57
tp2618
a(I64
I59
tp2619
a(I64
I61
tp2620
a(I64
I63
tp2621
a(I65
I0
tp2622
a(I65
I1
tp2623
a(I65
I2
tp2624
a(I65
I3
tp2625
a(I65
I4
tp2626
a(I65
I5
tp2627
a(I65
I6
tp2628
a(I65
I7
tp2629
a(I66
I0
tp2630
a(I67
I0
tp2631
a(I68
I0
tp2632
a(I69
I0
tp2633
a(I70
I24
tp2634
a(I71
I0
tp2635
a(I71
I1
tp2636
a(I71
I2
tp2637
a(I72
I0
tp2638
a(I73
I22
tp2639
a(I74
I0
tp2640
a(I74
I1
tp2641
a(I74
I2
tp2642
a(I74
I3
tp2643
a(I74
I4
tp2644
a(I74
I5
tp2645
a(I74
I6
tp2646
a(I74
I7
tp2647
a(I74
I8
tp2648
a(I74
I9
tp2649
a(I74
I10
tp2650
a(I75
I0
tp2651
a(I76
I0
tp2652
a(I77
I0
tp2653
a(I78
I6
tp2654
a(I79
I5
tp2655
asg2169
(lp2656
(I0
I0
tp2657
a(I1
I5
tp2658
a(I2
I2
tp2659
a(I3
I2
tp2660
a(I4
I2
tp2661
a(I5
I5
tp2662
a(I6
I2
tp2663
a(I7
I2
tp2664
a(I8
I0
tp2665
a(I9
I0
tp2666
a(I10
I2
tp2667
a(I11
I0
tp2668
a(I12
I0
tp2669
a(I13
I5
tp2670
a(I14
I2
tp2671
a(I15
I0
tp2672
a(I16
I0
tp2673
a(I17
I5
tp2674
a(I18
I2
tp2675
a(I19
I0
tp2676
a(I20
I2
tp2677
a(I21
I9
tp2678
a(I22
I3
tp2679
a(I23
I3
tp2680
a(I24
I0
tp2681
a(I25
I0
tp2682
a(I26
I5
tp2683
a(I27
I2
tp2684
a(I28
I0
tp2685
a(I29
I0
tp2686
a(I30
I2
tp2687
a(I31
I5
tp2688
a(I32
I2
tp2689
a(I33
I0
tp2690
a(I34
I0
tp2691
a(I35
I0
tp2692
a(I36
I2
tp2693
a(I37
I0
tp2694
a(I38
I5
tp2695
a(I39
I2
tp2696
a(I40
I5
tp2697
a(I41
I2
tp2698
a(I42
I5
tp2699
a(I43
I0
tp2700
a(I44
I2
tp2701
a(I45
I0
tp2702
a(I46
I2
tp2703
a(I47
I2
tp2704
a(I48
I0
tp2705
a(I49
I2
tp2706
a(I50
I3
tp2707
a(I51
I0
tp2708
a(I52
I0
tp2709
a(I53
I2
tp2710
a(I54
I5
tp2711
a(I55
I2
tp2712
a(I56
I0
tp2713
a(I57
I0
tp2714
a(I58
I0
tp2715
a(I59
I2
tp2716
a(I60
I0
tp2717
a(I61
I5
tp2718
a(I62
I2
tp2719
a(I63
I5
tp2720
a(I64
I5
tp2721
a(I65
I2
tp2722
a(I66
I0
tp2723
a(I67
I0
tp2724
a(I68
I0
tp2725
a(I69
I1
tp2726
a(I70
I2
tp2727
a(I71
I2
tp2728
a(I72
I0
tp2729
a(I73
I3
tp2730
a(I74
I2
tp2731
a(I75
I0
tp2732
a(I76
I0
tp2733
a(I77
I0
tp2734
a(I78
I2
tp2735
a(I79
I2
tp2736
asg2171
(lp2737
(I0
I0
tp2738
a(I1
I1
tp2739
a(I2
I0
tp2740
a(I3
I0
tp2741
a(I4
I0
tp2742
a(I5
I1
tp2743
a(I6
I0
tp2744
a(I7
I0
tp2745
a(I8
I0
tp2746
a(I9
I0
tp2747
a(I10
I0
tp2748
a(I11
I0
tp2749
a(I12
I0
tp2750
a(I13
I1
tp2751
a(I14
I0
tp2752
a(I15
I0
tp2753
a(I16
I0
tp2754
a(I17
I1
tp2755
a(I18
I0
tp2756
a(I19
I0
tp2757
a(I20
I0
tp2758
a(I21
I7
tp2759
a(I22
I1
tp2760
a(I23
I1
tp2761
a(I24
I0
tp2762
a(I25
I0
tp2763
a(I26
I1
tp2764
a(I27
I0
tp2765
a(I28
I0
tp2766
a(I29
I0
tp2767
a(I30
I0
tp2768
a(I31
I1
tp2769
a(I32
I0
tp2770
a(I33
I0
tp2771
a(I34
I0
tp2772
a(I35
I0
tp2773
a(I36
I0
tp2774
a(I37
I0
tp2775
a(I38
I1
tp2776
a(I39
I0
tp2777
a(I40
I1
tp2778
a(I41
I0
tp2779
a(I42
I1
tp2780
a(I43
I0
tp2781
a(I44
I0
tp2782
a(I45
I0
tp2783
a(I46
I0
tp2784
a(I47
I0
tp2785
a(I48
I0
tp2786
a(I49
I0
tp2787
a(I50
I1
tp2788
a(I51
I0
tp2789
a(I52
I0
tp2790
a(I53
I0
tp2791
a(I54
I1
tp2792
a(I55
I0
tp2793
a(I56
I0
tp2794
a(I57
I0
tp2795
a(I58
I0
tp2796
a(I59
I0
tp2797
a(I60
I0
tp2798
a(I61
I1
tp2799
a(I62
I0
tp2800
a(I63
I1
tp2801
a(I64
I1
tp2802
a(I65
I0
tp2803
a(I66
I0
tp2804
a(I67
I0
tp2805
a(I68
I0
tp2806
a(I69
I0
tp2807
a(I70
I0
tp2808
a(I71
I0
tp2809
a(I72
I0
tp2810
a(I73
I1
tp2811
a(I74
I0
tp2812
a(I75
I0
tp2813
a(I76
I0
tp2814
a(I77
I0
tp2815
a(I78
I0
tp2816
a(I79
I0
tp2817
assbsS'checksums'
p2818
S'34019  1387\n'
p2819
s.