(dp0
S'content'
p1
(imystruct
Struct
p2
(dp3
S'omitmicro'
p4
(lp5
(I0
I1
tp6
asS'omit_one'
p7
(dp8
S'aligned'
p9
(lp10
sS'three'
p11
(lp12
sS'one'
p13
(lp14
ssS'prefix'
p15
(dp16
g9
(lp17
(I0
I0
tp18
a(I1
I2
tp19
a(I1
I5
tp20
a(I2
I0
tp21
a(I3
I0
tp22
a(I4
I0
tp23
a(I5
I0
tp24
asg11
(lp25
(I0
I2
tp26
a(I1
I17
tp27
a(I2
I0
tp28
a(I3
I2
tp29
a(I4
I0
tp30
a(I5
I0
tp31
asg13
(lp32
(I0
I0
tp33
a(I1
I5
tp34
a(I2
I0
tp35
a(I3
I0
tp36
a(I4
I0
tp37
a(I5
I0
tp38
assbsS'checksums'
p39
S'22552    92\n'
p40
s.