(dp0
S'content'
p1
(imystruct
Struct
p2
(dp3
S'omitmicro'
p4
(lp5
(I0
I1
tp6
asS'omit_one'
p7
(dp8
S'aligned'
p9
(lp10
sS'three'
p11
(lp12
sS'one'
p13
(lp14
ssS'prefix'
p15
(dp16
g9
(lp17
(I0
I0
tp18
a(I1
I0
tp19
a(I1
I1
tp20
a(I1
I2
tp21
a(I1
I3
tp22
a(I1
I4
tp23
a(I1
I5
tp24
a(I2
I0
tp25
a(I3
I0
tp26
a(I4
I0
tp27
a(I5
I0
tp28
asg11
(lp29
(I0
I2
tp30
a(I1
I17
tp31
a(I2
I0
tp32
a(I3
I2
tp33
a(I4
I0
tp34
a(I5
I0
tp35
asg13
(lp36
(I0
I0
tp37
a(I1
I0
tp38
a(I1
I1
tp39
a(I1
I2
tp40
a(I1
I3
tp41
a(I1
I4
tp42
a(I1
I5
tp43
a(I2
I0
tp44
a(I3
I0
tp45
a(I4
I0
tp46
a(I5
I0
tp47
assbsS'checksums'
p48
S'22552    92\n'
p49
s.