(dp0
S'content'
p1
(imystruct
Struct
p2
(dp3
S'omitmicro'
p4
(lp5
sS'omit_one'
p6
(dp7
S'aligned'
p8
(lp9
sS'three'
p10
(lp11
sS'one'
p12
(lp13
ssS'prefix'
p14
(dp15
g8
(lp16
(I0
I0
tp17
a(I1
I2
tp18
a(I1
I5
tp19
a(I2
I0
tp20
a(I3
I0
tp21
a(I4
I0
tp22
a(I5
I0
tp23
asg10
(lp24
(I0
I2
tp25
a(I1
I17
tp26
a(I2
I0
tp27
a(I3
I2
tp28
a(I4
I0
tp29
a(I5
I0
tp30
asg12
(lp31
(I0
I0
tp32
a(I1
I5
tp33
a(I2
I0
tp34
a(I3
I0
tp35
a(I4
I0
tp36
a(I5
I0
tp37
assbsS'checksums'
p38
S'22552    92\n'
p39
s.