(dp0
S'content'
p1
(imystruct
Struct
p2
(dp3
S'omitmicro'
p4
(lp5
(I0
I1
tp6
a(I0
I2
tp7
a(I0
I3
tp8
a(I0
I5
tp9
a(I0
I6
tp10
a(I0
I7
tp11
a(I0
I8
tp12
a(I0
I9
tp13
a(I0
I10
tp14
a(I0
I11
tp15
a(I0
I12
tp16
a(I0
I13
tp17
a(I0
I14
tp18
a(I0
I16
tp19
a(I0
I17
tp20
a(I0
I18
tp21
a(I0
I19
tp22
a(I0
I20
tp23
a(I0
I21
tp24
a(I0
I23
tp25
a(I7
I8
tp26
a(I7
I9
tp27
a(I8
I9
tp28
a(I12
I13
tp29
a(I12
I14
tp30
a(I13
I14
tp31
a(I19
I20
tp32
a(I19
I21
tp33
a(I20
I21
tp34
a(I24
I25
tp35
a(I24
I26
tp36
a(I24
I27
tp37
a(I24
I29
tp38
a(I24
I30
tp39
a(I24
I31
tp40
a(I24
I32
tp41
a(I24
I33
tp42
a(I24
I34
tp43
a(I24
I35
tp44
a(I24
I36
tp45
a(I24
I37
tp46
a(I24
I38
tp47
a(I24
I39
tp48
a(I24
I40
tp49
a(I24
I41
tp50
a(I31
I32
tp51
a(I31
I33
tp52
a(I32
I33
tp53
a(I36
I37
tp54
a(I36
I38
tp55
a(I37
I38
tp56
a(I40
I41
tp57
a(I43
I45
tp58
a(I43
I47
tp59
asS'omit_one'
p60
(dp61
S'aligned'
p62
(lp63
sS'three'
p64
(lp65
sS'one'
p66
(lp67
ssS'prefix'
p68
(dp69
g62
(lp70
(I0
I0
tp71
a(I1
I2
tp72
a(I1
I5
tp73
a(I2
I2
tp74
a(I2
I5
tp75
a(I3
I2
tp76
a(I3
I5
tp77
a(I4
I0
tp78
a(I5
I0
tp79
a(I6
I2
tp80
a(I6
I5
tp81
a(I7
I2
tp82
a(I7
I5
tp83
a(I8
I0
tp84
a(I9
I0
tp85
a(I10
I1
tp86
a(I11
I2
tp87
a(I11
I5
tp88
a(I12
I2
tp89
a(I12
I5
tp90
a(I12
I8
tp91
a(I12
I11
tp92
a(I12
I14
tp93
a(I12
I17
tp94
a(I12
I20
tp95
a(I12
I23
tp96
a(I12
I26
tp97
a(I12
I29
tp98
a(I13
I0
tp99
a(I14
I0
tp100
a(I15
I0
tp101
a(I16
I0
tp102
a(I17
I1
tp103
a(I18
I2
tp104
a(I18
I5
tp105
a(I18
I8
tp106
a(I18
I11
tp107
a(I18
I14
tp108
a(I18
I17
tp109
a(I18
I20
tp110
a(I18
I23
tp111
a(I19
I2
tp112
a(I19
I5
tp113
a(I20
I0
tp114
a(I21
I0
tp115
a(I22
I0
tp116
a(I23
I0
tp117
a(I24
I0
tp118
a(I25
I2
tp119
a(I25
I5
tp120
a(I26
I2
tp121
a(I26
I5
tp122
a(I27
I2
tp123
a(I27
I5
tp124
a(I28
I0
tp125
a(I29
I1
tp126
a(I30
I2
tp127
a(I30
I5
tp128
a(I31
I2
tp129
a(I31
I5
tp130
a(I31
I8
tp131
a(I31
I11
tp132
a(I31
I14
tp133
a(I31
I17
tp134
a(I31
I20
tp135
a(I31
I23
tp136
a(I31
I26
tp137
a(I31
I29
tp138
a(I32
I0
tp139
a(I33
I0
tp140
a(I34
I1
tp141
a(I35
I2
tp142
a(I35
I5
tp143
a(I35
I8
tp144
a(I35
I11
tp145
a(I35
I14
tp146
a(I35
I17
tp147
a(I35
I20
tp148
a(I35
I23
tp149
a(I36
I2
tp150
a(I36
I5
tp151
a(I37
I0
tp152
a(I38
I0
tp153
a(I39
I2
tp154
a(I39
I5
tp155
a(I40
I2
tp156
a(I40
I5
tp157
a(I41
I0
tp158
a(I42
I0
tp159
a(I43
I20
tp160
a(I44
I0
tp161
a(I45
I0
tp162
a(I46
I0
tp163
a(I47
I0
tp164
asg64
(lp165
(I0
I0
tp166
a(I1
I17
tp167
a(I2
I17
tp168
a(I3
I17
tp169
a(I4
I0
tp170
a(I5
I0
tp171
a(I6
I17
tp172
a(I7
I17
tp173
a(I8
I2
tp174
a(I9
I0
tp175
a(I10
I5
tp176
a(I11
I17
tp177
a(I12
I17
tp178
a(I13
I2
tp179
a(I14
I2
tp180
a(I15
I0
tp181
a(I16
I0
tp182
a(I17
I5
tp183
a(I18
I17
tp184
a(I19
I17
tp185
a(I20
I2
tp186
a(I21
I2
tp187
a(I22
I0
tp188
a(I23
I0
tp189
a(I24
I0
tp190
a(I25
I17
tp191
a(I26
I17
tp192
a(I27
I17
tp193
a(I28
I0
tp194
a(I29
I5
tp195
a(I30
I17
tp196
a(I31
I17
tp197
a(I32
I2
tp198
a(I33
I2
tp199
a(I34
I5
tp200
a(I35
I17
tp201
a(I36
I17
tp202
a(I37
I2
tp203
a(I38
I2
tp204
a(I39
I17
tp205
a(I40
I17
tp206
a(I41
I2
tp207
a(I42
I0
tp208
a(I43
I9
tp209
a(I44
I0
tp210
a(I45
I0
tp211
a(I46
I0
tp212
a(I47
I0
tp213
asg66
(lp214
(I0
I0
tp215
a(I1
I5
tp216
a(I2
I5
tp217
a(I3
I5
tp218
a(I4
I0
tp219
a(I5
I0
tp220
a(I6
I5
tp221
a(I7
I5
tp222
a(I8
I0
tp223
a(I9
I0
tp224
a(I10
I1
tp225
a(I11
I5
tp226
a(I12
I5
tp227
a(I13
I0
tp228
a(I14
I0
tp229
a(I15
I0
tp230
a(I16
I0
tp231
a(I17
I1
tp232
a(I18
I5
tp233
a(I19
I5
tp234
a(I20
I0
tp235
a(I21
I0
tp236
a(I22
I0
tp237
a(I23
I0
tp238
a(I24
I0
tp239
a(I25
I5
tp240
a(I26
I5
tp241
a(I27
I5
tp242
a(I28
I0
tp243
a(I29
I1
tp244
a(I30
I5
tp245
a(I31
I5
tp246
a(I32
I0
tp247
a(I33
I0
tp248
a(I34
I1
tp249
a(I35
I5
tp250
a(I36
I5
tp251
a(I37
I0
tp252
a(I38
I0
tp253
a(I39
I5
tp254
a(I40
I5
tp255
a(I41
I0
tp256
a(I42
I0
tp257
a(I43
I7
tp258
a(I44
I0
tp259
a(I45
I0
tp260
a(I46
I0
tp261
a(I47
I0
tp262
assbsS'checksums'
p263
S'19881   458\n'
p264
s.