(dp0
S'content'
p1
(imystruct
Struct
p2
(dp3
S'omitmicro'
p4
(lp5
(I0
I1
tp6
a(I0
I2
tp7
a(I0
I3
tp8
a(I0
I5
tp9
a(I0
I6
tp10
a(I0
I7
tp11
a(I0
I8
tp12
a(I0
I9
tp13
a(I0
I10
tp14
a(I0
I11
tp15
a(I0
I12
tp16
a(I0
I13
tp17
a(I0
I14
tp18
a(I0
I16
tp19
a(I0
I17
tp20
a(I0
I18
tp21
a(I0
I19
tp22
a(I0
I20
tp23
a(I0
I21
tp24
a(I0
I23
tp25
a(I0
I24
tp26
a(I0
I25
tp27
a(I0
I26
tp28
a(I0
I27
tp29
a(I0
I29
tp30
a(I0
I30
tp31
a(I0
I31
tp32
a(I0
I32
tp33
a(I0
I33
tp34
a(I0
I34
tp35
a(I0
I35
tp36
a(I0
I36
tp37
a(I0
I37
tp38
a(I0
I38
tp39
a(I0
I39
tp40
a(I0
I40
tp41
a(I0
I41
tp42
a(I0
I43
tp43
a(I0
I45
tp44
a(I0
I47
tp45
a(I1
I2
tp46
a(I1
I3
tp47
a(I2
I3
tp48
a(I6
I7
tp49
a(I6
I8
tp50
a(I6
I9
tp51
a(I6
I10
tp52
a(I6
I11
tp53
a(I6
I12
tp54
a(I6
I13
tp55
a(I6
I14
tp56
a(I7
I8
tp57
a(I7
I9
tp58
a(I7
I10
tp59
a(I7
I11
tp60
a(I7
I12
tp61
a(I7
I13
tp62
a(I7
I14
tp63
a(I8
I9
tp64
a(I8
I10
tp65
a(I8
I11
tp66
a(I8
I12
tp67
a(I8
I13
tp68
a(I8
I14
tp69
a(I10
I11
tp70
a(I10
I12
tp71
a(I10
I13
tp72
a(I10
I14
tp73
a(I11
I12
tp74
a(I11
I13
tp75
a(I11
I14
tp76
a(I12
I13
tp77
a(I12
I14
tp78
a(I13
I14
tp79
a(I17
I18
tp80
a(I17
I19
tp81
a(I17
I20
tp82
a(I17
I21
tp83
a(I18
I19
tp84
a(I18
I20
tp85
a(I18
I21
tp86
a(I19
I20
tp87
a(I19
I21
tp88
a(I20
I21
tp89
a(I24
I25
tp90
a(I24
I26
tp91
a(I24
I27
tp92
a(I24
I29
tp93
a(I24
I30
tp94
a(I24
I31
tp95
a(I24
I32
tp96
a(I24
I33
tp97
a(I24
I34
tp98
a(I24
I35
tp99
a(I24
I36
tp100
a(I24
I37
tp101
a(I24
I38
tp102
a(I24
I39
tp103
a(I24
I40
tp104
a(I24
I41
tp105
a(I24
I43
tp106
a(I24
I45
tp107
a(I24
I47
tp108
a(I25
I26
tp109
a(I25
I27
tp110
a(I26
I27
tp111
a(I29
I30
tp112
a(I29
I31
tp113
a(I29
I32
tp114
a(I29
I33
tp115
a(I29
I34
tp116
a(I29
I35
tp117
a(I29
I36
tp118
a(I29
I37
tp119
a(I29
I38
tp120
a(I29
I39
tp121
a(I29
I40
tp122
a(I29
I41
tp123
a(I30
I31
tp124
a(I30
I32
tp125
a(I30
I33
tp126
a(I30
I34
tp127
a(I30
I35
tp128
a(I30
I36
tp129
a(I30
I37
tp130
a(I30
I38
tp131
a(I30
I39
tp132
a(I30
I40
tp133
a(I30
I41
tp134
a(I31
I32
tp135
a(I31
I33
tp136
a(I31
I34
tp137
a(I31
I35
tp138
a(I31
I36
tp139
a(I31
I37
tp140
a(I31
I38
tp141
a(I31
I39
tp142
a(I31
I40
tp143
a(I31
I41
tp144
a(I32
I33
tp145
a(I32
I34
tp146
a(I32
I35
tp147
a(I32
I36
tp148
a(I32
I37
tp149
a(I32
I38
tp150
a(I32
I39
tp151
a(I32
I40
tp152
a(I32
I41
tp153
a(I33
I34
tp154
a(I33
I35
tp155
a(I33
I36
tp156
a(I33
I37
tp157
a(I33
I38
tp158
a(I33
I39
tp159
a(I33
I40
tp160
a(I33
I41
tp161
a(I34
I35
tp162
a(I34
I36
tp163
a(I34
I37
tp164
a(I34
I38
tp165
a(I34
I39
tp166
a(I34
I40
tp167
a(I34
I41
tp168
a(I35
I36
tp169
a(I35
I37
tp170
a(I35
I38
tp171
a(I35
I39
tp172
a(I35
I40
tp173
a(I35
I41
tp174
a(I36
I37
tp175
a(I36
I38
tp176
a(I36
I39
tp177
a(I36
I40
tp178
a(I36
I41
tp179
a(I37
I38
tp180
a(I37
I39
tp181
a(I37
I40
tp182
a(I37
I41
tp183
a(I38
I39
tp184
a(I38
I40
tp185
a(I38
I41
tp186
a(I39
I40
tp187
a(I39
I41
tp188
a(I40
I41
tp189
a(I43
I45
tp190
a(I43
I47
tp191
asS'omit_one'
p192
(dp193
S'aligned'
p194
(lp195
((I12
I2
tp196
(I12
I3
tp197
tp198
a(g196
(I12
I4
tp199
tp200
a(g196
(I12
I5
tp201
tp202
a(g196
(I12
I6
tp203
tp204
a(g196
(I12
I7
tp205
tp206
a(g196
(I12
I8
tp207
tp208
a(g196
(I12
I9
tp209
tp210
a(g196
(I12
I10
tp211
tp212
a(g196
(I12
I11
tp213
tp214
a(g196
(I12
I12
tp215
tp216
a(g196
(I12
I13
tp217
tp218
a(g196
(I12
I14
tp219
tp220
a((I12
I5
tp221
(I12
I6
tp222
tp223
a(g221
(I12
I7
tp224
tp225
a(g221
(I12
I8
tp226
tp227
a(g221
(I12
I9
tp228
tp229
a(g221
(I12
I10
tp230
tp231
a(g221
(I12
I11
tp232
tp233
a(g221
(I12
I12
tp234
tp235
a(g221
(I12
I13
tp236
tp237
a(g221
(I12
I14
tp238
tp239
a((I12
I8
tp240
(I12
I9
tp241
tp242
a(g240
(I12
I10
tp243
tp244
a(g240
(I12
I11
tp245
tp246
a(g240
(I12
I12
tp247
tp248
a(g240
(I12
I13
tp249
tp250
a(g240
(I12
I14
tp251
tp252
a((I12
I11
tp253
(I12
I12
tp254
tp255
a(g253
(I12
I13
tp256
tp257
a(g253
(I12
I14
tp258
tp259
a((I18
I2
tp260
(I18
I3
tp261
tp262
a(g260
(I18
I4
tp263
tp264
a(g260
(I18
I5
tp265
tp266
a(g260
(I18
I6
tp267
tp268
a(g260
(I18
I7
tp269
tp270
a(g260
(I18
I8
tp271
tp272
a(g260
(I18
I9
tp273
tp274
a(g260
(I18
I10
tp275
tp276
a(g260
(I18
I11
tp277
tp278
a((I18
I5
tp279
(I18
I6
tp280
tp281
a(g279
(I18
I7
tp282
tp283
a(g279
(I18
I8
tp284
tp285
a(g279
(I18
I9
tp286
tp287
a(g279
(I18
I10
tp288
tp289
a(g279
(I18
I11
tp290
tp291
a((I18
I8
tp292
(I18
I9
tp293
tp294
a(g292
(I18
I10
tp295
tp296
a(g292
(I18
I11
tp297
tp298
a((I31
I2
tp299
(I31
I3
tp300
tp301
a(g299
(I31
I4
tp302
tp303
a(g299
(I31
I5
tp304
tp305
a(g299
(I31
I6
tp306
tp307
a(g299
(I31
I7
tp308
tp309
a(g299
(I31
I8
tp310
tp311
a(g299
(I31
I9
tp312
tp313
a(g299
(I31
I10
tp314
tp315
a(g299
(I31
I11
tp316
tp317
a(g299
(I31
I12
tp318
tp319
a(g299
(I31
I13
tp320
tp321
a(g299
(I31
I14
tp322
tp323
a((I31
I5
tp324
(I31
I6
tp325
tp326
a(g324
(I31
I7
tp327
tp328
a(g324
(I31
I8
tp329
tp330
a(g324
(I31
I9
tp331
tp332
a(g324
(I31
I10
tp333
tp334
a(g324
(I31
I11
tp335
tp336
a(g324
(I31
I12
tp337
tp338
a(g324
(I31
I13
tp339
tp340
a(g324
(I31
I14
tp341
tp342
a((I31
I8
tp343
(I31
I9
tp344
tp345
a(g343
(I31
I10
tp346
tp347
a(g343
(I31
I11
tp348
tp349
a(g343
(I31
I12
tp350
tp351
a(g343
(I31
I13
tp352
tp353
a(g343
(I31
I14
tp354
tp355
a((I31
I11
tp356
(I31
I12
tp357
tp358
a(g356
(I31
I13
tp359
tp360
a(g356
(I31
I14
tp361
tp362
a((I38
I2
tp363
(I38
I3
tp364
tp365
a(g363
(I38
I4
tp366
tp367
a(g363
(I38
I5
tp368
tp369
a(g363
(I38
I6
tp370
tp371
a(g363
(I38
I7
tp372
tp373
a(g363
(I38
I8
tp374
tp375
a(g363
(I38
I9
tp376
tp377
a(g363
(I38
I10
tp378
tp379
a(g363
(I38
I11
tp380
tp381
a((I38
I5
tp382
(I38
I6
tp383
tp384
a(g382
(I38
I7
tp385
tp386
a(g382
(I38
I8
tp387
tp388
a(g382
(I38
I9
tp389
tp390
a(g382
(I38
I10
tp391
tp392
a(g382
(I38
I11
tp393
tp394
a((I38
I8
tp395
(I38
I9
tp396
tp397
a(g395
(I38
I10
tp398
tp399
a(g395
(I38
I11
tp400
tp401
a((I43
I0
tp402
(I43
I1
tp403
tp404
a(g402
(I43
I2
tp405
tp406
a(g402
(I43
I3
tp407
tp408
a(g402
(I43
I4
tp409
tp410
a(g402
(I43
I5
tp411
tp412
a(g402
(I43
I6
tp413
tp414
a(g402
(I43
I7
tp415
tp416
a(g402
(I43
I8
tp417
tp418
a(g402
(I43
I9
tp419
tp420
a(g402
(I43
I10
tp421
tp422
a(g402
(I43
I11
tp423
tp424
a(g402
(I43
I12
tp425
tp426
a(g402
(I43
I13
tp427
tp428
a(g402
(I43
I14
tp429
tp430
a(g402
(I43
I15
tp431
tp432
a(g402
(I43
I16
tp433
tp434
a((I43
I1
tp435
(I43
I2
tp436
tp437
a(g435
(I43
I3
tp438
tp439
a(g435
(I43
I4
tp440
tp441
a(g435
(I43
I5
tp442
tp443
a(g435
(I43
I6
tp444
tp445
a(g435
(I43
I7
tp446
tp447
a(g435
(I43
I8
tp448
tp449
a(g435
(I43
I9
tp450
tp451
a(g435
(I43
I10
tp452
tp453
a(g435
(I43
I11
tp454
tp455
a(g435
(I43
I12
tp456
tp457
a(g435
(I43
I13
tp458
tp459
a(g435
(I43
I14
tp460
tp461
a(g435
(I43
I15
tp462
tp463
a(g435
(I43
I16
tp464
tp465
a((I43
I2
tp466
(I43
I3
tp467
tp468
a(g466
(I43
I4
tp469
tp470
a(g466
(I43
I5
tp471
tp472
a(g466
(I43
I6
tp473
tp474
a(g466
(I43
I7
tp475
tp476
a(g466
(I43
I8
tp477
tp478
a(g466
(I43
I9
tp479
tp480
a(g466
(I43
I10
tp481
tp482
a(g466
(I43
I11
tp483
tp484
a(g466
(I43
I12
tp485
tp486
a(g466
(I43
I13
tp487
tp488
a(g466
(I43
I14
tp489
tp490
a(g466
(I43
I15
tp491
tp492
a(g466
(I43
I16
tp493
tp494
a((I43
I3
tp495
(I43
I4
tp496
tp497
a(g495
(I43
I5
tp498
tp499
a(g495
(I43
I6
tp500
tp501
a(g495
(I43
I7
tp502
tp503
a(g495
(I43
I8
tp504
tp505
a(g495
(I43
I9
tp506
tp507
a(g495
(I43
I10
tp508
tp509
a(g495
(I43
I11
tp510
tp511
a(g495
(I43
I12
tp512
tp513
a(g495
(I43
I13
tp514
tp515
a(g495
(I43
I14
tp516
tp517
a(g495
(I43
I15
tp518
tp519
a(g495
(I43
I16
tp520
tp521
a((I43
I4
tp522
(I43
I5
tp523
tp524
a(g522
(I43
I6
tp525
tp526
a(g522
(I43
I7
tp527
tp528
a(g522
(I43
I8
tp529
tp530
a(g522
(I43
I9
tp531
tp532
a(g522
(I43
I10
tp533
tp534
a(g522
(I43
I11
tp535
tp536
a(g522
(I43
I12
tp537
tp538
a(g522
(I43
I13
tp539
tp540
a(g522
(I43
I14
tp541
tp542
a(g522
(I43
I15
tp543
tp544
a(g522
(I43
I16
tp545
tp546
a((I43
I5
tp547
(I43
I6
tp548
tp549
a(g547
(I43
I7
tp550
tp551
a(g547
(I43
I8
tp552
tp553
a(g547
(I43
I9
tp554
tp555
a(g547
(I43
I10
tp556
tp557
a(g547
(I43
I11
tp558
tp559
a(g547
(I43
I12
tp560
tp561
a(g547
(I43
I13
tp562
tp563
a(g547
(I43
I14
tp564
tp565
a(g547
(I43
I15
tp566
tp567
a(g547
(I43
I16
tp568
tp569
a((I43
I6
tp570
(I43
I7
tp571
tp572
a(g570
(I43
I8
tp573
tp574
a(g570
(I43
I9
tp575
tp576
a(g570
(I43
I10
tp577
tp578
a(g570
(I43
I11
tp579
tp580
a(g570
(I43
I12
tp581
tp582
a(g570
(I43
I13
tp583
tp584
a(g570
(I43
I14
tp585
tp586
a(g570
(I43
I15
tp587
tp588
a(g570
(I43
I16
tp589
tp590
a((I43
I7
tp591
(I43
I8
tp592
tp593
a(g591
(I43
I9
tp594
tp595
a(g591
(I43
I10
tp596
tp597
a(g591
(I43
I11
tp598
tp599
a(g591
(I43
I12
tp600
tp601
a(g591
(I43
I13
tp602
tp603
a(g591
(I43
I14
tp604
tp605
a(g591
(I43
I15
tp606
tp607
a(g591
(I43
I16
tp608
tp609
a((I43
I8
tp610
(I43
I9
tp611
tp612
a(g610
(I43
I10
tp613
tp614
a(g610
(I43
I11
tp615
tp616
a(g610
(I43
I12
tp617
tp618
a(g610
(I43
I13
tp619
tp620
a(g610
(I43
I14
tp621
tp622
a(g610
(I43
I15
tp623
tp624
a(g610
(I43
I16
tp625
tp626
a((I43
I9
tp627
(I43
I10
tp628
tp629
a(g627
(I43
I11
tp630
tp631
a(g627
(I43
I12
tp632
tp633
a(g627
(I43
I13
tp634
tp635
a(g627
(I43
I14
tp636
tp637
a(g627
(I43
I15
tp638
tp639
a(g627
(I43
I16
tp640
tp641
a((I43
I10
tp642
(I43
I11
tp643
tp644
a(g642
(I43
I12
tp645
tp646
a(g642
(I43
I13
tp647
tp648
a(g642
(I43
I14
tp649
tp650
a(g642
(I43
I15
tp651
tp652
a(g642
(I43
I16
tp653
tp654
a((I43
I11
tp655
(I43
I12
tp656
tp657
a(g655
(I43
I13
tp658
tp659
a(g655
(I43
I14
tp660
tp661
a(g655
(I43
I15
tp662
tp663
a(g655
(I43
I16
tp664
tp665
a((I43
I12
tp666
(I43
I13
tp667
tp668
a(g666
(I43
I14
tp669
tp670
a(g666
(I43
I15
tp671
tp672
a(g666
(I43
I16
tp673
tp674
a((I43
I13
tp675
(I43
I14
tp676
tp677
a(g675
(I43
I15
tp678
tp679
a(g675
(I43
I16
tp680
tp681
a((I43
I14
tp682
(I43
I15
tp683
tp684
a(g682
(I43
I16
tp685
tp686
a((I43
I15
tp687
(I43
I16
tp688
tp689
asS'three'
p690
(lp691
((I1
I2
tp692
(I1
I3
tp693
tp694
a(g692
(I1
I4
tp695
tp696
a(g692
(I1
I5
tp697
tp698
a(g692
(I1
I6
tp699
tp700
a(g692
(I1
I7
tp701
tp702
a(g692
(I1
I8
tp703
tp704
a((I1
I5
tp705
(I1
I6
tp706
tp707
a(g705
(I1
I7
tp708
tp709
a(g705
(I1
I8
tp710
tp711
a((I2
I2
tp712
(I2
I3
tp713
tp714
a(g712
(I2
I4
tp715
tp716
a(g712
(I2
I5
tp717
tp718
a(g712
(I2
I6
tp719
tp720
a(g712
(I2
I7
tp721
tp722
a(g712
(I2
I8
tp723
tp724
a((I2
I5
tp725
(I2
I6
tp726
tp727
a(g725
(I2
I7
tp728
tp729
a(g725
(I2
I8
tp730
tp731
a((I3
I2
tp732
(I3
I3
tp733
tp734
a(g732
(I3
I4
tp735
tp736
a(g732
(I3
I5
tp737
tp738
a(g732
(I3
I6
tp739
tp740
a(g732
(I3
I7
tp741
tp742
a(g732
(I3
I8
tp743
tp744
a((I3
I5
tp745
(I3
I6
tp746
tp747
a(g745
(I3
I7
tp748
tp749
a(g745
(I3
I8
tp750
tp751
a((I6
I2
tp752
(I6
I3
tp753
tp754
a(g752
(I6
I4
tp755
tp756
a(g752
(I6
I5
tp757
tp758
a(g752
(I6
I6
tp759
tp760
a(g752
(I6
I7
tp761
tp762
a(g752
(I6
I8
tp763
tp764
a((I6
I5
tp765
(I6
I6
tp766
tp767
a(g765
(I6
I7
tp768
tp769
a(g765
(I6
I8
tp770
tp771
a((I7
I2
tp772
(I7
I3
tp773
tp774
a(g772
(I7
I4
tp775
tp776
a(g772
(I7
I5
tp777
tp778
a(g772
(I7
I6
tp779
tp780
a(g772
(I7
I7
tp781
tp782
a(g772
(I7
I8
tp783
tp784
a((I7
I5
tp785
(I7
I6
tp786
tp787
a(g785
(I7
I7
tp788
tp789
a(g785
(I7
I8
tp790
tp791
a((I8
I0
tp792
(I8
I1
tp793
tp794
a(g792
(I8
I2
tp795
tp796
a((I8
I1
tp797
(I8
I2
tp798
tp799
a((I10
I1
tp800
(I10
I2
tp801
tp802
a(g800
(I10
I3
tp803
tp804
a(g800
(I10
I4
tp805
tp806
a(g800
(I10
I5
tp807
tp808
a((I10
I3
tp809
(I10
I4
tp810
tp811
a(g809
(I10
I5
tp812
tp813
a((I11
I2
tp814
(I11
I3
tp815
tp816
a(g814
(I11
I4
tp817
tp818
a(g814
(I11
I5
tp819
tp820
a(g814
(I11
I6
tp821
tp822
a(g814
(I11
I7
tp823
tp824
a(g814
(I11
I8
tp825
tp826
a((I11
I5
tp827
(I11
I6
tp828
tp829
a(g827
(I11
I7
tp830
tp831
a(g827
(I11
I8
tp832
tp833
a((I12
I2
tp834
(I12
I3
tp835
tp836
a(g834
(I12
I4
tp837
tp838
a(g834
(I12
I5
tp839
tp840
a(g834
(I12
I6
tp841
tp842
a(g834
(I12
I7
tp843
tp844
a(g834
(I12
I8
tp845
tp846
a((I12
I5
tp847
(I12
I6
tp848
tp849
a(g847
(I12
I7
tp850
tp851
a(g847
(I12
I8
tp852
tp853
a((I13
I0
tp854
(I13
I1
tp855
tp856
a(g854
(I13
I2
tp857
tp858
a((I13
I1
tp859
(I13
I2
tp860
tp861
a((I14
I0
tp862
(I14
I1
tp863
tp864
a(g862
(I14
I2
tp865
tp866
a((I14
I1
tp867
(I14
I2
tp868
tp869
a((I17
I1
tp870
(I17
I2
tp871
tp872
a(g870
(I17
I3
tp873
tp874
a(g870
(I17
I4
tp875
tp876
a(g870
(I17
I5
tp877
tp878
a((I17
I3
tp879
(I17
I4
tp880
tp881
a(g879
(I17
I5
tp882
tp883
a((I18
I2
tp884
(I18
I3
tp885
tp886
a(g884
(I18
I4
tp887
tp888
a(g884
(I18
I5
tp889
tp890
a(g884
(I18
I6
tp891
tp892
a(g884
(I18
I7
tp893
tp894
a(g884
(I18
I8
tp895
tp896
a((I18
I5
tp897
(I18
I6
tp898
tp899
a(g897
(I18
I7
tp900
tp901
a(g897
(I18
I8
tp902
tp903
a((I19
I2
tp904
(I19
I3
tp905
tp906
a(g904
(I19
I4
tp907
tp908
a(g904
(I19
I5
tp909
tp910
a(g904
(I19
I6
tp911
tp912
a(g904
(I19
I7
tp913
tp914
a(g904
(I19
I8
tp915
tp916
a((I19
I5
tp917
(I19
I6
tp918
tp919
a(g917
(I19
I7
tp920
tp921
a(g917
(I19
I8
tp922
tp923
a((I20
I0
tp924
(I20
I1
tp925
tp926
a(g924
(I20
I2
tp927
tp928
a((I20
I1
tp929
(I20
I2
tp930
tp931
a((I21
I0
tp932
(I21
I1
tp933
tp934
a(g932
(I21
I2
tp935
tp936
a((I21
I1
tp937
(I21
I2
tp938
tp939
a((I25
I2
tp940
(I25
I3
tp941
tp942
a(g940
(I25
I4
tp943
tp944
a(g940
(I25
I5
tp945
tp946
a(g940
(I25
I6
tp947
tp948
a(g940
(I25
I7
tp949
tp950
a(g940
(I25
I8
tp951
tp952
a((I25
I5
tp953
(I25
I6
tp954
tp955
a(g953
(I25
I7
tp956
tp957
a(g953
(I25
I8
tp958
tp959
a((I26
I2
tp960
(I26
I3
tp961
tp962
a(g960
(I26
I4
tp963
tp964
a(g960
(I26
I5
tp965
tp966
a(g960
(I26
I6
tp967
tp968
a(g960
(I26
I7
tp969
tp970
a(g960
(I26
I8
tp971
tp972
a((I26
I5
tp973
(I26
I6
tp974
tp975
a(g973
(I26
I7
tp976
tp977
a(g973
(I26
I8
tp978
tp979
a((I27
I2
tp980
(I27
I3
tp981
tp982
a(g980
(I27
I4
tp983
tp984
a(g980
(I27
I5
tp985
tp986
a(g980
(I27
I6
tp987
tp988
a(g980
(I27
I7
tp989
tp990
a(g980
(I27
I8
tp991
tp992
a((I27
I5
tp993
(I27
I6
tp994
tp995
a(g993
(I27
I7
tp996
tp997
a(g993
(I27
I8
tp998
tp999
a((I29
I1
tp1000
(I29
I2
tp1001
tp1002
a(g1000
(I29
I3
tp1003
tp1004
a(g1000
(I29
I4
tp1005
tp1006
a(g1000
(I29
I5
tp1007
tp1008
a((I29
I3
tp1009
(I29
I4
tp1010
tp1011
a(g1009
(I29
I5
tp1012
tp1013
a((I30
I2
tp1014
(I30
I3
tp1015
tp1016
a(g1014
(I30
I4
tp1017
tp1018
a(g1014
(I30
I5
tp1019
tp1020
a(g1014
(I30
I6
tp1021
tp1022
a(g1014
(I30
I7
tp1023
tp1024
a(g1014
(I30
I8
tp1025
tp1026
a((I30
I5
tp1027
(I30
I6
tp1028
tp1029
a(g1027
(I30
I7
tp1030
tp1031
a(g1027
(I30
I8
tp1032
tp1033
a((I31
I2
tp1034
(I31
I3
tp1035
tp1036
a(g1034
(I31
I4
tp1037
tp1038
a(g1034
(I31
I5
tp1039
tp1040
a(g1034
(I31
I6
tp1041
tp1042
a(g1034
(I31
I7
tp1043
tp1044
a(g1034
(I31
I8
tp1045
tp1046
a((I31
I5
tp1047
(I31
I6
tp1048
tp1049
a(g1047
(I31
I7
tp1050
tp1051
a(g1047
(I31
I8
tp1052
tp1053
a((I32
I0
tp1054
(I32
I1
tp1055
tp1056
a(g1054
(I32
I2
tp1057
tp1058
a((I32
I1
tp1059
(I32
I2
tp1060
tp1061
a((I33
I0
tp1062
(I33
I1
tp1063
tp1064
a(g1062
(I33
I2
tp1065
tp1066
a((I33
I1
tp1067
(I33
I2
tp1068
tp1069
a((I34
I2
tp1070
(I34
I3
tp1071
tp1072
a(g1070
(I34
I4
tp1073
tp1074
a(g1070
(I34
I5
tp1075
tp1076
a(g1070
(I34
I6
tp1077
tp1078
a(g1070
(I34
I7
tp1079
tp1080
a(g1070
(I34
I8
tp1081
tp1082
a((I34
I5
tp1083
(I34
I6
tp1084
tp1085
a(g1083
(I34
I7
tp1086
tp1087
a(g1083
(I34
I8
tp1088
tp1089
a((I35
I2
tp1090
(I35
I3
tp1091
tp1092
a(g1090
(I35
I4
tp1093
tp1094
a(g1090
(I35
I5
tp1095
tp1096
a(g1090
(I35
I6
tp1097
tp1098
a(g1090
(I35
I7
tp1099
tp1100
a(g1090
(I35
I8
tp1101
tp1102
a((I35
I5
tp1103
(I35
I6
tp1104
tp1105
a(g1103
(I35
I7
tp1106
tp1107
a(g1103
(I35
I8
tp1108
tp1109
a((I36
I0
tp1110
(I36
I1
tp1111
tp1112
a(g1110
(I36
I2
tp1113
tp1114
a((I36
I1
tp1115
(I36
I2
tp1116
tp1117
a((I37
I1
tp1118
(I37
I2
tp1119
tp1120
a(g1118
(I37
I3
tp1121
tp1122
a(g1118
(I37
I4
tp1123
tp1124
a(g1118
(I37
I5
tp1125
tp1126
a((I37
I3
tp1127
(I37
I4
tp1128
tp1129
a(g1127
(I37
I5
tp1130
tp1131
a((I38
I2
tp1132
(I38
I3
tp1133
tp1134
a(g1132
(I38
I4
tp1135
tp1136
a(g1132
(I38
I5
tp1137
tp1138
a(g1132
(I38
I6
tp1139
tp1140
a(g1132
(I38
I7
tp1141
tp1142
a(g1132
(I38
I8
tp1143
tp1144
a((I38
I5
tp1145
(I38
I6
tp1146
tp1147
a(g1145
(I38
I7
tp1148
tp1149
a(g1145
(I38
I8
tp1150
tp1151
a((I39
I2
tp1152
(I39
I3
tp1153
tp1154
a(g1152
(I39
I4
tp1155
tp1156
a(g1152
(I39
I5
tp1157
tp1158
a(g1152
(I39
I6
tp1159
tp1160
a(g1152
(I39
I7
tp1161
tp1162
a(g1152
(I39
I8
tp1163
tp1164
a((I39
I5
tp1165
(I39
I6
tp1166
tp1167
a(g1165
(I39
I7
tp1168
tp1169
a(g1165
(I39
I8
tp1170
tp1171
a((I40
I0
tp1172
(I40
I1
tp1173
tp1174
a(g1172
(I40
I2
tp1175
tp1176
a((I40
I1
tp1177
(I40
I2
tp1178
tp1179
a((I41
I0
tp1180
(I41
I1
tp1181
tp1182
a(g1180
(I41
I2
tp1183
tp1184
a((I41
I1
tp1185
(I41
I2
tp1186
tp1187
a((I43
I0
tp1188
(I43
I1
tp1189
tp1190
a(g1188
(I43
I2
tp1191
tp1192
a(g1188
(I43
I3
tp1193
tp1194
a(g1188
(I43
I4
tp1195
tp1196
a(g1188
(I43
I5
tp1197
tp1198
a((I43
I1
tp1199
(I43
I2
tp1200
tp1201
a(g1199
(I43
I3
tp1202
tp1203
a(g1199
(I43
I4
tp1204
tp1205
a(g1199
(I43
I5
tp1206
tp1207
a((I43
I2
tp1208
(I43
I3
tp1209
tp1210
a(g1208
(I43
I4
tp1211
tp1212
a(g1208
(I43
I5
tp1213
tp1214
a((I43
I3
tp1215
(I43
I4
tp1216
tp1217
a(g1215
(I43
I5
tp1218
tp1219
a((I43
I4
tp1220
(I43
I5
tp1221
tp1222
asS'one'
p1223
(lp1224
((I43
I0
tp1225
(I43
I1
tp1226
tp1227
a(g1225
(I43
I2
tp1228
tp1229
a(g1225
(I43
I3
tp1230
tp1231
a((I43
I1
tp1232
(I43
I2
tp1233
tp1234
a(g1232
(I43
I3
tp1235
tp1236
a((I43
I2
tp1237
(I43
I3
tp1238
tp1239
assS'prefix'
p1240
(dp1241
g194
(lp1242
(I0
I0
tp1243
a(I1
I0
tp1244
a(I1
I1
tp1245
a(I1
I2
tp1246
a(I1
I3
tp1247
a(I1
I4
tp1248
a(I1
I5
tp1249
a(I2
I0
tp1250
a(I2
I1
tp1251
a(I2
I2
tp1252
a(I2
I3
tp1253
a(I2
I4
tp1254
a(I2
I5
tp1255
a(I3
I0
tp1256
a(I3
I1
tp1257
a(I3
I2
tp1258
a(I3
I3
tp1259
a(I3
I4
tp1260
a(I3
I5
tp1261
a(I4
I0
tp1262
a(I5
I0
tp1263
a(I6
I0
tp1264
a(I6
I1
tp1265
a(I6
I2
tp1266
a(I6
I3
tp1267
a(I6
I4
tp1268
a(I6
I5
tp1269
a(I7
I0
tp1270
a(I7
I1
tp1271
a(I7
I2
tp1272
a(I7
I3
tp1273
a(I7
I4
tp1274
a(I7
I5
tp1275
a(I8
I0
tp1276
a(I9
I0
tp1277
a(I10
I0
tp1278
a(I10
I1
tp1279
a(I11
I0
tp1280
a(I11
I1
tp1281
a(I11
I2
tp1282
a(I11
I3
tp1283
a(I11
I4
tp1284
a(I11
I5
tp1285
a(I12
I0
tp1286
a(I12
I1
tp1287
a(I12
I2
tp1288
a(I12
I3
tp1289
a(I12
I4
tp1290
a(I12
I5
tp1291
a(I12
I6
tp1292
a(I12
I7
tp1293
a(I12
I8
tp1294
a(I12
I9
tp1295
a(I12
I10
tp1296
a(I12
I11
tp1297
a(I12
I12
tp1298
a(I12
I13
tp1299
a(I12
I14
tp1300
a(I12
I15
tp1301
a(I12
I16
tp1302
a(I12
I17
tp1303
a(I12
I18
tp1304
a(I12
I19
tp1305
a(I12
I20
tp1306
a(I12
I21
tp1307
a(I12
I22
tp1308
a(I12
I23
tp1309
a(I12
I24
tp1310
a(I12
I25
tp1311
a(I12
I26
tp1312
a(I12
I27
tp1313
a(I12
I28
tp1314
a(I12
I29
tp1315
a(I13
I0
tp1316
a(I14
I0
tp1317
a(I15
I0
tp1318
a(I16
I0
tp1319
a(I17
I0
tp1320
a(I17
I1
tp1321
a(I18
I0
tp1322
a(I18
I1
tp1323
a(I18
I2
tp1324
a(I18
I3
tp1325
a(I18
I4
tp1326
a(I18
I5
tp1327
a(I18
I6
tp1328
a(I18
I7
tp1329
a(I18
I8
tp1330
a(I18
I9
tp1331
a(I18
I10
tp1332
a(I18
I11
tp1333
a(I18
I12
tp1334
a(I18
I13
tp1335
a(I18
I14
tp1336
a(I18
I15
tp1337
a(I18
I16
tp1338
a(I18
I17
tp1339
a(I18
I18
tp1340
a(I18
I19
tp1341
a(I18
I20
tp1342
a(I18
I21
tp1343
a(I18
I22
tp1344
a(I18
I23
tp1345
a(I19
I0
tp1346
a(I19
I1
tp1347
a(I19
I2
tp1348
a(I19
I3
tp1349
a(I19
I4
tp1350
a(I19
I5
tp1351
a(I20
I0
tp1352
a(I21
I0
tp1353
a(I22
I0
tp1354
a(I23
I0
tp1355
a(I24
I0
tp1356
a(I25
I0
tp1357
a(I25
I1
tp1358
a(I25
I2
tp1359
a(I25
I3
tp1360
a(I25
I4
tp1361
a(I25
I5
tp1362
a(I26
I0
tp1363
a(I26
I1
tp1364
a(I26
I2
tp1365
a(I26
I3
tp1366
a(I26
I4
tp1367
a(I26
I5
tp1368
a(I27
I0
tp1369
a(I27
I1
tp1370
a(I27
I2
tp1371
a(I27
I3
tp1372
a(I27
I4
tp1373
a(I27
I5
tp1374
a(I28
I0
tp1375
a(I29
I0
tp1376
a(I29
I1
tp1377
a(I30
I0
tp1378
a(I30
I1
tp1379
a(I30
I2
tp1380
a(I30
I3
tp1381
a(I30
I4
tp1382
a(I30
I5
tp1383
a(I31
I0
tp1384
a(I31
I1
tp1385
a(I31
I2
tp1386
a(I31
I3
tp1387
a(I31
I4
tp1388
a(I31
I5
tp1389
a(I31
I6
tp1390
a(I31
I7
tp1391
a(I31
I8
tp1392
a(I31
I9
tp1393
a(I31
I10
tp1394
a(I31
I11
tp1395
a(I31
I12
tp1396
a(I31
I13
tp1397
a(I31
I14
tp1398
a(I31
I15
tp1399
a(I31
I16
tp1400
a(I31
I17
tp1401
a(I31
I18
tp1402
a(I31
I19
tp1403
a(I31
I20
tp1404
a(I31
I21
tp1405
a(I31
I22
tp1406
a(I31
I23
tp1407
a(I31
I24
tp1408
a(I31
I25
tp1409
a(I31
I26
tp1410
a(I31
I27
tp1411
a(I31
I28
tp1412
a(I31
I29
tp1413
a(I32
I0
tp1414
a(I33
I0
tp1415
a(I34
I0
tp1416
a(I34
I1
tp1417
a(I34
I2
tp1418
a(I34
I3
tp1419
a(I34
I4
tp1420
a(I34
I5
tp1421
a(I35
I0
tp1422
a(I35
I1
tp1423
a(I35
I2
tp1424
a(I35
I3
tp1425
a(I35
I4
tp1426
a(I35
I5
tp1427
a(I36
I0
tp1428
a(I37
I0
tp1429
a(I37
I1
tp1430
a(I38
I0
tp1431
a(I38
I1
tp1432
a(I38
I2
tp1433
a(I38
I3
tp1434
a(I38
I4
tp1435
a(I38
I5
tp1436
a(I38
I6
tp1437
a(I38
I7
tp1438
a(I38
I8
tp1439
a(I38
I9
tp1440
a(I38
I10
tp1441
a(I38
I11
tp1442
a(I38
I12
tp1443
a(I38
I13
tp1444
a(I38
I14
tp1445
a(I38
I15
tp1446
a(I38
I16
tp1447
a(I38
I17
tp1448
a(I38
I18
tp1449
a(I38
I19
tp1450
a(I38
I20
tp1451
a(I38
I21
tp1452
a(I38
I22
tp1453
a(I38
I23
tp1454
a(I39
I0
tp1455
a(I39
I1
tp1456
a(I39
I2
tp1457
a(I39
I3
tp1458
a(I39
I4
tp1459
a(I39
I5
tp1460
a(I40
I0
tp1461
a(I41
I0
tp1462
a(I42
I0
tp1463
a(I43
I0
tp1464
a(I43
I1
tp1465
a(I43
I2
tp1466
a(I43
I3
tp1467
a(I43
I4
tp1468
a(I43
I5
tp1469
a(I43
I6
tp1470
a(I43
I7
tp1471
a(I43
I8
tp1472
a(I43
I9
tp1473
a(I43
I10
tp1474
a(I43
I11
tp1475
a(I43
I12
tp1476
a(I43
I13
tp1477
a(I43
I14
tp1478
a(I43
I15
tp1479
a(I43
I16
tp1480
a(I43
I17
tp1481
a(I43
I18
tp1482
a(I43
I19
tp1483
a(I43
I20
tp1484
a(I44
I0
tp1485
a(I45
I0
tp1486
a(I46
I0
tp1487
a(I47
I0
tp1488
asg690
(lp1489
(I0
I0
tp1490
a(I1
I0
tp1491
a(I1
I1
tp1492
a(I1
I2
tp1493
a(I1
I3
tp1494
a(I1
I4
tp1495
a(I1
I5
tp1496
a(I1
I6
tp1497
a(I1
I7
tp1498
a(I1
I8
tp1499
a(I1
I9
tp1500
a(I1
I10
tp1501
a(I1
I11
tp1502
a(I1
I12
tp1503
a(I1
I13
tp1504
a(I1
I14
tp1505
a(I1
I15
tp1506
a(I1
I16
tp1507
a(I1
I17
tp1508
a(I2
I0
tp1509
a(I2
I1
tp1510
a(I2
I2
tp1511
a(I2
I3
tp1512
a(I2
I4
tp1513
a(I2
I5
tp1514
a(I2
I6
tp1515
a(I2
I7
tp1516
a(I2
I8
tp1517
a(I2
I9
tp1518
a(I2
I10
tp1519
a(I2
I11
tp1520
a(I2
I12
tp1521
a(I2
I13
tp1522
a(I2
I14
tp1523
a(I2
I15
tp1524
a(I2
I16
tp1525
a(I2
I17
tp1526
a(I3
I0
tp1527
a(I3
I1
tp1528
a(I3
I2
tp1529
a(I3
I3
tp1530
a(I3
I4
tp1531
a(I3
I5
tp1532
a(I3
I6
tp1533
a(I3
I7
tp1534
a(I3
I8
tp1535
a(I3
I9
tp1536
a(I3
I10
tp1537
a(I3
I11
tp1538
a(I3
I12
tp1539
a(I3
I13
tp1540
a(I3
I14
tp1541
a(I3
I15
tp1542
a(I3
I16
tp1543
a(I3
I17
tp1544
a(I4
I0
tp1545
a(I5
I0
tp1546
a(I6
I0
tp1547
a(I6
I1
tp1548
a(I6
I2
tp1549
a(I6
I3
tp1550
a(I6
I4
tp1551
a(I6
I5
tp1552
a(I6
I6
tp1553
a(I6
I7
tp1554
a(I6
I8
tp1555
a(I6
I9
tp1556
a(I6
I10
tp1557
a(I6
I11
tp1558
a(I6
I12
tp1559
a(I6
I13
tp1560
a(I6
I14
tp1561
a(I6
I15
tp1562
a(I6
I16
tp1563
a(I6
I17
tp1564
a(I7
I0
tp1565
a(I7
I1
tp1566
a(I7
I2
tp1567
a(I7
I3
tp1568
a(I7
I4
tp1569
a(I7
I5
tp1570
a(I7
I6
tp1571
a(I7
I7
tp1572
a(I7
I8
tp1573
a(I7
I9
tp1574
a(I7
I10
tp1575
a(I7
I11
tp1576
a(I7
I12
tp1577
a(I7
I13
tp1578
a(I7
I14
tp1579
a(I7
I15
tp1580
a(I7
I16
tp1581
a(I7
I17
tp1582
a(I8
I0
tp1583
a(I8
I1
tp1584
a(I8
I2
tp1585
a(I9
I0
tp1586
a(I10
I0
tp1587
a(I10
I1
tp1588
a(I10
I2
tp1589
a(I10
I3
tp1590
a(I10
I4
tp1591
a(I10
I5
tp1592
a(I11
I0
tp1593
a(I11
I1
tp1594
a(I11
I2
tp1595
a(I11
I3
tp1596
a(I11
I4
tp1597
a(I11
I5
tp1598
a(I11
I6
tp1599
a(I11
I7
tp1600
a(I11
I8
tp1601
a(I11
I9
tp1602
a(I11
I10
tp1603
a(I11
I11
tp1604
a(I11
I12
tp1605
a(I11
I13
tp1606
a(I11
I14
tp1607
a(I11
I15
tp1608
a(I11
I16
tp1609
a(I11
I17
tp1610
a(I12
I0
tp1611
a(I12
I1
tp1612
a(I12
I2
tp1613
a(I12
I3
tp1614
a(I12
I4
tp1615
a(I12
I5
tp1616
a(I12
I6
tp1617
a(I12
I7
tp1618
a(I12
I8
tp1619
a(I12
I9
tp1620
a(I12
I10
tp1621
a(I12
I11
tp1622
a(I12
I12
tp1623
a(I12
I13
tp1624
a(I12
I14
tp1625
a(I12
I15
tp1626
a(I12
I16
tp1627
a(I12
I17
tp1628
a(I13
I0
tp1629
a(I13
I1
tp1630
a(I13
I2
tp1631
a(I14
I0
tp1632
a(I14
I1
tp1633
a(I14
I2
tp1634
a(I15
I0
tp1635
a(I16
I0
tp1636
a(I17
I0
tp1637
a(I17
I1
tp1638
a(I17
I2
tp1639
a(I17
I3
tp1640
a(I17
I4
tp1641
a(I17
I5
tp1642
a(I18
I0
tp1643
a(I18
I1
tp1644
a(I18
I2
tp1645
a(I18
I3
tp1646
a(I18
I4
tp1647
a(I18
I5
tp1648
a(I18
I6
tp1649
a(I18
I7
tp1650
a(I18
I8
tp1651
a(I18
I9
tp1652
a(I18
I10
tp1653
a(I18
I11
tp1654
a(I18
I12
tp1655
a(I18
I13
tp1656
a(I18
I14
tp1657
a(I18
I15
tp1658
a(I18
I16
tp1659
a(I18
I17
tp1660
a(I19
I0
tp1661
a(I19
I1
tp1662
a(I19
I2
tp1663
a(I19
I3
tp1664
a(I19
I4
tp1665
a(I19
I5
tp1666
a(I19
I6
tp1667
a(I19
I7
tp1668
a(I19
I8
tp1669
a(I19
I9
tp1670
a(I19
I10
tp1671
a(I19
I11
tp1672
a(I19
I12
tp1673
a(I19
I13
tp1674
a(I19
I14
tp1675
a(I19
I15
tp1676
a(I19
I16
tp1677
a(I19
I17
tp1678
a(I20
I0
tp1679
a(I20
I1
tp1680
a(I20
I2
tp1681
a(I21
I0
tp1682
a(I21
I1
tp1683
a(I21
I2
tp1684
a(I22
I0
tp1685
a(I23
I0
tp1686
a(I24
I0
tp1687
a(I25
I0
tp1688
a(I25
I1
tp1689
a(I25
I2
tp1690
a(I25
I3
tp1691
a(I25
I4
tp1692
a(I25
I5
tp1693
a(I25
I6
tp1694
a(I25
I7
tp1695
a(I25
I8
tp1696
a(I25
I9
tp1697
a(I25
I10
tp1698
a(I25
I11
tp1699
a(I25
I12
tp1700
a(I25
I13
tp1701
a(I25
I14
tp1702
a(I25
I15
tp1703
a(I25
I16
tp1704
a(I25
I17
tp1705
a(I26
I0
tp1706
a(I26
I1
tp1707
a(I26
I2
tp1708
a(I26
I3
tp1709
a(I26
I4
tp1710
a(I26
I5
tp1711
a(I26
I6
tp1712
a(I26
I7
tp1713
a(I26
I8
tp1714
a(I26
I9
tp1715
a(I26
I10
tp1716
a(I26
I11
tp1717
a(I26
I12
tp1718
a(I26
I13
tp1719
a(I26
I14
tp1720
a(I26
I15
tp1721
a(I26
I16
tp1722
a(I26
I17
tp1723
a(I27
I0
tp1724
a(I27
I1
tp1725
a(I27
I2
tp1726
a(I27
I3
tp1727
a(I27
I4
tp1728
a(I27
I5
tp1729
a(I27
I6
tp1730
a(I27
I7
tp1731
a(I27
I8
tp1732
a(I27
I9
tp1733
a(I27
I10
tp1734
a(I27
I11
tp1735
a(I27
I12
tp1736
a(I27
I13
tp1737
a(I27
I14
tp1738
a(I27
I15
tp1739
a(I27
I16
tp1740
a(I27
I17
tp1741
a(I28
I0
tp1742
a(I29
I0
tp1743
a(I29
I1
tp1744
a(I29
I2
tp1745
a(I29
I3
tp1746
a(I29
I4
tp1747
a(I29
I5
tp1748
a(I30
I0
tp1749
a(I30
I1
tp1750
a(I30
I2
tp1751
a(I30
I3
tp1752
a(I30
I4
tp1753
a(I30
I5
tp1754
a(I30
I6
tp1755
a(I30
I7
tp1756
a(I30
I8
tp1757
a(I30
I9
tp1758
a(I30
I10
tp1759
a(I30
I11
tp1760
a(I30
I12
tp1761
a(I30
I13
tp1762
a(I30
I14
tp1763
a(I30
I15
tp1764
a(I30
I16
tp1765
a(I30
I17
tp1766
a(I31
I0
tp1767
a(I31
I1
tp1768
a(I31
I2
tp1769
a(I31
I3
tp1770
a(I31
I4
tp1771
a(I31
I5
tp1772
a(I31
I6
tp1773
a(I31
I7
tp1774
a(I31
I8
tp1775
a(I31
I9
tp1776
a(I31
I10
tp1777
a(I31
I11
tp1778
a(I31
I12
tp1779
a(I31
I13
tp1780
a(I31
I14
tp1781
a(I31
I15
tp1782
a(I31
I16
tp1783
a(I31
I17
tp1784
a(I32
I0
tp1785
a(I32
I1
tp1786
a(I32
I2
tp1787
a(I33
I0
tp1788
a(I33
I1
tp1789
a(I33
I2
tp1790
a(I34
I0
tp1791
a(I34
I1
tp1792
a(I34
I2
tp1793
a(I34
I3
tp1794
a(I34
I4
tp1795
a(I34
I5
tp1796
a(I34
I6
tp1797
a(I34
I7
tp1798
a(I34
I8
tp1799
a(I34
I9
tp1800
a(I34
I10
tp1801
a(I34
I11
tp1802
a(I34
I12
tp1803
a(I34
I13
tp1804
a(I34
I14
tp1805
a(I34
I15
tp1806
a(I34
I16
tp1807
a(I34
I17
tp1808
a(I35
I0
tp1809
a(I35
I1
tp1810
a(I35
I2
tp1811
a(I35
I3
tp1812
a(I35
I4
tp1813
a(I35
I5
tp1814
a(I35
I6
tp1815
a(I35
I7
tp1816
a(I35
I8
tp1817
a(I35
I9
tp1818
a(I35
I10
tp1819
a(I35
I11
tp1820
a(I35
I12
tp1821
a(I35
I13
tp1822
a(I35
I14
tp1823
a(I35
I15
tp1824
a(I35
I16
tp1825
a(I35
I17
tp1826
a(I36
I0
tp1827
a(I36
I1
tp1828
a(I36
I2
tp1829
a(I37
I0
tp1830
a(I37
I1
tp1831
a(I37
I2
tp1832
a(I37
I3
tp1833
a(I37
I4
tp1834
a(I37
I5
tp1835
a(I38
I0
tp1836
a(I38
I1
tp1837
a(I38
I2
tp1838
a(I38
I3
tp1839
a(I38
I4
tp1840
a(I38
I5
tp1841
a(I38
I6
tp1842
a(I38
I7
tp1843
a(I38
I8
tp1844
a(I38
I9
tp1845
a(I38
I10
tp1846
a(I38
I11
tp1847
a(I38
I12
tp1848
a(I38
I13
tp1849
a(I38
I14
tp1850
a(I38
I15
tp1851
a(I38
I16
tp1852
a(I38
I17
tp1853
a(I39
I0
tp1854
a(I39
I1
tp1855
a(I39
I2
tp1856
a(I39
I3
tp1857
a(I39
I4
tp1858
a(I39
I5
tp1859
a(I39
I6
tp1860
a(I39
I7
tp1861
a(I39
I8
tp1862
a(I39
I9
tp1863
a(I39
I10
tp1864
a(I39
I11
tp1865
a(I39
I12
tp1866
a(I39
I13
tp1867
a(I39
I14
tp1868
a(I39
I15
tp1869
a(I39
I16
tp1870
a(I39
I17
tp1871
a(I40
I0
tp1872
a(I40
I1
tp1873
a(I40
I2
tp1874
a(I41
I0
tp1875
a(I41
I1
tp1876
a(I41
I2
tp1877
a(I42
I0
tp1878
a(I43
I0
tp1879
a(I43
I1
tp1880
a(I43
I2
tp1881
a(I43
I3
tp1882
a(I43
I4
tp1883
a(I43
I5
tp1884
a(I43
I6
tp1885
a(I43
I7
tp1886
a(I43
I8
tp1887
a(I43
I9
tp1888
a(I44
I0
tp1889
a(I45
I0
tp1890
a(I46
I0
tp1891
a(I47
I0
tp1892
asg1223
(lp1893
(I0
I0
tp1894
a(I1
I0
tp1895
a(I1
I1
tp1896
a(I1
I2
tp1897
a(I1
I3
tp1898
a(I1
I4
tp1899
a(I1
I5
tp1900
a(I2
I0
tp1901
a(I2
I1
tp1902
a(I2
I2
tp1903
a(I2
I3
tp1904
a(I2
I4
tp1905
a(I2
I5
tp1906
a(I3
I0
tp1907
a(I3
I1
tp1908
a(I3
I2
tp1909
a(I3
I3
tp1910
a(I3
I4
tp1911
a(I3
I5
tp1912
a(I4
I0
tp1913
a(I5
I0
tp1914
a(I6
I0
tp1915
a(I6
I1
tp1916
a(I6
I2
tp1917
a(I6
I3
tp1918
a(I6
I4
tp1919
a(I6
I5
tp1920
a(I7
I0
tp1921
a(I7
I1
tp1922
a(I7
I2
tp1923
a(I7
I3
tp1924
a(I7
I4
tp1925
a(I7
I5
tp1926
a(I8
I0
tp1927
a(I9
I0
tp1928
a(I10
I0
tp1929
a(I10
I1
tp1930
a(I11
I0
tp1931
a(I11
I1
tp1932
a(I11
I2
tp1933
a(I11
I3
tp1934
a(I11
I4
tp1935
a(I11
I5
tp1936
a(I12
I0
tp1937
a(I12
I1
tp1938
a(I12
I2
tp1939
a(I12
I3
tp1940
a(I12
I4
tp1941
a(I12
I5
tp1942
a(I13
I0
tp1943
a(I14
I0
tp1944
a(I15
I0
tp1945
a(I16
I0
tp1946
a(I17
I0
tp1947
a(I17
I1
tp1948
a(I18
I0
tp1949
a(I18
I1
tp1950
a(I18
I2
tp1951
a(I18
I3
tp1952
a(I18
I4
tp1953
a(I18
I5
tp1954
a(I19
I0
tp1955
a(I19
I1
tp1956
a(I19
I2
tp1957
a(I19
I3
tp1958
a(I19
I4
tp1959
a(I19
I5
tp1960
a(I20
I0
tp1961
a(I21
I0
tp1962
a(I22
I0
tp1963
a(I23
I0
tp1964
a(I24
I0
tp1965
a(I25
I0
tp1966
a(I25
I1
tp1967
a(I25
I2
tp1968
a(I25
I3
tp1969
a(I25
I4
tp1970
a(I25
I5
tp1971
a(I26
I0
tp1972
a(I26
I1
tp1973
a(I26
I2
tp1974
a(I26
I3
tp1975
a(I26
I4
tp1976
a(I26
I5
tp1977
a(I27
I0
tp1978
a(I27
I1
tp1979
a(I27
I2
tp1980
a(I27
I3
tp1981
a(I27
I4
tp1982
a(I27
I5
tp1983
a(I28
I0
tp1984
a(I29
I0
tp1985
a(I29
I1
tp1986
a(I30
I0
tp1987
a(I30
I1
tp1988
a(I30
I2
tp1989
a(I30
I3
tp1990
a(I30
I4
tp1991
a(I30
I5
tp1992
a(I31
I0
tp1993
a(I31
I1
tp1994
a(I31
I2
tp1995
a(I31
I3
tp1996
a(I31
I4
tp1997
a(I31
I5
tp1998
a(I32
I0
tp1999
a(I33
I0
tp2000
a(I34
I0
tp2001
a(I34
I1
tp2002
a(I34
I2
tp2003
a(I34
I3
tp2004
a(I34
I4
tp2005
a(I34
I5
tp2006
a(I35
I0
tp2007
a(I35
I1
tp2008
a(I35
I2
tp2009
a(I35
I3
tp2010
a(I35
I4
tp2011
a(I35
I5
tp2012
a(I36
I0
tp2013
a(I37
I0
tp2014
a(I37
I1
tp2015
a(I38
I0
tp2016
a(I38
I1
tp2017
a(I38
I2
tp2018
a(I38
I3
tp2019
a(I38
I4
tp2020
a(I38
I5
tp2021
a(I39
I0
tp2022
a(I39
I1
tp2023
a(I39
I2
tp2024
a(I39
I3
tp2025
a(I39
I4
tp2026
a(I39
I5
tp2027
a(I40
I0
tp2028
a(I41
I0
tp2029
a(I42
I0
tp2030
a(I43
I0
tp2031
a(I43
I1
tp2032
a(I43
I2
tp2033
a(I43
I3
tp2034
a(I43
I4
tp2035
a(I43
I5
tp2036
a(I43
I6
tp2037
a(I43
I7
tp2038
a(I44
I0
tp2039
a(I45
I0
tp2040
a(I46
I0
tp2041
a(I47
I0
tp2042
assbsS'checksums'
p2043
S'25414   108\n'
p2044
s.