(dp0
S'content'
p1
(imystruct
Struct
p2
(dp3
S'omitmicro'
p4
(lp5
(I1
I2
tp6
a(I1
I3
tp7
a(I2
I3
tp8
a(I6
I7
tp9
a(I6
I8
tp10
a(I6
I9
tp11
a(I6
I10
tp12
a(I6
I11
tp13
a(I6
I12
tp14
a(I6
I13
tp15
a(I6
I14
tp16
a(I7
I8
tp17
a(I7
I9
tp18
a(I7
I10
tp19
a(I7
I11
tp20
a(I7
I12
tp21
a(I7
I13
tp22
a(I7
I14
tp23
a(I8
I9
tp24
a(I8
I10
tp25
a(I8
I11
tp26
a(I8
I12
tp27
a(I8
I13
tp28
a(I8
I14
tp29
a(I10
I11
tp30
a(I10
I12
tp31
a(I10
I13
tp32
a(I10
I14
tp33
a(I11
I12
tp34
a(I11
I13
tp35
a(I11
I14
tp36
a(I12
I13
tp37
a(I12
I14
tp38
a(I13
I14
tp39
a(I17
I18
tp40
a(I17
I19
tp41
a(I17
I20
tp42
a(I17
I21
tp43
a(I18
I19
tp44
a(I18
I20
tp45
a(I18
I21
tp46
a(I19
I20
tp47
a(I19
I21
tp48
a(I20
I21
tp49
a(I25
I26
tp50
a(I25
I27
tp51
a(I26
I27
tp52
a(I29
I30
tp53
a(I29
I31
tp54
a(I29
I32
tp55
a(I29
I33
tp56
a(I29
I34
tp57
a(I29
I35
tp58
a(I29
I36
tp59
a(I29
I37
tp60
a(I29
I38
tp61
a(I29
I39
tp62
a(I29
I40
tp63
a(I29
I41
tp64
a(I30
I31
tp65
a(I30
I32
tp66
a(I30
I33
tp67
a(I30
I34
tp68
a(I30
I35
tp69
a(I30
I36
tp70
a(I30
I37
tp71
a(I30
I38
tp72
a(I30
I39
tp73
a(I30
I40
tp74
a(I30
I41
tp75
a(I31
I32
tp76
a(I31
I33
tp77
a(I31
I34
tp78
a(I31
I35
tp79
a(I31
I36
tp80
a(I31
I37
tp81
a(I31
I38
tp82
a(I31
I39
tp83
a(I31
I40
tp84
a(I31
I41
tp85
a(I32
I33
tp86
a(I32
I34
tp87
a(I32
I35
tp88
a(I32
I36
tp89
a(I32
I37
tp90
a(I32
I38
tp91
a(I32
I39
tp92
a(I32
I40
tp93
a(I32
I41
tp94
a(I33
I34
tp95
a(I33
I35
tp96
a(I33
I36
tp97
a(I33
I37
tp98
a(I33
I38
tp99
a(I33
I39
tp100
a(I33
I40
tp101
a(I33
I41
tp102
a(I34
I35
tp103
a(I34
I36
tp104
a(I34
I37
tp105
a(I34
I38
tp106
a(I34
I39
tp107
a(I34
I40
tp108
a(I34
I41
tp109
a(I35
I36
tp110
a(I35
I37
tp111
a(I35
I38
tp112
a(I35
I39
tp113
a(I35
I40
tp114
a(I35
I41
tp115
a(I36
I37
tp116
a(I36
I38
tp117
a(I36
I39
tp118
a(I36
I40
tp119
a(I36
I41
tp120
a(I37
I38
tp121
a(I37
I39
tp122
a(I37
I40
tp123
a(I37
I41
tp124
a(I38
I39
tp125
a(I38
I40
tp126
a(I38
I41
tp127
a(I39
I40
tp128
a(I39
I41
tp129
a(I40
I41
tp130
a(I43
I45
tp131
a(I43
I47
tp132
asS'omit_one'
p133
(dp134
S'aligned'
p135
(lp136
sS'three'
p137
(lp138
sS'one'
p139
(lp140
ssS'prefix'
p141
(dp142
g135
(lp143
(I0
I0
tp144
a(I1
I2
tp145
a(I1
I5
tp146
a(I2
I2
tp147
a(I2
I5
tp148
a(I3
I2
tp149
a(I3
I5
tp150
a(I4
I0
tp151
a(I5
I0
tp152
a(I6
I2
tp153
a(I6
I5
tp154
a(I7
I2
tp155
a(I7
I5
tp156
a(I8
I0
tp157
a(I9
I0
tp158
a(I10
I1
tp159
a(I11
I2
tp160
a(I11
I5
tp161
a(I12
I2
tp162
a(I12
I5
tp163
a(I12
I8
tp164
a(I12
I11
tp165
a(I12
I14
tp166
a(I12
I17
tp167
a(I12
I20
tp168
a(I12
I23
tp169
a(I12
I26
tp170
a(I12
I29
tp171
a(I13
I0
tp172
a(I14
I0
tp173
a(I15
I0
tp174
a(I16
I0
tp175
a(I17
I1
tp176
a(I18
I2
tp177
a(I18
I5
tp178
a(I18
I8
tp179
a(I18
I11
tp180
a(I18
I14
tp181
a(I18
I17
tp182
a(I18
I20
tp183
a(I18
I23
tp184
a(I19
I2
tp185
a(I19
I5
tp186
a(I20
I0
tp187
a(I21
I0
tp188
a(I22
I0
tp189
a(I23
I0
tp190
a(I24
I0
tp191
a(I25
I2
tp192
a(I25
I5
tp193
a(I26
I2
tp194
a(I26
I5
tp195
a(I27
I2
tp196
a(I27
I5
tp197
a(I28
I0
tp198
a(I29
I1
tp199
a(I30
I2
tp200
a(I30
I5
tp201
a(I31
I2
tp202
a(I31
I5
tp203
a(I31
I8
tp204
a(I31
I11
tp205
a(I31
I14
tp206
a(I31
I17
tp207
a(I31
I20
tp208
a(I31
I23
tp209
a(I31
I26
tp210
a(I31
I29
tp211
a(I32
I0
tp212
a(I33
I0
tp213
a(I34
I2
tp214
a(I34
I5
tp215
a(I35
I2
tp216
a(I35
I5
tp217
a(I36
I0
tp218
a(I37
I1
tp219
a(I38
I2
tp220
a(I38
I5
tp221
a(I38
I8
tp222
a(I38
I11
tp223
a(I38
I14
tp224
a(I38
I17
tp225
a(I38
I20
tp226
a(I38
I23
tp227
a(I39
I2
tp228
a(I39
I5
tp229
a(I40
I0
tp230
a(I41
I0
tp231
a(I42
I0
tp232
a(I43
I20
tp233
a(I44
I0
tp234
a(I45
I0
tp235
a(I46
I0
tp236
a(I47
I0
tp237
asg137
(lp238
(I0
I0
tp239
a(I1
I17
tp240
a(I2
I17
tp241
a(I3
I17
tp242
a(I4
I0
tp243
a(I5
I0
tp244
a(I6
I17
tp245
a(I7
I17
tp246
a(I8
I2
tp247
a(I9
I0
tp248
a(I10
I5
tp249
a(I11
I17
tp250
a(I12
I17
tp251
a(I13
I2
tp252
a(I14
I2
tp253
a(I15
I0
tp254
a(I16
I0
tp255
a(I17
I5
tp256
a(I18
I17
tp257
a(I19
I17
tp258
a(I20
I2
tp259
a(I21
I2
tp260
a(I22
I0
tp261
a(I23
I0
tp262
a(I24
I0
tp263
a(I25
I17
tp264
a(I26
I17
tp265
a(I27
I17
tp266
a(I28
I0
tp267
a(I29
I5
tp268
a(I30
I17
tp269
a(I31
I17
tp270
a(I32
I2
tp271
a(I33
I2
tp272
a(I34
I17
tp273
a(I35
I17
tp274
a(I36
I2
tp275
a(I37
I5
tp276
a(I38
I17
tp277
a(I39
I17
tp278
a(I40
I2
tp279
a(I41
I2
tp280
a(I42
I0
tp281
a(I43
I9
tp282
a(I44
I0
tp283
a(I45
I0
tp284
a(I46
I0
tp285
a(I47
I0
tp286
asg139
(lp287
(I0
I0
tp288
a(I1
I5
tp289
a(I2
I5
tp290
a(I3
I5
tp291
a(I4
I0
tp292
a(I5
I0
tp293
a(I6
I5
tp294
a(I7
I5
tp295
a(I8
I0
tp296
a(I9
I0
tp297
a(I10
I1
tp298
a(I11
I5
tp299
a(I12
I5
tp300
a(I13
I0
tp301
a(I14
I0
tp302
a(I15
I0
tp303
a(I16
I0
tp304
a(I17
I1
tp305
a(I18
I5
tp306
a(I19
I5
tp307
a(I20
I0
tp308
a(I21
I0
tp309
a(I22
I0
tp310
a(I23
I0
tp311
a(I24
I0
tp312
a(I25
I5
tp313
a(I26
I5
tp314
a(I27
I5
tp315
a(I28
I0
tp316
a(I29
I1
tp317
a(I30
I5
tp318
a(I31
I5
tp319
a(I32
I0
tp320
a(I33
I0
tp321
a(I34
I5
tp322
a(I35
I5
tp323
a(I36
I0
tp324
a(I37
I1
tp325
a(I38
I5
tp326
a(I39
I5
tp327
a(I40
I0
tp328
a(I41
I0
tp329
a(I42
I0
tp330
a(I43
I7
tp331
a(I44
I0
tp332
a(I45
I0
tp333
a(I46
I0
tp334
a(I47
I0
tp335
assbsS'checksums'
p336
S'25414   108\n'
p337
s.