(dp0
S'content'
p1
(imystruct
Struct
p2
(dp3
S'omitmicro'
p4
(lp5
(I7
I8
tp6
a(I7
I9
tp7
a(I8
I9
tp8
a(I8
I10
tp9
a(I8
I11
tp10
a(I8
I12
tp11
a(I8
I13
tp12
a(I8
I14
tp13
a(I12
I13
tp14
a(I12
I14
tp15
a(I13
I14
tp16
a(I19
I20
tp17
a(I19
I21
tp18
a(I20
I21
tp19
a(I31
I32
tp20
a(I31
I33
tp21
a(I32
I33
tp22
a(I32
I34
tp23
a(I32
I35
tp24
a(I32
I36
tp25
a(I32
I37
tp26
a(I32
I38
tp27
a(I32
I39
tp28
a(I32
I40
tp29
a(I32
I41
tp30
a(I33
I34
tp31
a(I33
I35
tp32
a(I33
I36
tp33
a(I33
I37
tp34
a(I33
I38
tp35
a(I33
I39
tp36
a(I33
I40
tp37
a(I33
I41
tp38
a(I35
I36
tp39
a(I36
I37
tp40
a(I36
I38
tp41
a(I36
I39
tp42
a(I36
I40
tp43
a(I36
I41
tp44
a(I39
I40
tp45
a(I39
I41
tp46
a(I40
I41
tp47
a(I43
I45
tp48
a(I43
I47
tp49
asS'omit_one'
p50
(dp51
S'aligned'
p52
(lp53
((I12
I2
tp54
(I12
I3
tp55
tp56
a(g54
(I12
I4
tp57
tp58
a(g54
(I12
I5
tp59
tp60
a(g54
(I12
I6
tp61
tp62
a(g54
(I12
I7
tp63
tp64
a(g54
(I12
I8
tp65
tp66
a(g54
(I12
I9
tp67
tp68
a(g54
(I12
I10
tp69
tp70
a(g54
(I12
I11
tp71
tp72
a(g54
(I12
I12
tp73
tp74
a(g54
(I12
I13
tp75
tp76
a(g54
(I12
I14
tp77
tp78
a((I12
I5
tp79
(I12
I6
tp80
tp81
a(g79
(I12
I7
tp82
tp83
a(g79
(I12
I8
tp84
tp85
a(g79
(I12
I9
tp86
tp87
a(g79
(I12
I10
tp88
tp89
a(g79
(I12
I11
tp90
tp91
a(g79
(I12
I12
tp92
tp93
a(g79
(I12
I13
tp94
tp95
a(g79
(I12
I14
tp96
tp97
a((I12
I8
tp98
(I12
I9
tp99
tp100
a(g98
(I12
I10
tp101
tp102
a(g98
(I12
I11
tp103
tp104
a(g98
(I12
I12
tp105
tp106
a(g98
(I12
I13
tp107
tp108
a(g98
(I12
I14
tp109
tp110
a((I12
I11
tp111
(I12
I12
tp112
tp113
a(g111
(I12
I13
tp114
tp115
a(g111
(I12
I14
tp116
tp117
a((I18
I2
tp118
(I18
I3
tp119
tp120
a(g118
(I18
I4
tp121
tp122
a(g118
(I18
I5
tp123
tp124
a(g118
(I18
I6
tp125
tp126
a(g118
(I18
I7
tp127
tp128
a(g118
(I18
I8
tp129
tp130
a(g118
(I18
I9
tp131
tp132
a(g118
(I18
I10
tp133
tp134
a(g118
(I18
I11
tp135
tp136
a((I18
I5
tp137
(I18
I6
tp138
tp139
a(g137
(I18
I7
tp140
tp141
a(g137
(I18
I8
tp142
tp143
a(g137
(I18
I9
tp144
tp145
a(g137
(I18
I10
tp146
tp147
a(g137
(I18
I11
tp148
tp149
a((I18
I8
tp150
(I18
I9
tp151
tp152
a(g150
(I18
I10
tp153
tp154
a(g150
(I18
I11
tp155
tp156
a((I31
I2
tp157
(I31
I3
tp158
tp159
a(g157
(I31
I4
tp160
tp161
a(g157
(I31
I5
tp162
tp163
a(g157
(I31
I6
tp164
tp165
a(g157
(I31
I7
tp166
tp167
a(g157
(I31
I8
tp168
tp169
a(g157
(I31
I9
tp170
tp171
a(g157
(I31
I10
tp172
tp173
a(g157
(I31
I11
tp174
tp175
a(g157
(I31
I12
tp176
tp177
a(g157
(I31
I13
tp178
tp179
a(g157
(I31
I14
tp180
tp181
a((I31
I5
tp182
(I31
I6
tp183
tp184
a(g182
(I31
I7
tp185
tp186
a(g182
(I31
I8
tp187
tp188
a(g182
(I31
I9
tp189
tp190
a(g182
(I31
I10
tp191
tp192
a(g182
(I31
I11
tp193
tp194
a(g182
(I31
I12
tp195
tp196
a(g182
(I31
I13
tp197
tp198
a(g182
(I31
I14
tp199
tp200
a((I31
I8
tp201
(I31
I9
tp202
tp203
a(g201
(I31
I10
tp204
tp205
a(g201
(I31
I11
tp206
tp207
a(g201
(I31
I12
tp208
tp209
a(g201
(I31
I13
tp210
tp211
a(g201
(I31
I14
tp212
tp213
a((I31
I11
tp214
(I31
I12
tp215
tp216
a(g214
(I31
I13
tp217
tp218
a(g214
(I31
I14
tp219
tp220
a((I38
I2
tp221
(I38
I3
tp222
tp223
a(g221
(I38
I4
tp224
tp225
a(g221
(I38
I5
tp226
tp227
a(g221
(I38
I6
tp228
tp229
a(g221
(I38
I7
tp230
tp231
a(g221
(I38
I8
tp232
tp233
a(g221
(I38
I9
tp234
tp235
a(g221
(I38
I10
tp236
tp237
a(g221
(I38
I11
tp238
tp239
a((I38
I5
tp240
(I38
I6
tp241
tp242
a(g240
(I38
I7
tp243
tp244
a(g240
(I38
I8
tp245
tp246
a(g240
(I38
I9
tp247
tp248
a(g240
(I38
I10
tp249
tp250
a(g240
(I38
I11
tp251
tp252
a((I38
I8
tp253
(I38
I9
tp254
tp255
a(g253
(I38
I10
tp256
tp257
a(g253
(I38
I11
tp258
tp259
asS'three'
p260
(lp261
sS'one'
p262
(lp263
ssS'prefix'
p264
(dp265
g52
(lp266
(I0
I0
tp267
a(I1
I0
tp268
a(I1
I1
tp269
a(I1
I2
tp270
a(I1
I3
tp271
a(I1
I4
tp272
a(I1
I5
tp273
a(I2
I0
tp274
a(I2
I1
tp275
a(I2
I2
tp276
a(I2
I3
tp277
a(I2
I4
tp278
a(I2
I5
tp279
a(I3
I0
tp280
a(I3
I1
tp281
a(I3
I2
tp282
a(I3
I3
tp283
a(I3
I4
tp284
a(I3
I5
tp285
a(I4
I0
tp286
a(I5
I0
tp287
a(I6
I0
tp288
a(I6
I1
tp289
a(I6
I2
tp290
a(I6
I3
tp291
a(I6
I4
tp292
a(I6
I5
tp293
a(I7
I0
tp294
a(I7
I1
tp295
a(I7
I2
tp296
a(I7
I3
tp297
a(I7
I4
tp298
a(I7
I5
tp299
a(I8
I0
tp300
a(I9
I0
tp301
a(I10
I0
tp302
a(I10
I1
tp303
a(I11
I0
tp304
a(I11
I1
tp305
a(I11
I2
tp306
a(I11
I3
tp307
a(I11
I4
tp308
a(I11
I5
tp309
a(I12
I0
tp310
a(I12
I1
tp311
a(I12
I2
tp312
a(I12
I3
tp313
a(I12
I4
tp314
a(I12
I5
tp315
a(I12
I6
tp316
a(I12
I7
tp317
a(I12
I8
tp318
a(I12
I9
tp319
a(I12
I10
tp320
a(I12
I11
tp321
a(I12
I12
tp322
a(I12
I13
tp323
a(I12
I14
tp324
a(I12
I15
tp325
a(I12
I16
tp326
a(I12
I17
tp327
a(I12
I18
tp328
a(I12
I19
tp329
a(I12
I20
tp330
a(I12
I21
tp331
a(I12
I22
tp332
a(I12
I23
tp333
a(I12
I24
tp334
a(I12
I25
tp335
a(I12
I26
tp336
a(I12
I27
tp337
a(I12
I28
tp338
a(I12
I29
tp339
a(I13
I0
tp340
a(I14
I0
tp341
a(I15
I0
tp342
a(I16
I0
tp343
a(I17
I0
tp344
a(I17
I1
tp345
a(I18
I0
tp346
a(I18
I1
tp347
a(I18
I2
tp348
a(I18
I3
tp349
a(I18
I4
tp350
a(I18
I5
tp351
a(I18
I6
tp352
a(I18
I7
tp353
a(I18
I8
tp354
a(I18
I9
tp355
a(I18
I10
tp356
a(I18
I11
tp357
a(I18
I12
tp358
a(I18
I13
tp359
a(I18
I14
tp360
a(I18
I15
tp361
a(I18
I16
tp362
a(I18
I17
tp363
a(I18
I18
tp364
a(I18
I19
tp365
a(I18
I20
tp366
a(I18
I21
tp367
a(I18
I22
tp368
a(I18
I23
tp369
a(I19
I0
tp370
a(I19
I1
tp371
a(I19
I2
tp372
a(I19
I3
tp373
a(I19
I4
tp374
a(I19
I5
tp375
a(I20
I0
tp376
a(I21
I0
tp377
a(I22
I0
tp378
a(I23
I0
tp379
a(I24
I0
tp380
a(I25
I0
tp381
a(I25
I1
tp382
a(I25
I2
tp383
a(I25
I3
tp384
a(I25
I4
tp385
a(I25
I5
tp386
a(I26
I0
tp387
a(I26
I1
tp388
a(I26
I2
tp389
a(I26
I3
tp390
a(I26
I4
tp391
a(I26
I5
tp392
a(I27
I0
tp393
a(I27
I1
tp394
a(I27
I2
tp395
a(I27
I3
tp396
a(I27
I4
tp397
a(I27
I5
tp398
a(I28
I0
tp399
a(I29
I0
tp400
a(I29
I1
tp401
a(I30
I0
tp402
a(I30
I1
tp403
a(I30
I2
tp404
a(I30
I3
tp405
a(I30
I4
tp406
a(I30
I5
tp407
a(I31
I0
tp408
a(I31
I1
tp409
a(I31
I2
tp410
a(I31
I3
tp411
a(I31
I4
tp412
a(I31
I5
tp413
a(I31
I6
tp414
a(I31
I7
tp415
a(I31
I8
tp416
a(I31
I9
tp417
a(I31
I10
tp418
a(I31
I11
tp419
a(I31
I12
tp420
a(I31
I13
tp421
a(I31
I14
tp422
a(I31
I15
tp423
a(I31
I16
tp424
a(I31
I17
tp425
a(I31
I18
tp426
a(I31
I19
tp427
a(I31
I20
tp428
a(I31
I21
tp429
a(I31
I22
tp430
a(I31
I23
tp431
a(I31
I24
tp432
a(I31
I25
tp433
a(I31
I26
tp434
a(I31
I27
tp435
a(I31
I28
tp436
a(I31
I29
tp437
a(I32
I0
tp438
a(I33
I0
tp439
a(I34
I0
tp440
a(I34
I1
tp441
a(I34
I2
tp442
a(I34
I3
tp443
a(I34
I4
tp444
a(I34
I5
tp445
a(I35
I0
tp446
a(I35
I1
tp447
a(I35
I2
tp448
a(I35
I3
tp449
a(I35
I4
tp450
a(I35
I5
tp451
a(I36
I0
tp452
a(I37
I0
tp453
a(I37
I1
tp454
a(I38
I0
tp455
a(I38
I1
tp456
a(I38
I2
tp457
a(I38
I3
tp458
a(I38
I4
tp459
a(I38
I5
tp460
a(I38
I6
tp461
a(I38
I7
tp462
a(I38
I8
tp463
a(I38
I9
tp464
a(I38
I10
tp465
a(I38
I11
tp466
a(I38
I12
tp467
a(I38
I13
tp468
a(I38
I14
tp469
a(I38
I15
tp470
a(I38
I16
tp471
a(I38
I17
tp472
a(I38
I18
tp473
a(I38
I19
tp474
a(I38
I20
tp475
a(I38
I21
tp476
a(I38
I22
tp477
a(I38
I23
tp478
a(I39
I0
tp479
a(I39
I1
tp480
a(I39
I2
tp481
a(I39
I3
tp482
a(I39
I4
tp483
a(I39
I5
tp484
a(I40
I0
tp485
a(I41
I0
tp486
a(I42
I0
tp487
a(I43
I20
tp488
a(I44
I0
tp489
a(I45
I0
tp490
a(I46
I0
tp491
a(I47
I0
tp492
asg260
(lp493
(I0
I0
tp494
a(I1
I17
tp495
a(I2
I17
tp496
a(I3
I17
tp497
a(I4
I0
tp498
a(I5
I0
tp499
a(I6
I17
tp500
a(I7
I17
tp501
a(I8
I2
tp502
a(I9
I0
tp503
a(I10
I5
tp504
a(I11
I17
tp505
a(I12
I17
tp506
a(I13
I2
tp507
a(I14
I2
tp508
a(I15
I0
tp509
a(I16
I0
tp510
a(I17
I5
tp511
a(I18
I17
tp512
a(I19
I17
tp513
a(I20
I2
tp514
a(I21
I2
tp515
a(I22
I0
tp516
a(I23
I0
tp517
a(I24
I0
tp518
a(I25
I17
tp519
a(I26
I17
tp520
a(I27
I17
tp521
a(I28
I0
tp522
a(I29
I5
tp523
a(I30
I17
tp524
a(I31
I17
tp525
a(I32
I2
tp526
a(I33
I2
tp527
a(I34
I17
tp528
a(I35
I17
tp529
a(I36
I2
tp530
a(I37
I5
tp531
a(I38
I17
tp532
a(I39
I17
tp533
a(I40
I2
tp534
a(I41
I2
tp535
a(I42
I0
tp536
a(I43
I9
tp537
a(I44
I0
tp538
a(I45
I0
tp539
a(I46
I0
tp540
a(I47
I0
tp541
asg262
(lp542
(I0
I0
tp543
a(I1
I0
tp544
a(I1
I1
tp545
a(I1
I2
tp546
a(I1
I3
tp547
a(I1
I4
tp548
a(I1
I5
tp549
a(I2
I0
tp550
a(I2
I1
tp551
a(I2
I2
tp552
a(I2
I3
tp553
a(I2
I4
tp554
a(I2
I5
tp555
a(I3
I0
tp556
a(I3
I1
tp557
a(I3
I2
tp558
a(I3
I3
tp559
a(I3
I4
tp560
a(I3
I5
tp561
a(I4
I0
tp562
a(I5
I0
tp563
a(I6
I0
tp564
a(I6
I1
tp565
a(I6
I2
tp566
a(I6
I3
tp567
a(I6
I4
tp568
a(I6
I5
tp569
a(I7
I0
tp570
a(I7
I1
tp571
a(I7
I2
tp572
a(I7
I3
tp573
a(I7
I4
tp574
a(I7
I5
tp575
a(I8
I0
tp576
a(I9
I0
tp577
a(I10
I0
tp578
a(I10
I1
tp579
a(I11
I0
tp580
a(I11
I1
tp581
a(I11
I2
tp582
a(I11
I3
tp583
a(I11
I4
tp584
a(I11
I5
tp585
a(I12
I0
tp586
a(I12
I1
tp587
a(I12
I2
tp588
a(I12
I3
tp589
a(I12
I4
tp590
a(I12
I5
tp591
a(I13
I0
tp592
a(I14
I0
tp593
a(I15
I0
tp594
a(I16
I0
tp595
a(I17
I0
tp596
a(I17
I1
tp597
a(I18
I0
tp598
a(I18
I1
tp599
a(I18
I2
tp600
a(I18
I3
tp601
a(I18
I4
tp602
a(I18
I5
tp603
a(I19
I0
tp604
a(I19
I1
tp605
a(I19
I2
tp606
a(I19
I3
tp607
a(I19
I4
tp608
a(I19
I5
tp609
a(I20
I0
tp610
a(I21
I0
tp611
a(I22
I0
tp612
a(I23
I0
tp613
a(I24
I0
tp614
a(I25
I0
tp615
a(I25
I1
tp616
a(I25
I2
tp617
a(I25
I3
tp618
a(I25
I4
tp619
a(I25
I5
tp620
a(I26
I0
tp621
a(I26
I1
tp622
a(I26
I2
tp623
a(I26
I3
tp624
a(I26
I4
tp625
a(I26
I5
tp626
a(I27
I0
tp627
a(I27
I1
tp628
a(I27
I2
tp629
a(I27
I3
tp630
a(I27
I4
tp631
a(I27
I5
tp632
a(I28
I0
tp633
a(I29
I0
tp634
a(I29
I1
tp635
a(I30
I0
tp636
a(I30
I1
tp637
a(I30
I2
tp638
a(I30
I3
tp639
a(I30
I4
tp640
a(I30
I5
tp641
a(I31
I0
tp642
a(I31
I1
tp643
a(I31
I2
tp644
a(I31
I3
tp645
a(I31
I4
tp646
a(I31
I5
tp647
a(I32
I0
tp648
a(I33
I0
tp649
a(I34
I0
tp650
a(I34
I1
tp651
a(I34
I2
tp652
a(I34
I3
tp653
a(I34
I4
tp654
a(I34
I5
tp655
a(I35
I0
tp656
a(I35
I1
tp657
a(I35
I2
tp658
a(I35
I3
tp659
a(I35
I4
tp660
a(I35
I5
tp661
a(I36
I0
tp662
a(I37
I0
tp663
a(I37
I1
tp664
a(I38
I0
tp665
a(I38
I1
tp666
a(I38
I2
tp667
a(I38
I3
tp668
a(I38
I4
tp669
a(I38
I5
tp670
a(I39
I0
tp671
a(I39
I1
tp672
a(I39
I2
tp673
a(I39
I3
tp674
a(I39
I4
tp675
a(I39
I5
tp676
a(I40
I0
tp677
a(I41
I0
tp678
a(I42
I0
tp679
a(I43
I7
tp680
a(I44
I0
tp681
a(I45
I0
tp682
a(I46
I0
tp683
a(I47
I0
tp684
assbsS'checksums'
p685
S'25414   108\n'
p686
s.