(dp0
S'content'
p1
(imystruct
Struct
p2
(dp3
S'omitmicro'
p4
(lp5
(I0
I1
tp6
a(I0
I2
tp7
a(I0
I3
tp8
a(I7
I8
tp9
a(I7
I9
tp10
a(I8
I9
tp11
a(I12
I13
tp12
a(I12
I14
tp13
a(I13
I14
tp14
a(I19
I20
tp15
a(I19
I21
tp16
a(I20
I21
tp17
a(I24
I25
tp18
a(I24
I26
tp19
a(I24
I27
tp20
a(I31
I32
tp21
a(I31
I33
tp22
a(I32
I33
tp23
a(I36
I37
tp24
a(I36
I38
tp25
a(I37
I38
tp26
a(I40
I41
tp27
a(I43
I45
tp28
a(I43
I47
tp29
asS'omit_one'
p30
(dp31
S'aligned'
p32
(lp33
sS'three'
p34
(lp35
sS'one'
p36
(lp37
ssS'prefix'
p38
(dp39
g32
(lp40
(I0
I0
tp41
a(I1
I2
tp42
a(I1
I5
tp43
a(I2
I2
tp44
a(I2
I5
tp45
a(I3
I2
tp46
a(I3
I5
tp47
a(I4
I0
tp48
a(I5
I0
tp49
a(I6
I2
tp50
a(I6
I5
tp51
a(I7
I2
tp52
a(I7
I5
tp53
a(I8
I0
tp54
a(I9
I0
tp55
a(I10
I1
tp56
a(I11
I2
tp57
a(I11
I5
tp58
a(I12
I2
tp59
a(I12
I5
tp60
a(I12
I8
tp61
a(I12
I11
tp62
a(I12
I14
tp63
a(I12
I17
tp64
a(I12
I20
tp65
a(I12
I23
tp66
a(I12
I26
tp67
a(I12
I29
tp68
a(I13
I0
tp69
a(I14
I0
tp70
a(I15
I0
tp71
a(I16
I0
tp72
a(I17
I1
tp73
a(I18
I2
tp74
a(I18
I5
tp75
a(I18
I8
tp76
a(I18
I11
tp77
a(I18
I14
tp78
a(I18
I17
tp79
a(I18
I20
tp80
a(I18
I23
tp81
a(I19
I2
tp82
a(I19
I5
tp83
a(I20
I0
tp84
a(I21
I0
tp85
a(I22
I0
tp86
a(I23
I0
tp87
a(I24
I0
tp88
a(I25
I2
tp89
a(I25
I5
tp90
a(I26
I2
tp91
a(I26
I5
tp92
a(I27
I2
tp93
a(I27
I5
tp94
a(I28
I0
tp95
a(I29
I1
tp96
a(I30
I2
tp97
a(I30
I5
tp98
a(I31
I2
tp99
a(I31
I5
tp100
a(I31
I8
tp101
a(I31
I11
tp102
a(I31
I14
tp103
a(I31
I17
tp104
a(I31
I20
tp105
a(I31
I23
tp106
a(I31
I26
tp107
a(I31
I29
tp108
a(I32
I0
tp109
a(I33
I0
tp110
a(I34
I1
tp111
a(I35
I2
tp112
a(I35
I5
tp113
a(I35
I8
tp114
a(I35
I11
tp115
a(I35
I14
tp116
a(I35
I17
tp117
a(I35
I20
tp118
a(I35
I23
tp119
a(I36
I2
tp120
a(I36
I5
tp121
a(I37
I0
tp122
a(I38
I0
tp123
a(I39
I2
tp124
a(I39
I5
tp125
a(I40
I2
tp126
a(I40
I5
tp127
a(I41
I0
tp128
a(I42
I0
tp129
a(I43
I20
tp130
a(I44
I0
tp131
a(I45
I0
tp132
a(I46
I0
tp133
a(I47
I0
tp134
asg34
(lp135
(I0
I0
tp136
a(I1
I17
tp137
a(I2
I17
tp138
a(I3
I17
tp139
a(I4
I0
tp140
a(I5
I0
tp141
a(I6
I17
tp142
a(I7
I17
tp143
a(I8
I2
tp144
a(I9
I0
tp145
a(I10
I5
tp146
a(I11
I17
tp147
a(I12
I17
tp148
a(I13
I2
tp149
a(I14
I2
tp150
a(I15
I0
tp151
a(I16
I0
tp152
a(I17
I5
tp153
a(I18
I17
tp154
a(I19
I17
tp155
a(I20
I2
tp156
a(I21
I2
tp157
a(I22
I0
tp158
a(I23
I0
tp159
a(I24
I0
tp160
a(I25
I17
tp161
a(I26
I17
tp162
a(I27
I17
tp163
a(I28
I0
tp164
a(I29
I5
tp165
a(I30
I17
tp166
a(I31
I17
tp167
a(I32
I2
tp168
a(I33
I2
tp169
a(I34
I5
tp170
a(I35
I17
tp171
a(I36
I17
tp172
a(I37
I2
tp173
a(I38
I2
tp174
a(I39
I17
tp175
a(I40
I17
tp176
a(I41
I2
tp177
a(I42
I0
tp178
a(I43
I9
tp179
a(I44
I0
tp180
a(I45
I0
tp181
a(I46
I0
tp182
a(I47
I0
tp183
asg36
(lp184
(I0
I0
tp185
a(I1
I5
tp186
a(I2
I5
tp187
a(I3
I5
tp188
a(I4
I0
tp189
a(I5
I0
tp190
a(I6
I5
tp191
a(I7
I5
tp192
a(I8
I0
tp193
a(I9
I0
tp194
a(I10
I1
tp195
a(I11
I5
tp196
a(I12
I5
tp197
a(I13
I0
tp198
a(I14
I0
tp199
a(I15
I0
tp200
a(I16
I0
tp201
a(I17
I1
tp202
a(I18
I5
tp203
a(I19
I5
tp204
a(I20
I0
tp205
a(I21
I0
tp206
a(I22
I0
tp207
a(I23
I0
tp208
a(I24
I0
tp209
a(I25
I5
tp210
a(I26
I5
tp211
a(I27
I5
tp212
a(I28
I0
tp213
a(I29
I1
tp214
a(I30
I5
tp215
a(I31
I5
tp216
a(I32
I0
tp217
a(I33
I0
tp218
a(I34
I1
tp219
a(I35
I5
tp220
a(I36
I5
tp221
a(I37
I0
tp222
a(I38
I0
tp223
a(I39
I5
tp224
a(I40
I5
tp225
a(I41
I0
tp226
a(I42
I0
tp227
a(I43
I7
tp228
a(I44
I0
tp229
a(I45
I0
tp230
a(I46
I0
tp231
a(I47
I0
tp232
assbsS'checksums'
p233
S'19881   458\n'
p234
s.