(dp0
S'content'
p1
(imystruct
Struct
p2
(dp3
S'omitmicro'
p4
(lp5
(I0
I1
tp6
a(I0
I2
tp7
a(I0
I3
tp8
a(I0
I5
tp9
a(I0
I6
tp10
a(I0
I7
tp11
a(I0
I8
tp12
a(I0
I9
tp13
a(I0
I10
tp14
a(I0
I11
tp15
a(I0
I12
tp16
a(I0
I13
tp17
a(I0
I14
tp18
a(I0
I16
tp19
a(I0
I17
tp20
a(I0
I18
tp21
a(I0
I19
tp22
a(I0
I20
tp23
a(I0
I21
tp24
a(I0
I23
tp25
a(I1
I2
tp26
a(I1
I3
tp27
a(I2
I3
tp28
a(I6
I7
tp29
a(I6
I8
tp30
a(I6
I9
tp31
a(I6
I10
tp32
a(I6
I11
tp33
a(I6
I12
tp34
a(I6
I13
tp35
a(I6
I14
tp36
a(I7
I8
tp37
a(I7
I9
tp38
a(I7
I10
tp39
a(I7
I11
tp40
a(I7
I12
tp41
a(I7
I13
tp42
a(I7
I14
tp43
a(I8
I9
tp44
a(I8
I10
tp45
a(I8
I11
tp46
a(I8
I12
tp47
a(I8
I13
tp48
a(I8
I14
tp49
a(I10
I11
tp50
a(I10
I12
tp51
a(I10
I13
tp52
a(I10
I14
tp53
a(I11
I12
tp54
a(I11
I13
tp55
a(I11
I14
tp56
a(I12
I13
tp57
a(I12
I14
tp58
a(I13
I14
tp59
a(I17
I18
tp60
a(I17
I19
tp61
a(I17
I20
tp62
a(I17
I21
tp63
a(I18
I19
tp64
a(I18
I20
tp65
a(I18
I21
tp66
a(I19
I20
tp67
a(I19
I21
tp68
a(I20
I21
tp69
a(I24
I25
tp70
a(I24
I26
tp71
a(I24
I27
tp72
a(I24
I29
tp73
a(I24
I30
tp74
a(I24
I31
tp75
a(I24
I32
tp76
a(I24
I33
tp77
a(I24
I34
tp78
a(I24
I35
tp79
a(I24
I36
tp80
a(I24
I37
tp81
a(I24
I38
tp82
a(I24
I39
tp83
a(I24
I40
tp84
a(I24
I41
tp85
a(I25
I26
tp86
a(I25
I27
tp87
a(I26
I27
tp88
a(I29
I30
tp89
a(I29
I31
tp90
a(I29
I32
tp91
a(I29
I33
tp92
a(I29
I34
tp93
a(I29
I35
tp94
a(I29
I36
tp95
a(I29
I37
tp96
a(I29
I38
tp97
a(I29
I39
tp98
a(I29
I40
tp99
a(I29
I41
tp100
a(I30
I31
tp101
a(I30
I32
tp102
a(I30
I33
tp103
a(I30
I34
tp104
a(I30
I35
tp105
a(I30
I36
tp106
a(I30
I37
tp107
a(I30
I38
tp108
a(I30
I39
tp109
a(I30
I40
tp110
a(I30
I41
tp111
a(I31
I32
tp112
a(I31
I33
tp113
a(I31
I34
tp114
a(I31
I35
tp115
a(I31
I36
tp116
a(I31
I37
tp117
a(I31
I38
tp118
a(I31
I39
tp119
a(I31
I40
tp120
a(I31
I41
tp121
a(I32
I33
tp122
a(I32
I34
tp123
a(I32
I35
tp124
a(I32
I36
tp125
a(I32
I37
tp126
a(I32
I38
tp127
a(I32
I39
tp128
a(I32
I40
tp129
a(I32
I41
tp130
a(I33
I34
tp131
a(I33
I35
tp132
a(I33
I36
tp133
a(I33
I37
tp134
a(I33
I38
tp135
a(I33
I39
tp136
a(I33
I40
tp137
a(I33
I41
tp138
a(I34
I35
tp139
a(I34
I36
tp140
a(I34
I37
tp141
a(I34
I38
tp142
a(I34
I39
tp143
a(I34
I40
tp144
a(I34
I41
tp145
a(I35
I36
tp146
a(I35
I37
tp147
a(I35
I38
tp148
a(I35
I39
tp149
a(I35
I40
tp150
a(I35
I41
tp151
a(I36
I37
tp152
a(I36
I38
tp153
a(I36
I39
tp154
a(I36
I40
tp155
a(I36
I41
tp156
a(I37
I38
tp157
a(I37
I39
tp158
a(I37
I40
tp159
a(I37
I41
tp160
a(I38
I39
tp161
a(I38
I40
tp162
a(I38
I41
tp163
a(I39
I40
tp164
a(I39
I41
tp165
a(I40
I41
tp166
a(I43
I45
tp167
a(I43
I47
tp168
asS'omit_one'
p169
(dp170
S'aligned'
p171
(lp172
sS'three'
p173
(lp174
sS'one'
p175
(lp176
ssS'prefix'
p177
(dp178
g171
(lp179
(I0
I0
tp180
a(I1
I2
tp181
a(I1
I5
tp182
a(I2
I2
tp183
a(I2
I5
tp184
a(I3
I2
tp185
a(I3
I5
tp186
a(I4
I0
tp187
a(I5
I0
tp188
a(I6
I2
tp189
a(I6
I5
tp190
a(I7
I2
tp191
a(I7
I5
tp192
a(I8
I0
tp193
a(I9
I0
tp194
a(I10
I1
tp195
a(I11
I2
tp196
a(I11
I5
tp197
a(I12
I2
tp198
a(I12
I5
tp199
a(I12
I8
tp200
a(I12
I11
tp201
a(I12
I14
tp202
a(I12
I17
tp203
a(I12
I20
tp204
a(I12
I23
tp205
a(I12
I26
tp206
a(I12
I29
tp207
a(I13
I0
tp208
a(I14
I0
tp209
a(I15
I0
tp210
a(I16
I0
tp211
a(I17
I1
tp212
a(I18
I2
tp213
a(I18
I5
tp214
a(I18
I8
tp215
a(I18
I11
tp216
a(I18
I14
tp217
a(I18
I17
tp218
a(I18
I20
tp219
a(I18
I23
tp220
a(I19
I2
tp221
a(I19
I5
tp222
a(I20
I0
tp223
a(I21
I0
tp224
a(I22
I0
tp225
a(I23
I0
tp226
a(I24
I0
tp227
a(I25
I2
tp228
a(I25
I5
tp229
a(I26
I2
tp230
a(I26
I5
tp231
a(I27
I2
tp232
a(I27
I5
tp233
a(I28
I0
tp234
a(I29
I1
tp235
a(I30
I2
tp236
a(I30
I5
tp237
a(I31
I2
tp238
a(I31
I5
tp239
a(I31
I8
tp240
a(I31
I11
tp241
a(I31
I14
tp242
a(I31
I17
tp243
a(I31
I20
tp244
a(I31
I23
tp245
a(I31
I26
tp246
a(I31
I29
tp247
a(I32
I0
tp248
a(I33
I0
tp249
a(I34
I2
tp250
a(I34
I5
tp251
a(I35
I2
tp252
a(I35
I5
tp253
a(I36
I0
tp254
a(I37
I1
tp255
a(I38
I2
tp256
a(I38
I5
tp257
a(I38
I8
tp258
a(I38
I11
tp259
a(I38
I14
tp260
a(I38
I17
tp261
a(I38
I20
tp262
a(I38
I23
tp263
a(I39
I2
tp264
a(I39
I5
tp265
a(I40
I0
tp266
a(I41
I0
tp267
a(I42
I0
tp268
a(I43
I20
tp269
a(I44
I0
tp270
a(I45
I0
tp271
a(I46
I0
tp272
a(I47
I0
tp273
asg173
(lp274
(I0
I0
tp275
a(I1
I17
tp276
a(I2
I17
tp277
a(I3
I17
tp278
a(I4
I0
tp279
a(I5
I0
tp280
a(I6
I17
tp281
a(I7
I17
tp282
a(I8
I2
tp283
a(I9
I0
tp284
a(I10
I5
tp285
a(I11
I17
tp286
a(I12
I17
tp287
a(I13
I2
tp288
a(I14
I2
tp289
a(I15
I0
tp290
a(I16
I0
tp291
a(I17
I5
tp292
a(I18
I17
tp293
a(I19
I17
tp294
a(I20
I2
tp295
a(I21
I2
tp296
a(I22
I0
tp297
a(I23
I0
tp298
a(I24
I0
tp299
a(I25
I17
tp300
a(I26
I17
tp301
a(I27
I17
tp302
a(I28
I0
tp303
a(I29
I5
tp304
a(I30
I17
tp305
a(I31
I17
tp306
a(I32
I2
tp307
a(I33
I2
tp308
a(I34
I17
tp309
a(I35
I17
tp310
a(I36
I2
tp311
a(I37
I5
tp312
a(I38
I17
tp313
a(I39
I17
tp314
a(I40
I2
tp315
a(I41
I2
tp316
a(I42
I0
tp317
a(I43
I9
tp318
a(I44
I0
tp319
a(I45
I0
tp320
a(I46
I0
tp321
a(I47
I0
tp322
asg175
(lp323
(I0
I0
tp324
a(I1
I5
tp325
a(I2
I5
tp326
a(I3
I5
tp327
a(I4
I0
tp328
a(I5
I0
tp329
a(I6
I5
tp330
a(I7
I5
tp331
a(I8
I0
tp332
a(I9
I0
tp333
a(I10
I1
tp334
a(I11
I5
tp335
a(I12
I5
tp336
a(I13
I0
tp337
a(I14
I0
tp338
a(I15
I0
tp339
a(I16
I0
tp340
a(I17
I1
tp341
a(I18
I5
tp342
a(I19
I5
tp343
a(I20
I0
tp344
a(I21
I0
tp345
a(I22
I0
tp346
a(I23
I0
tp347
a(I24
I0
tp348
a(I25
I5
tp349
a(I26
I5
tp350
a(I27
I5
tp351
a(I28
I0
tp352
a(I29
I1
tp353
a(I30
I5
tp354
a(I31
I5
tp355
a(I32
I0
tp356
a(I33
I0
tp357
a(I34
I5
tp358
a(I35
I5
tp359
a(I36
I0
tp360
a(I37
I1
tp361
a(I38
I5
tp362
a(I39
I5
tp363
a(I40
I0
tp364
a(I41
I0
tp365
a(I42
I0
tp366
a(I43
I7
tp367
a(I44
I0
tp368
a(I45
I0
tp369
a(I46
I0
tp370
a(I47
I0
tp371
assbsS'checksums'
p372
S'56936   108\n'
p373
s.