(dp0
S'content'
p1
(imystruct
Struct
p2
(dp3
S'omitmicro'
p4
(lp5
(I10
I11
tp6
a(I10
I12
tp7
a(I10
I13
tp8
a(I10
I14
tp9
a(I10
I15
tp10
a(I10
I16
tp11
a(I10
I17
tp12
a(I10
I18
tp13
a(I11
I12
tp14
a(I11
I13
tp15
a(I11
I14
tp16
a(I11
I15
tp17
a(I11
I16
tp18
a(I11
I17
tp19
a(I11
I18
tp20
a(I11
I19
tp21
a(I11
I20
tp22
a(I11
I22
tp23
a(I11
I23
tp24
a(I11
I25
tp25
a(I11
I26
tp26
a(I11
I27
tp27
a(I11
I28
tp28
a(I11
I29
tp29
a(I11
I33
tp30
a(I11
I34
tp31
a(I11
I35
tp32
a(I11
I37
tp33
a(I11
I38
tp34
a(I11
I40
tp35
a(I11
I41
tp36
a(I11
I42
tp37
a(I11
I43
tp38
a(I11
I44
tp39
a(I11
I45
tp40
a(I11
I46
tp41
a(I11
I48
tp42
a(I11
I49
tp43
a(I11
I50
tp44
a(I11
I51
tp45
a(I11
I52
tp46
a(I12
I13
tp47
a(I12
I14
tp48
a(I12
I15
tp49
a(I12
I16
tp50
a(I12
I17
tp51
a(I12
I18
tp52
a(I12
I19
tp53
a(I12
I20
tp54
a(I12
I22
tp55
a(I12
I23
tp56
a(I12
I25
tp57
a(I12
I26
tp58
a(I12
I27
tp59
a(I12
I28
tp60
a(I12
I29
tp61
a(I12
I33
tp62
a(I12
I34
tp63
a(I12
I35
tp64
a(I12
I37
tp65
a(I12
I38
tp66
a(I12
I40
tp67
a(I12
I41
tp68
a(I12
I42
tp69
a(I12
I43
tp70
a(I12
I44
tp71
a(I12
I45
tp72
a(I12
I46
tp73
a(I12
I48
tp74
a(I12
I49
tp75
a(I12
I50
tp76
a(I12
I51
tp77
a(I12
I52
tp78
a(I13
I14
tp79
a(I13
I15
tp80
a(I13
I16
tp81
a(I13
I17
tp82
a(I13
I18
tp83
a(I13
I19
tp84
a(I13
I20
tp85
a(I13
I22
tp86
a(I13
I23
tp87
a(I13
I25
tp88
a(I13
I26
tp89
a(I13
I27
tp90
a(I13
I28
tp91
a(I13
I29
tp92
a(I13
I33
tp93
a(I13
I34
tp94
a(I13
I35
tp95
a(I13
I37
tp96
a(I13
I38
tp97
a(I13
I40
tp98
a(I13
I41
tp99
a(I13
I42
tp100
a(I13
I43
tp101
a(I13
I44
tp102
a(I13
I45
tp103
a(I13
I46
tp104
a(I13
I48
tp105
a(I13
I49
tp106
a(I13
I50
tp107
a(I13
I51
tp108
a(I13
I52
tp109
a(I14
I15
tp110
a(I14
I16
tp111
a(I14
I17
tp112
a(I14
I18
tp113
a(I14
I19
tp114
a(I14
I20
tp115
a(I14
I22
tp116
a(I14
I23
tp117
a(I14
I25
tp118
a(I14
I26
tp119
a(I14
I27
tp120
a(I14
I28
tp121
a(I14
I29
tp122
a(I14
I33
tp123
a(I14
I34
tp124
a(I14
I35
tp125
a(I14
I37
tp126
a(I14
I38
tp127
a(I14
I40
tp128
a(I14
I41
tp129
a(I14
I42
tp130
a(I14
I43
tp131
a(I14
I44
tp132
a(I14
I45
tp133
a(I14
I46
tp134
a(I14
I48
tp135
a(I14
I49
tp136
a(I14
I50
tp137
a(I14
I51
tp138
a(I14
I52
tp139
a(I15
I16
tp140
a(I15
I17
tp141
a(I15
I18
tp142
a(I15
I19
tp143
a(I15
I20
tp144
a(I15
I22
tp145
a(I15
I23
tp146
a(I15
I25
tp147
a(I15
I26
tp148
a(I15
I27
tp149
a(I15
I28
tp150
a(I15
I29
tp151
a(I15
I33
tp152
a(I15
I34
tp153
a(I15
I35
tp154
a(I15
I37
tp155
a(I15
I38
tp156
a(I15
I40
tp157
a(I15
I41
tp158
a(I15
I42
tp159
a(I15
I43
tp160
a(I15
I44
tp161
a(I15
I45
tp162
a(I15
I46
tp163
a(I15
I48
tp164
a(I15
I49
tp165
a(I15
I50
tp166
a(I15
I51
tp167
a(I15
I52
tp168
a(I16
I17
tp169
a(I16
I18
tp170
a(I16
I19
tp171
a(I16
I20
tp172
a(I16
I22
tp173
a(I16
I23
tp174
a(I16
I25
tp175
a(I16
I26
tp176
a(I16
I27
tp177
a(I16
I28
tp178
a(I16
I29
tp179
a(I16
I33
tp180
a(I16
I34
tp181
a(I16
I35
tp182
a(I16
I37
tp183
a(I16
I38
tp184
a(I16
I40
tp185
a(I16
I41
tp186
a(I16
I42
tp187
a(I16
I43
tp188
a(I16
I44
tp189
a(I16
I45
tp190
a(I16
I46
tp191
a(I16
I48
tp192
a(I16
I49
tp193
a(I16
I50
tp194
a(I16
I51
tp195
a(I16
I52
tp196
a(I17
I18
tp197
a(I17
I19
tp198
a(I17
I20
tp199
a(I17
I22
tp200
a(I17
I23
tp201
a(I17
I25
tp202
a(I17
I26
tp203
a(I17
I27
tp204
a(I17
I28
tp205
a(I17
I29
tp206
a(I17
I33
tp207
a(I17
I34
tp208
a(I17
I35
tp209
a(I17
I37
tp210
a(I17
I38
tp211
a(I17
I40
tp212
a(I17
I41
tp213
a(I17
I42
tp214
a(I17
I43
tp215
a(I17
I44
tp216
a(I17
I45
tp217
a(I17
I46
tp218
a(I17
I48
tp219
a(I17
I49
tp220
a(I17
I50
tp221
a(I17
I51
tp222
a(I17
I52
tp223
a(I18
I19
tp224
a(I18
I20
tp225
a(I18
I22
tp226
a(I18
I23
tp227
a(I18
I25
tp228
a(I18
I26
tp229
a(I18
I27
tp230
a(I18
I28
tp231
a(I18
I29
tp232
a(I18
I33
tp233
a(I18
I34
tp234
a(I18
I35
tp235
a(I18
I37
tp236
a(I18
I38
tp237
a(I18
I40
tp238
a(I18
I41
tp239
a(I18
I42
tp240
a(I18
I43
tp241
a(I18
I44
tp242
a(I18
I45
tp243
a(I18
I46
tp244
a(I18
I48
tp245
a(I18
I49
tp246
a(I18
I50
tp247
a(I18
I51
tp248
a(I18
I52
tp249
a(I26
I27
tp250
a(I26
I28
tp251
a(I50
I51
tp252
a(I50
I52
tp253
asS'omit_one'
p254
(dp255
S'aligned'
p256
(lp257
((I20
I2
tp258
(I20
I3
tp259
tp260
a(g258
(I20
I4
tp261
tp262
a(g258
(I20
I5
tp263
tp264
a((I35
I2
tp265
(I35
I3
tp266
tp267
a(g265
(I35
I4
tp268
tp269
a(g265
(I35
I5
tp270
tp271
a(g265
(I35
I6
tp272
tp273
a(g265
(I35
I7
tp274
tp275
a(g265
(I35
I8
tp276
tp277
a((I35
I5
tp278
(I35
I6
tp279
tp280
a(g278
(I35
I7
tp281
tp282
a(g278
(I35
I8
tp283
tp284
asS'three'
p285
(lp286
sS'one'
p287
(lp288
ssS'prefix'
p289
(dp290
g256
(lp291
(I0
I0
tp292
a(I1
I0
tp293
a(I2
I0
tp294
a(I2
I1
tp295
a(I2
I2
tp296
a(I2
I3
tp297
a(I2
I4
tp298
a(I2
I5
tp299
a(I3
I0
tp300
a(I3
I1
tp301
a(I3
I2
tp302
a(I3
I3
tp303
a(I3
I4
tp304
a(I3
I5
tp305
a(I4
I0
tp306
a(I4
I1
tp307
a(I4
I2
tp308
a(I4
I3
tp309
a(I4
I4
tp310
a(I4
I5
tp311
a(I5
I0
tp312
a(I5
I1
tp313
a(I5
I2
tp314
a(I5
I3
tp315
a(I5
I4
tp316
a(I5
I5
tp317
a(I6
I0
tp318
a(I6
I1
tp319
a(I6
I2
tp320
a(I6
I3
tp321
a(I6
I4
tp322
a(I6
I5
tp323
a(I7
I0
tp324
a(I7
I1
tp325
a(I7
I2
tp326
a(I7
I3
tp327
a(I7
I4
tp328
a(I7
I5
tp329
a(I8
I0
tp330
a(I8
I1
tp331
a(I8
I2
tp332
a(I8
I3
tp333
a(I8
I4
tp334
a(I8
I5
tp335
a(I9
I0
tp336
a(I9
I1
tp337
a(I9
I2
tp338
a(I9
I3
tp339
a(I9
I4
tp340
a(I9
I5
tp341
a(I10
I0
tp342
a(I10
I1
tp343
a(I10
I2
tp344
a(I10
I3
tp345
a(I10
I4
tp346
a(I10
I5
tp347
a(I11
I0
tp348
a(I12
I0
tp349
a(I13
I0
tp350
a(I14
I0
tp351
a(I15
I0
tp352
a(I16
I0
tp353
a(I17
I0
tp354
a(I18
I0
tp355
a(I19
I0
tp356
a(I20
I0
tp357
a(I20
I1
tp358
a(I20
I2
tp359
a(I20
I3
tp360
a(I20
I4
tp361
a(I20
I5
tp362
a(I20
I6
tp363
a(I20
I7
tp364
a(I20
I8
tp365
a(I20
I9
tp366
a(I20
I10
tp367
a(I20
I11
tp368
a(I21
I0
tp369
a(I22
I0
tp370
a(I23
I0
tp371
a(I23
I1
tp372
a(I23
I2
tp373
a(I23
I3
tp374
a(I23
I4
tp375
a(I23
I5
tp376
a(I24
I0
tp377
a(I25
I1
tp378
a(I26
I5
tp379
a(I27
I0
tp380
a(I28
I0
tp381
a(I29
I0
tp382
a(I29
I1
tp383
a(I29
I2
tp384
a(I29
I3
tp385
a(I29
I4
tp386
a(I29
I5
tp387
a(I30
I0
tp388
a(I31
I0
tp389
a(I32
I0
tp390
a(I33
I0
tp391
a(I34
I0
tp392
a(I35
I0
tp393
a(I35
I1
tp394
a(I35
I2
tp395
a(I35
I3
tp396
a(I35
I4
tp397
a(I35
I5
tp398
a(I35
I6
tp399
a(I35
I7
tp400
a(I35
I8
tp401
a(I35
I9
tp402
a(I35
I10
tp403
a(I35
I11
tp404
a(I35
I12
tp405
a(I35
I13
tp406
a(I35
I14
tp407
a(I35
I15
tp408
a(I35
I16
tp409
a(I35
I17
tp410
a(I36
I0
tp411
a(I37
I0
tp412
a(I38
I0
tp413
a(I38
I1
tp414
a(I38
I2
tp415
a(I38
I3
tp416
a(I38
I4
tp417
a(I38
I5
tp418
a(I39
I0
tp419
a(I40
I1
tp420
a(I41
I5
tp421
a(I42
I2
tp422
a(I43
I1
tp423
a(I44
I5
tp424
a(I45
I0
tp425
a(I46
I0
tp426
a(I46
I1
tp427
a(I46
I2
tp428
a(I46
I3
tp429
a(I46
I4
tp430
a(I46
I5
tp431
a(I47
I0
tp432
a(I48
I1
tp433
a(I49
I5
tp434
a(I50
I1
tp435
a(I51
I0
tp436
a(I52
I0
tp437
asg285
(lp438
(I0
I0
tp439
a(I1
I0
tp440
a(I2
I17
tp441
a(I3
I5
tp442
a(I4
I5
tp443
a(I5
I5
tp444
a(I6
I5
tp445
a(I7
I5
tp446
a(I8
I5
tp447
a(I9
I5
tp448
a(I10
I5
tp449
a(I11
I0
tp450
a(I12
I0
tp451
a(I13
I0
tp452
a(I14
I0
tp453
a(I15
I0
tp454
a(I16
I0
tp455
a(I17
I0
tp456
a(I18
I0
tp457
a(I19
I0
tp458
a(I20
I17
tp459
a(I21
I0
tp460
a(I22
I0
tp461
a(I23
I17
tp462
a(I24
I0
tp463
a(I25
I3
tp464
a(I26
I5
tp465
a(I27
I0
tp466
a(I28
I0
tp467
a(I29
I17
tp468
a(I30
I0
tp469
a(I31
I0
tp470
a(I32
I0
tp471
a(I33
I0
tp472
a(I34
I0
tp473
a(I35
I17
tp474
a(I36
I0
tp475
a(I37
I0
tp476
a(I38
I17
tp477
a(I39
I0
tp478
a(I40
I3
tp479
a(I41
I5
tp480
a(I42
I3
tp481
a(I43
I3
tp482
a(I44
I5
tp483
a(I45
I0
tp484
a(I46
I17
tp485
a(I47
I0
tp486
a(I48
I3
tp487
a(I49
I5
tp488
a(I50
I3
tp489
a(I51
I0
tp490
a(I52
I0
tp491
asg287
(lp492
(I0
I0
tp493
a(I1
I0
tp494
a(I2
I0
tp495
a(I2
I1
tp496
a(I2
I2
tp497
a(I2
I3
tp498
a(I2
I4
tp499
a(I2
I5
tp500
a(I3
I0
tp501
a(I3
I1
tp502
a(I3
I2
tp503
a(I3
I3
tp504
a(I3
I4
tp505
a(I3
I5
tp506
a(I4
I0
tp507
a(I4
I1
tp508
a(I4
I2
tp509
a(I4
I3
tp510
a(I4
I4
tp511
a(I4
I5
tp512
a(I5
I0
tp513
a(I5
I1
tp514
a(I5
I2
tp515
a(I5
I3
tp516
a(I5
I4
tp517
a(I5
I5
tp518
a(I6
I0
tp519
a(I6
I1
tp520
a(I6
I2
tp521
a(I6
I3
tp522
a(I6
I4
tp523
a(I6
I5
tp524
a(I7
I0
tp525
a(I7
I1
tp526
a(I7
I2
tp527
a(I7
I3
tp528
a(I7
I4
tp529
a(I7
I5
tp530
a(I8
I0
tp531
a(I8
I1
tp532
a(I8
I2
tp533
a(I8
I3
tp534
a(I8
I4
tp535
a(I8
I5
tp536
a(I9
I0
tp537
a(I9
I1
tp538
a(I9
I2
tp539
a(I9
I3
tp540
a(I9
I4
tp541
a(I9
I5
tp542
a(I10
I0
tp543
a(I10
I1
tp544
a(I10
I2
tp545
a(I10
I3
tp546
a(I10
I4
tp547
a(I10
I5
tp548
a(I11
I0
tp549
a(I12
I0
tp550
a(I13
I0
tp551
a(I14
I0
tp552
a(I15
I0
tp553
a(I16
I0
tp554
a(I17
I0
tp555
a(I18
I0
tp556
a(I19
I0
tp557
a(I20
I0
tp558
a(I20
I1
tp559
a(I20
I2
tp560
a(I20
I3
tp561
a(I20
I4
tp562
a(I20
I5
tp563
a(I21
I0
tp564
a(I22
I0
tp565
a(I23
I0
tp566
a(I23
I1
tp567
a(I23
I2
tp568
a(I23
I3
tp569
a(I23
I4
tp570
a(I23
I5
tp571
a(I24
I0
tp572
a(I25
I1
tp573
a(I26
I5
tp574
a(I27
I0
tp575
a(I28
I0
tp576
a(I29
I0
tp577
a(I29
I1
tp578
a(I29
I2
tp579
a(I29
I3
tp580
a(I29
I4
tp581
a(I29
I5
tp582
a(I30
I0
tp583
a(I31
I0
tp584
a(I32
I0
tp585
a(I33
I0
tp586
a(I34
I0
tp587
a(I35
I0
tp588
a(I35
I1
tp589
a(I35
I2
tp590
a(I35
I3
tp591
a(I35
I4
tp592
a(I35
I5
tp593
a(I36
I0
tp594
a(I37
I0
tp595
a(I38
I0
tp596
a(I38
I1
tp597
a(I38
I2
tp598
a(I38
I3
tp599
a(I38
I4
tp600
a(I38
I5
tp601
a(I39
I0
tp602
a(I40
I1
tp603
a(I41
I5
tp604
a(I42
I1
tp605
a(I43
I1
tp606
a(I44
I5
tp607
a(I45
I0
tp608
a(I46
I0
tp609
a(I46
I1
tp610
a(I46
I2
tp611
a(I46
I3
tp612
a(I46
I4
tp613
a(I46
I5
tp614
a(I47
I0
tp615
a(I48
I1
tp616
a(I49
I5
tp617
a(I50
I1
tp618
a(I51
I0
tp619
a(I52
I0
tp620
assbsS'checksums'
p621
S'33586    90\n'
p622
s.