(dp0
S'content'
p1
(imystruct
Struct
p2
(dp3
S'omitmicro'
p4
(lp5
(I10
I11
tp6
a(I10
I12
tp7
a(I10
I13
tp8
a(I10
I14
tp9
a(I10
I15
tp10
a(I10
I16
tp11
a(I10
I17
tp12
a(I10
I18
tp13
a(I11
I12
tp14
a(I11
I13
tp15
a(I11
I14
tp16
a(I11
I15
tp17
a(I11
I16
tp18
a(I11
I17
tp19
a(I11
I18
tp20
a(I12
I13
tp21
a(I12
I14
tp22
a(I12
I15
tp23
a(I12
I16
tp24
a(I12
I17
tp25
a(I12
I18
tp26
a(I13
I14
tp27
a(I13
I15
tp28
a(I13
I16
tp29
a(I13
I17
tp30
a(I13
I18
tp31
a(I14
I15
tp32
a(I14
I16
tp33
a(I14
I17
tp34
a(I14
I18
tp35
a(I15
I16
tp36
a(I15
I17
tp37
a(I15
I18
tp38
a(I16
I17
tp39
a(I16
I18
tp40
a(I17
I18
tp41
a(I24
I25
tp42
a(I24
I26
tp43
a(I47
I48
tp44
a(I47
I49
tp45
asS'omit_one'
p46
(dp47
S'aligned'
p48
(lp49
sS'three'
p50
(lp51
sS'one'
p52
(lp53
ssS'prefix'
p54
(dp55
g48
(lp56
(I0
I0
tp57
a(I1
I0
tp58
a(I2
I2
tp59
a(I2
I5
tp60
a(I3
I2
tp61
a(I3
I5
tp62
a(I4
I2
tp63
a(I4
I5
tp64
a(I5
I2
tp65
a(I5
I5
tp66
a(I6
I2
tp67
a(I6
I5
tp68
a(I7
I2
tp69
a(I7
I5
tp70
a(I8
I2
tp71
a(I8
I5
tp72
a(I9
I2
tp73
a(I9
I5
tp74
a(I10
I2
tp75
a(I10
I5
tp76
a(I11
I0
tp77
a(I12
I0
tp78
a(I13
I0
tp79
a(I14
I0
tp80
a(I15
I0
tp81
a(I16
I0
tp82
a(I17
I0
tp83
a(I18
I0
tp84
a(I19
I0
tp85
a(I20
I0
tp86
a(I21
I2
tp87
a(I21
I5
tp88
a(I22
I0
tp89
a(I23
I1
tp90
a(I24
I5
tp91
a(I25
I0
tp92
a(I26
I0
tp93
a(I27
I2
tp94
a(I27
I5
tp95
a(I27
I8
tp96
a(I27
I11
tp97
a(I28
I0
tp98
a(I29
I0
tp99
a(I30
I0
tp100
a(I31
I0
tp101
a(I32
I2
tp102
a(I32
I5
tp103
a(I32
I8
tp104
a(I32
I11
tp105
a(I32
I14
tp106
a(I32
I17
tp107
a(I33
I0
tp108
a(I34
I0
tp109
a(I35
I2
tp110
a(I35
I5
tp111
a(I36
I0
tp112
a(I37
I1
tp113
a(I38
I5
tp114
a(I39
I2
tp115
a(I40
I1
tp116
a(I41
I5
tp117
a(I42
I0
tp118
a(I43
I2
tp119
a(I43
I5
tp120
a(I44
I0
tp121
a(I45
I1
tp122
a(I46
I5
tp123
a(I47
I1
tp124
a(I48
I0
tp125
a(I49
I0
tp126
asg50
(lp127
(I0
I0
tp128
a(I1
I0
tp129
a(I2
I17
tp130
a(I3
I5
tp131
a(I4
I5
tp132
a(I5
I5
tp133
a(I6
I5
tp134
a(I7
I5
tp135
a(I8
I5
tp136
a(I9
I5
tp137
a(I10
I5
tp138
a(I11
I0
tp139
a(I12
I0
tp140
a(I13
I0
tp141
a(I14
I0
tp142
a(I15
I0
tp143
a(I16
I0
tp144
a(I17
I0
tp145
a(I18
I0
tp146
a(I19
I0
tp147
a(I20
I0
tp148
a(I21
I17
tp149
a(I22
I0
tp150
a(I23
I3
tp151
a(I24
I5
tp152
a(I25
I0
tp153
a(I26
I0
tp154
a(I27
I17
tp155
a(I28
I0
tp156
a(I29
I0
tp157
a(I30
I0
tp158
a(I31
I0
tp159
a(I32
I17
tp160
a(I33
I0
tp161
a(I34
I0
tp162
a(I35
I17
tp163
a(I36
I0
tp164
a(I37
I3
tp165
a(I38
I5
tp166
a(I39
I3
tp167
a(I40
I3
tp168
a(I41
I5
tp169
a(I42
I0
tp170
a(I43
I17
tp171
a(I44
I0
tp172
a(I45
I3
tp173
a(I46
I5
tp174
a(I47
I3
tp175
a(I48
I0
tp176
a(I49
I0
tp177
asg52
(lp178
(I0
I0
tp179
a(I1
I0
tp180
a(I2
I5
tp181
a(I3
I5
tp182
a(I4
I5
tp183
a(I5
I5
tp184
a(I6
I5
tp185
a(I7
I5
tp186
a(I8
I5
tp187
a(I9
I5
tp188
a(I10
I5
tp189
a(I11
I0
tp190
a(I12
I0
tp191
a(I13
I0
tp192
a(I14
I0
tp193
a(I15
I0
tp194
a(I16
I0
tp195
a(I17
I0
tp196
a(I18
I0
tp197
a(I19
I0
tp198
a(I20
I0
tp199
a(I21
I5
tp200
a(I22
I0
tp201
a(I23
I1
tp202
a(I24
I5
tp203
a(I25
I0
tp204
a(I26
I0
tp205
a(I27
I5
tp206
a(I28
I0
tp207
a(I29
I0
tp208
a(I30
I0
tp209
a(I31
I0
tp210
a(I32
I5
tp211
a(I33
I0
tp212
a(I34
I0
tp213
a(I35
I5
tp214
a(I36
I0
tp215
a(I37
I1
tp216
a(I38
I5
tp217
a(I39
I1
tp218
a(I40
I1
tp219
a(I41
I5
tp220
a(I42
I0
tp221
a(I43
I5
tp222
a(I44
I0
tp223
a(I45
I1
tp224
a(I46
I5
tp225
a(I47
I1
tp226
a(I48
I0
tp227
a(I49
I0
tp228
assbsS'checksums'
p229
S'40195   787\n'
p230
s.