(dp0
S'content'
p1
(imystruct
Struct
p2
(dp3
S'omitmicro'
p4
(lp5
(I2
I3
tp6
a(I2
I4
tp7
a(I2
I5
tp8
a(I2
I6
tp9
a(I3
I4
tp10
a(I3
I5
tp11
a(I3
I6
tp12
a(I4
I5
tp13
a(I4
I6
tp14
a(I5
I6
tp15
a(I8
I9
tp16
a(I8
I10
tp17
a(I8
I11
tp18
a(I8
I12
tp19
a(I9
I10
tp20
a(I9
I11
tp21
a(I9
I12
tp22
a(I10
I11
tp23
a(I10
I12
tp24
a(I11
I12
tp25
a(I14
I15
tp26
a(I14
I16
tp27
a(I14
I17
tp28
a(I14
I18
tp29
a(I15
I16
tp30
a(I15
I17
tp31
a(I15
I18
tp32
a(I16
I17
tp33
a(I16
I18
tp34
a(I17
I18
tp35
a(I20
I21
tp36
a(I20
I22
tp37
a(I20
I23
tp38
a(I20
I24
tp39
a(I21
I22
tp40
a(I21
I23
tp41
a(I21
I24
tp42
a(I22
I23
tp43
a(I22
I24
tp44
a(I23
I24
tp45
a(I27
I28
tp46
a(I27
I29
tp47
a(I27
I30
tp48
a(I28
I29
tp49
a(I28
I30
tp50
a(I29
I30
tp51
a(I33
I34
tp52
a(I33
I35
tp53
a(I33
I36
tp54
a(I33
I37
tp55
a(I33
I38
tp56
a(I33
I39
tp57
a(I33
I40
tp58
a(I33
I41
tp59
a(I33
I42
tp60
a(I34
I35
tp61
a(I34
I36
tp62
a(I34
I37
tp63
a(I34
I38
tp64
a(I34
I39
tp65
a(I34
I40
tp66
a(I34
I41
tp67
a(I34
I42
tp68
a(I35
I36
tp69
a(I35
I37
tp70
a(I35
I38
tp71
a(I35
I39
tp72
a(I35
I40
tp73
a(I35
I41
tp74
a(I35
I42
tp75
a(I36
I37
tp76
a(I36
I38
tp77
a(I36
I39
tp78
a(I36
I40
tp79
a(I36
I41
tp80
a(I36
I42
tp81
a(I37
I38
tp82
a(I37
I39
tp83
a(I37
I40
tp84
a(I37
I41
tp85
a(I37
I42
tp86
a(I38
I39
tp87
a(I38
I40
tp88
a(I38
I41
tp89
a(I38
I42
tp90
a(I39
I40
tp91
a(I39
I41
tp92
a(I39
I42
tp93
a(I40
I41
tp94
a(I40
I42
tp95
a(I41
I42
tp96
asS'omit_one'
p97
(dp98
S'aligned'
p99
(lp100
((I0
I0
tp101
(I0
I1
tp102
tp103
a(g101
(I0
I2
tp104
tp105
a(g101
(I0
I3
tp106
tp107
a(g101
(I0
I4
tp108
tp109
a(g101
(I0
I5
tp110
tp111
a(g101
(I0
I6
tp112
tp113
a(g101
(I0
I7
tp114
tp115
a((I0
I1
tp116
(I0
I2
tp117
tp118
a(g116
(I0
I3
tp119
tp120
a(g116
(I0
I4
tp121
tp122
a(g116
(I0
I5
tp123
tp124
a(g116
(I0
I6
tp125
tp126
a(g116
(I0
I7
tp127
tp128
a((I0
I2
tp129
(I0
I3
tp130
tp131
a(g129
(I0
I4
tp132
tp133
a(g129
(I0
I5
tp134
tp135
a(g129
(I0
I6
tp136
tp137
a(g129
(I0
I7
tp138
tp139
a((I0
I3
tp140
(I0
I4
tp141
tp142
a(g140
(I0
I5
tp143
tp144
a(g140
(I0
I6
tp145
tp146
a(g140
(I0
I7
tp147
tp148
a((I0
I4
tp149
(I0
I5
tp150
tp151
a(g149
(I0
I6
tp152
tp153
a(g149
(I0
I7
tp154
tp155
a((I0
I5
tp156
(I0
I6
tp157
tp158
a(g156
(I0
I7
tp159
tp160
a((I0
I6
tp161
(I0
I7
tp162
tp163
a((I5
I0
tp164
(I5
I1
tp165
tp166
a(g164
(I5
I2
tp167
tp168
a(g164
(I5
I3
tp169
tp170
a(g164
(I5
I4
tp171
tp172
a(g164
(I5
I5
tp173
tp174
a(g164
(I5
I6
tp175
tp176
a(g164
(I5
I7
tp177
tp178
a((I5
I1
tp179
(I5
I2
tp180
tp181
a(g179
(I5
I3
tp182
tp183
a(g179
(I5
I4
tp184
tp185
a(g179
(I5
I5
tp186
tp187
a(g179
(I5
I6
tp188
tp189
a(g179
(I5
I7
tp190
tp191
a((I5
I2
tp192
(I5
I3
tp193
tp194
a(g192
(I5
I4
tp195
tp196
a(g192
(I5
I5
tp197
tp198
a(g192
(I5
I6
tp199
tp200
a(g192
(I5
I7
tp201
tp202
a((I5
I3
tp203
(I5
I4
tp204
tp205
a(g203
(I5
I5
tp206
tp207
a(g203
(I5
I6
tp208
tp209
a(g203
(I5
I7
tp210
tp211
a((I5
I4
tp212
(I5
I5
tp213
tp214
a(g212
(I5
I6
tp215
tp216
a(g212
(I5
I7
tp217
tp218
a((I5
I5
tp219
(I5
I6
tp220
tp221
a(g219
(I5
I7
tp222
tp223
a((I5
I6
tp224
(I5
I7
tp225
tp226
a((I6
I0
tp227
(I6
I1
tp228
tp229
a(g227
(I6
I2
tp230
tp231
a((I6
I1
tp232
(I6
I2
tp233
tp234
a((I11
I0
tp235
(I11
I1
tp236
tp237
a(g235
(I11
I2
tp238
tp239
a(g235
(I11
I3
tp240
tp241
a(g235
(I11
I4
tp242
tp243
a(g235
(I11
I5
tp244
tp245
a(g235
(I11
I6
tp246
tp247
a(g235
(I11
I7
tp248
tp249
a((I11
I1
tp250
(I11
I2
tp251
tp252
a(g250
(I11
I3
tp253
tp254
a(g250
(I11
I4
tp255
tp256
a(g250
(I11
I5
tp257
tp258
a(g250
(I11
I6
tp259
tp260
a(g250
(I11
I7
tp261
tp262
a((I11
I2
tp263
(I11
I3
tp264
tp265
a(g263
(I11
I4
tp266
tp267
a(g263
(I11
I5
tp268
tp269
a(g263
(I11
I6
tp270
tp271
a(g263
(I11
I7
tp272
tp273
a((I11
I3
tp274
(I11
I4
tp275
tp276
a(g274
(I11
I5
tp277
tp278
a(g274
(I11
I6
tp279
tp280
a(g274
(I11
I7
tp281
tp282
a((I11
I4
tp283
(I11
I5
tp284
tp285
a(g283
(I11
I6
tp286
tp287
a(g283
(I11
I7
tp288
tp289
a((I11
I5
tp290
(I11
I6
tp291
tp292
a(g290
(I11
I7
tp293
tp294
a((I11
I6
tp295
(I11
I7
tp296
tp297
a((I12
I0
tp298
(I12
I1
tp299
tp300
a(g298
(I12
I2
tp301
tp302
a((I12
I1
tp303
(I12
I2
tp304
tp305
a((I17
I0
tp306
(I17
I1
tp307
tp308
a(g306
(I17
I2
tp309
tp310
a(g306
(I17
I3
tp311
tp312
a(g306
(I17
I4
tp313
tp314
a(g306
(I17
I5
tp315
tp316
a(g306
(I17
I6
tp317
tp318
a(g306
(I17
I7
tp319
tp320
a((I17
I1
tp321
(I17
I2
tp322
tp323
a(g321
(I17
I3
tp324
tp325
a(g321
(I17
I4
tp326
tp327
a(g321
(I17
I5
tp328
tp329
a(g321
(I17
I6
tp330
tp331
a(g321
(I17
I7
tp332
tp333
a((I17
I2
tp334
(I17
I3
tp335
tp336
a(g334
(I17
I4
tp337
tp338
a(g334
(I17
I5
tp339
tp340
a(g334
(I17
I6
tp341
tp342
a(g334
(I17
I7
tp343
tp344
a((I17
I3
tp345
(I17
I4
tp346
tp347
a(g345
(I17
I5
tp348
tp349
a(g345
(I17
I6
tp350
tp351
a(g345
(I17
I7
tp352
tp353
a((I17
I4
tp354
(I17
I5
tp355
tp356
a(g354
(I17
I6
tp357
tp358
a(g354
(I17
I7
tp359
tp360
a((I17
I5
tp361
(I17
I6
tp362
tp363
a(g361
(I17
I7
tp364
tp365
a((I17
I6
tp366
(I17
I7
tp367
tp368
a((I18
I0
tp369
(I18
I1
tp370
tp371
a(g369
(I18
I2
tp372
tp373
a((I18
I1
tp374
(I18
I2
tp375
tp376
a((I23
I0
tp377
(I23
I1
tp378
tp379
a(g377
(I23
I2
tp380
tp381
a(g377
(I23
I3
tp382
tp383
a(g377
(I23
I4
tp384
tp385
a(g377
(I23
I5
tp386
tp387
a(g377
(I23
I6
tp388
tp389
a(g377
(I23
I7
tp390
tp391
a((I23
I1
tp392
(I23
I2
tp393
tp394
a(g392
(I23
I3
tp395
tp396
a(g392
(I23
I4
tp397
tp398
a(g392
(I23
I5
tp399
tp400
a(g392
(I23
I6
tp401
tp402
a(g392
(I23
I7
tp403
tp404
a((I23
I2
tp405
(I23
I3
tp406
tp407
a(g405
(I23
I4
tp408
tp409
a(g405
(I23
I5
tp410
tp411
a(g405
(I23
I6
tp412
tp413
a(g405
(I23
I7
tp414
tp415
a((I23
I3
tp416
(I23
I4
tp417
tp418
a(g416
(I23
I5
tp419
tp420
a(g416
(I23
I6
tp421
tp422
a(g416
(I23
I7
tp423
tp424
a((I23
I4
tp425
(I23
I5
tp426
tp427
a(g425
(I23
I6
tp428
tp429
a(g425
(I23
I7
tp430
tp431
a((I23
I5
tp432
(I23
I6
tp433
tp434
a(g432
(I23
I7
tp435
tp436
a((I23
I6
tp437
(I23
I7
tp438
tp439
a((I24
I0
tp440
(I24
I1
tp441
tp442
a(g440
(I24
I2
tp443
tp444
a((I24
I1
tp445
(I24
I2
tp446
tp447
asS'three'
p448
(lp449
sS'one'
p450
(lp451
ssS'prefix'
p452
(dp453
g99
(lp454
(I0
I0
tp455
a(I0
I1
tp456
a(I0
I2
tp457
a(I0
I3
tp458
a(I0
I4
tp459
a(I0
I5
tp460
a(I0
I6
tp461
a(I0
I7
tp462
a(I1
I0
tp463
a(I2
I0
tp464
a(I3
I1
tp465
a(I3
I3
tp466
a(I3
I5
tp467
a(I3
I7
tp468
a(I3
I9
tp469
a(I3
I11
tp470
a(I3
I13
tp471
a(I3
I15
tp472
a(I4
I2
tp473
a(I4
I5
tp474
a(I4
I8
tp475
a(I4
I11
tp476
a(I5
I0
tp477
a(I5
I1
tp478
a(I5
I2
tp479
a(I5
I3
tp480
a(I5
I4
tp481
a(I5
I5
tp482
a(I5
I6
tp483
a(I5
I7
tp484
a(I6
I0
tp485
a(I6
I1
tp486
a(I6
I2
tp487
a(I7
I0
tp488
a(I8
I0
tp489
a(I9
I1
tp490
a(I9
I3
tp491
a(I9
I5
tp492
a(I9
I7
tp493
a(I9
I9
tp494
a(I9
I11
tp495
a(I9
I13
tp496
a(I9
I15
tp497
a(I10
I2
tp498
a(I10
I5
tp499
a(I10
I8
tp500
a(I10
I11
tp501
a(I11
I0
tp502
a(I11
I1
tp503
a(I11
I2
tp504
a(I11
I3
tp505
a(I11
I4
tp506
a(I11
I5
tp507
a(I11
I6
tp508
a(I11
I7
tp509
a(I12
I0
tp510
a(I12
I1
tp511
a(I12
I2
tp512
a(I13
I0
tp513
a(I14
I0
tp514
a(I15
I1
tp515
a(I15
I3
tp516
a(I15
I5
tp517
a(I15
I7
tp518
a(I15
I9
tp519
a(I15
I11
tp520
a(I15
I13
tp521
a(I15
I15
tp522
a(I16
I2
tp523
a(I16
I5
tp524
a(I16
I8
tp525
a(I16
I11
tp526
a(I17
I0
tp527
a(I17
I1
tp528
a(I17
I2
tp529
a(I17
I3
tp530
a(I17
I4
tp531
a(I17
I5
tp532
a(I17
I6
tp533
a(I17
I7
tp534
a(I18
I0
tp535
a(I18
I1
tp536
a(I18
I2
tp537
a(I19
I0
tp538
a(I20
I0
tp539
a(I21
I1
tp540
a(I21
I3
tp541
a(I21
I5
tp542
a(I21
I7
tp543
a(I21
I9
tp544
a(I21
I11
tp545
a(I21
I13
tp546
a(I21
I15
tp547
a(I22
I2
tp548
a(I22
I5
tp549
a(I22
I8
tp550
a(I22
I11
tp551
a(I23
I0
tp552
a(I23
I1
tp553
a(I23
I2
tp554
a(I23
I3
tp555
a(I23
I4
tp556
a(I23
I5
tp557
a(I23
I6
tp558
a(I23
I7
tp559
a(I24
I0
tp560
a(I24
I1
tp561
a(I24
I2
tp562
a(I25
I0
tp563
a(I26
I0
tp564
a(I27
I0
tp565
a(I28
I1
tp566
a(I28
I3
tp567
a(I28
I5
tp568
a(I28
I7
tp569
a(I28
I9
tp570
a(I28
I11
tp571
a(I28
I13
tp572
a(I28
I15
tp573
a(I29
I2
tp574
a(I29
I5
tp575
a(I29
I8
tp576
a(I29
I11
tp577
a(I30
I0
tp578
a(I31
I0
tp579
a(I32
I0
tp580
a(I33
I0
tp581
a(I34
I0
tp582
a(I35
I0
tp583
a(I36
I2
tp584
a(I36
I5
tp585
a(I37
I2
tp586
a(I37
I5
tp587
a(I38
I2
tp588
a(I38
I5
tp589
a(I39
I2
tp590
a(I39
I5
tp591
a(I40
I2
tp592
a(I40
I5
tp593
a(I41
I2
tp594
a(I41
I5
tp595
a(I42
I2
tp596
a(I42
I5
tp597
a(I43
I0
tp598
a(I44
I0
tp599
a(I45
I0
tp600
a(I46
I0
tp601
asg448
(lp602
(I0
I2
tp603
a(I1
I0
tp604
a(I2
I0
tp605
a(I3
I5
tp606
a(I4
I17
tp607
a(I5
I2
tp608
a(I6
I2
tp609
a(I7
I0
tp610
a(I8
I0
tp611
a(I9
I5
tp612
a(I10
I17
tp613
a(I11
I2
tp614
a(I12
I2
tp615
a(I13
I0
tp616
a(I14
I0
tp617
a(I15
I5
tp618
a(I16
I17
tp619
a(I17
I2
tp620
a(I18
I2
tp621
a(I19
I0
tp622
a(I20
I0
tp623
a(I21
I5
tp624
a(I22
I17
tp625
a(I23
I2
tp626
a(I24
I2
tp627
a(I25
I0
tp628
a(I26
I0
tp629
a(I27
I0
tp630
a(I28
I5
tp631
a(I29
I17
tp632
a(I30
I2
tp633
a(I31
I0
tp634
a(I32
I0
tp635
a(I33
I2
tp636
a(I34
I2
tp637
a(I35
I2
tp638
a(I36
I17
tp639
a(I37
I17
tp640
a(I38
I17
tp641
a(I39
I17
tp642
a(I40
I17
tp643
a(I41
I17
tp644
a(I42
I17
tp645
a(I43
I0
tp646
a(I44
I2
tp647
a(I45
I0
tp648
a(I46
I0
tp649
asg450
(lp650
(I0
I0
tp651
a(I1
I0
tp652
a(I2
I0
tp653
a(I3
I1
tp654
a(I4
I5
tp655
a(I5
I0
tp656
a(I6
I0
tp657
a(I7
I0
tp658
a(I8
I0
tp659
a(I9
I1
tp660
a(I10
I5
tp661
a(I11
I0
tp662
a(I12
I0
tp663
a(I13
I0
tp664
a(I14
I0
tp665
a(I15
I1
tp666
a(I16
I5
tp667
a(I17
I0
tp668
a(I18
I0
tp669
a(I19
I0
tp670
a(I20
I0
tp671
a(I21
I1
tp672
a(I22
I5
tp673
a(I23
I0
tp674
a(I24
I0
tp675
a(I25
I0
tp676
a(I26
I0
tp677
a(I27
I0
tp678
a(I28
I1
tp679
a(I29
I5
tp680
a(I30
I0
tp681
a(I31
I0
tp682
a(I32
I0
tp683
a(I33
I0
tp684
a(I34
I0
tp685
a(I35
I0
tp686
a(I36
I5
tp687
a(I37
I5
tp688
a(I38
I5
tp689
a(I39
I5
tp690
a(I40
I5
tp691
a(I41
I5
tp692
a(I42
I5
tp693
a(I43
I0
tp694
a(I44
I0
tp695
a(I45
I0
tp696
a(I46
I0
tp697
assbsS'checksums'
p698
S'01261  1436\n'
p699
s.