(dp0
S'content'
p1
(imystruct
Struct
p2
(dp3
S'omitmicro'
p4
(lp5
(I2
I3
tp6
a(I2
I4
tp7
a(I2
I5
tp8
a(I2
I6
tp9
a(I3
I4
tp10
a(I3
I5
tp11
a(I3
I6
tp12
a(I4
I5
tp13
a(I4
I6
tp14
a(I5
I6
tp15
a(I8
I9
tp16
a(I8
I10
tp17
a(I8
I11
tp18
a(I8
I12
tp19
a(I9
I10
tp20
a(I9
I11
tp21
a(I9
I12
tp22
a(I10
I11
tp23
a(I10
I12
tp24
a(I11
I12
tp25
a(I14
I15
tp26
a(I14
I16
tp27
a(I14
I17
tp28
a(I14
I18
tp29
a(I15
I16
tp30
a(I15
I17
tp31
a(I15
I18
tp32
a(I16
I17
tp33
a(I16
I18
tp34
a(I17
I18
tp35
a(I20
I21
tp36
a(I20
I22
tp37
a(I20
I23
tp38
a(I20
I24
tp39
a(I20
I26
tp40
a(I21
I22
tp41
a(I21
I23
tp42
a(I21
I24
tp43
a(I22
I23
tp44
a(I22
I24
tp45
a(I23
I24
tp46
a(I27
I28
tp47
a(I27
I29
tp48
a(I27
I30
tp49
a(I27
I32
tp50
a(I27
I33
tp51
a(I27
I34
tp52
a(I27
I35
tp53
a(I27
I36
tp54
a(I27
I37
tp55
a(I27
I38
tp56
a(I27
I39
tp57
a(I27
I40
tp58
a(I27
I41
tp59
a(I27
I42
tp60
a(I27
I44
tp61
a(I28
I29
tp62
a(I28
I30
tp63
a(I29
I30
tp64
a(I33
I34
tp65
a(I33
I35
tp66
a(I33
I36
tp67
a(I33
I37
tp68
a(I33
I38
tp69
a(I33
I39
tp70
a(I33
I40
tp71
a(I33
I41
tp72
a(I33
I42
tp73
a(I34
I35
tp74
a(I34
I36
tp75
a(I34
I37
tp76
a(I34
I38
tp77
a(I34
I39
tp78
a(I34
I40
tp79
a(I34
I41
tp80
a(I34
I42
tp81
a(I35
I36
tp82
a(I35
I37
tp83
a(I35
I38
tp84
a(I35
I39
tp85
a(I35
I40
tp86
a(I35
I41
tp87
a(I35
I42
tp88
a(I36
I37
tp89
a(I36
I38
tp90
a(I36
I39
tp91
a(I36
I40
tp92
a(I36
I41
tp93
a(I36
I42
tp94
a(I37
I38
tp95
a(I37
I39
tp96
a(I37
I40
tp97
a(I37
I41
tp98
a(I37
I42
tp99
a(I38
I39
tp100
a(I38
I40
tp101
a(I38
I41
tp102
a(I38
I42
tp103
a(I39
I40
tp104
a(I39
I41
tp105
a(I39
I42
tp106
a(I40
I41
tp107
a(I40
I42
tp108
a(I41
I42
tp109
asS'omit_one'
p110
(dp111
S'aligned'
p112
(lp113
((I0
I0
tp114
(I0
I1
tp115
tp116
a(g114
(I0
I2
tp117
tp118
a(g114
(I0
I3
tp119
tp120
a(g114
(I0
I4
tp121
tp122
a(g114
(I0
I5
tp123
tp124
a(g114
(I0
I6
tp125
tp126
a(g114
(I0
I7
tp127
tp128
a((I0
I1
tp129
(I0
I2
tp130
tp131
a(g129
(I0
I3
tp132
tp133
a(g129
(I0
I4
tp134
tp135
a(g129
(I0
I5
tp136
tp137
a(g129
(I0
I6
tp138
tp139
a(g129
(I0
I7
tp140
tp141
a((I0
I2
tp142
(I0
I3
tp143
tp144
a(g142
(I0
I4
tp145
tp146
a(g142
(I0
I5
tp147
tp148
a(g142
(I0
I6
tp149
tp150
a(g142
(I0
I7
tp151
tp152
a((I0
I3
tp153
(I0
I4
tp154
tp155
a(g153
(I0
I5
tp156
tp157
a(g153
(I0
I6
tp158
tp159
a(g153
(I0
I7
tp160
tp161
a((I0
I4
tp162
(I0
I5
tp163
tp164
a(g162
(I0
I6
tp165
tp166
a(g162
(I0
I7
tp167
tp168
a((I0
I5
tp169
(I0
I6
tp170
tp171
a(g169
(I0
I7
tp172
tp173
a((I0
I6
tp174
(I0
I7
tp175
tp176
a((I5
I0
tp177
(I5
I1
tp178
tp179
a(g177
(I5
I2
tp180
tp181
a(g177
(I5
I3
tp182
tp183
a(g177
(I5
I4
tp184
tp185
a(g177
(I5
I5
tp186
tp187
a(g177
(I5
I6
tp188
tp189
a(g177
(I5
I7
tp190
tp191
a((I5
I1
tp192
(I5
I2
tp193
tp194
a(g192
(I5
I3
tp195
tp196
a(g192
(I5
I4
tp197
tp198
a(g192
(I5
I5
tp199
tp200
a(g192
(I5
I6
tp201
tp202
a(g192
(I5
I7
tp203
tp204
a((I5
I2
tp205
(I5
I3
tp206
tp207
a(g205
(I5
I4
tp208
tp209
a(g205
(I5
I5
tp210
tp211
a(g205
(I5
I6
tp212
tp213
a(g205
(I5
I7
tp214
tp215
a((I5
I3
tp216
(I5
I4
tp217
tp218
a(g216
(I5
I5
tp219
tp220
a(g216
(I5
I6
tp221
tp222
a(g216
(I5
I7
tp223
tp224
a((I5
I4
tp225
(I5
I5
tp226
tp227
a(g225
(I5
I6
tp228
tp229
a(g225
(I5
I7
tp230
tp231
a((I5
I5
tp232
(I5
I6
tp233
tp234
a(g232
(I5
I7
tp235
tp236
a((I5
I6
tp237
(I5
I7
tp238
tp239
a((I6
I0
tp240
(I6
I1
tp241
tp242
a(g240
(I6
I2
tp243
tp244
a((I6
I1
tp245
(I6
I2
tp246
tp247
a((I11
I0
tp248
(I11
I1
tp249
tp250
a(g248
(I11
I2
tp251
tp252
a(g248
(I11
I3
tp253
tp254
a(g248
(I11
I4
tp255
tp256
a(g248
(I11
I5
tp257
tp258
a(g248
(I11
I6
tp259
tp260
a(g248
(I11
I7
tp261
tp262
a((I11
I1
tp263
(I11
I2
tp264
tp265
a(g263
(I11
I3
tp266
tp267
a(g263
(I11
I4
tp268
tp269
a(g263
(I11
I5
tp270
tp271
a(g263
(I11
I6
tp272
tp273
a(g263
(I11
I7
tp274
tp275
a((I11
I2
tp276
(I11
I3
tp277
tp278
a(g276
(I11
I4
tp279
tp280
a(g276
(I11
I5
tp281
tp282
a(g276
(I11
I6
tp283
tp284
a(g276
(I11
I7
tp285
tp286
a((I11
I3
tp287
(I11
I4
tp288
tp289
a(g287
(I11
I5
tp290
tp291
a(g287
(I11
I6
tp292
tp293
a(g287
(I11
I7
tp294
tp295
a((I11
I4
tp296
(I11
I5
tp297
tp298
a(g296
(I11
I6
tp299
tp300
a(g296
(I11
I7
tp301
tp302
a((I11
I5
tp303
(I11
I6
tp304
tp305
a(g303
(I11
I7
tp306
tp307
a((I11
I6
tp308
(I11
I7
tp309
tp310
a((I12
I0
tp311
(I12
I1
tp312
tp313
a(g311
(I12
I2
tp314
tp315
a((I12
I1
tp316
(I12
I2
tp317
tp318
a((I17
I0
tp319
(I17
I1
tp320
tp321
a(g319
(I17
I2
tp322
tp323
a(g319
(I17
I3
tp324
tp325
a(g319
(I17
I4
tp326
tp327
a(g319
(I17
I5
tp328
tp329
a(g319
(I17
I6
tp330
tp331
a(g319
(I17
I7
tp332
tp333
a((I17
I1
tp334
(I17
I2
tp335
tp336
a(g334
(I17
I3
tp337
tp338
a(g334
(I17
I4
tp339
tp340
a(g334
(I17
I5
tp341
tp342
a(g334
(I17
I6
tp343
tp344
a(g334
(I17
I7
tp345
tp346
a((I17
I2
tp347
(I17
I3
tp348
tp349
a(g347
(I17
I4
tp350
tp351
a(g347
(I17
I5
tp352
tp353
a(g347
(I17
I6
tp354
tp355
a(g347
(I17
I7
tp356
tp357
a((I17
I3
tp358
(I17
I4
tp359
tp360
a(g358
(I17
I5
tp361
tp362
a(g358
(I17
I6
tp363
tp364
a(g358
(I17
I7
tp365
tp366
a((I17
I4
tp367
(I17
I5
tp368
tp369
a(g367
(I17
I6
tp370
tp371
a(g367
(I17
I7
tp372
tp373
a((I17
I5
tp374
(I17
I6
tp375
tp376
a(g374
(I17
I7
tp377
tp378
a((I17
I6
tp379
(I17
I7
tp380
tp381
a((I18
I0
tp382
(I18
I1
tp383
tp384
a(g382
(I18
I2
tp385
tp386
a((I18
I1
tp387
(I18
I2
tp388
tp389
a((I23
I0
tp390
(I23
I1
tp391
tp392
a(g390
(I23
I2
tp393
tp394
a(g390
(I23
I3
tp395
tp396
a(g390
(I23
I4
tp397
tp398
a(g390
(I23
I5
tp399
tp400
a(g390
(I23
I6
tp401
tp402
a(g390
(I23
I7
tp403
tp404
a((I23
I1
tp405
(I23
I2
tp406
tp407
a(g405
(I23
I3
tp408
tp409
a(g405
(I23
I4
tp410
tp411
a(g405
(I23
I5
tp412
tp413
a(g405
(I23
I6
tp414
tp415
a(g405
(I23
I7
tp416
tp417
a((I23
I2
tp418
(I23
I3
tp419
tp420
a(g418
(I23
I4
tp421
tp422
a(g418
(I23
I5
tp423
tp424
a(g418
(I23
I6
tp425
tp426
a(g418
(I23
I7
tp427
tp428
a((I23
I3
tp429
(I23
I4
tp430
tp431
a(g429
(I23
I5
tp432
tp433
a(g429
(I23
I6
tp434
tp435
a(g429
(I23
I7
tp436
tp437
a((I23
I4
tp438
(I23
I5
tp439
tp440
a(g438
(I23
I6
tp441
tp442
a(g438
(I23
I7
tp443
tp444
a((I23
I5
tp445
(I23
I6
tp446
tp447
a(g445
(I23
I7
tp448
tp449
a((I23
I6
tp450
(I23
I7
tp451
tp452
a((I24
I0
tp453
(I24
I1
tp454
tp455
a(g453
(I24
I2
tp456
tp457
a((I24
I1
tp458
(I24
I2
tp459
tp460
asS'three'
p461
(lp462
sS'one'
p463
(lp464
ssS'prefix'
p465
(dp466
g112
(lp467
(I0
I0
tp468
a(I0
I1
tp469
a(I0
I2
tp470
a(I0
I3
tp471
a(I0
I4
tp472
a(I0
I5
tp473
a(I0
I6
tp474
a(I0
I7
tp475
a(I1
I0
tp476
a(I2
I0
tp477
a(I3
I1
tp478
a(I3
I3
tp479
a(I3
I5
tp480
a(I3
I7
tp481
a(I3
I9
tp482
a(I3
I11
tp483
a(I3
I13
tp484
a(I3
I15
tp485
a(I4
I2
tp486
a(I4
I5
tp487
a(I4
I8
tp488
a(I4
I11
tp489
a(I5
I0
tp490
a(I5
I1
tp491
a(I5
I2
tp492
a(I5
I3
tp493
a(I5
I4
tp494
a(I5
I5
tp495
a(I5
I6
tp496
a(I5
I7
tp497
a(I6
I0
tp498
a(I6
I1
tp499
a(I6
I2
tp500
a(I7
I0
tp501
a(I8
I0
tp502
a(I9
I1
tp503
a(I9
I3
tp504
a(I9
I5
tp505
a(I9
I7
tp506
a(I9
I9
tp507
a(I9
I11
tp508
a(I9
I13
tp509
a(I9
I15
tp510
a(I10
I2
tp511
a(I10
I5
tp512
a(I10
I8
tp513
a(I10
I11
tp514
a(I11
I0
tp515
a(I11
I1
tp516
a(I11
I2
tp517
a(I11
I3
tp518
a(I11
I4
tp519
a(I11
I5
tp520
a(I11
I6
tp521
a(I11
I7
tp522
a(I12
I0
tp523
a(I12
I1
tp524
a(I12
I2
tp525
a(I13
I0
tp526
a(I14
I0
tp527
a(I15
I1
tp528
a(I15
I3
tp529
a(I15
I5
tp530
a(I15
I7
tp531
a(I15
I9
tp532
a(I15
I11
tp533
a(I15
I13
tp534
a(I15
I15
tp535
a(I16
I2
tp536
a(I16
I5
tp537
a(I16
I8
tp538
a(I16
I11
tp539
a(I17
I0
tp540
a(I17
I1
tp541
a(I17
I2
tp542
a(I17
I3
tp543
a(I17
I4
tp544
a(I17
I5
tp545
a(I17
I6
tp546
a(I17
I7
tp547
a(I18
I0
tp548
a(I18
I1
tp549
a(I18
I2
tp550
a(I19
I0
tp551
a(I20
I0
tp552
a(I21
I1
tp553
a(I21
I3
tp554
a(I21
I5
tp555
a(I21
I7
tp556
a(I21
I9
tp557
a(I21
I11
tp558
a(I21
I13
tp559
a(I21
I15
tp560
a(I22
I2
tp561
a(I22
I5
tp562
a(I22
I8
tp563
a(I22
I11
tp564
a(I23
I0
tp565
a(I23
I1
tp566
a(I23
I2
tp567
a(I23
I3
tp568
a(I23
I4
tp569
a(I23
I5
tp570
a(I23
I6
tp571
a(I23
I7
tp572
a(I24
I0
tp573
a(I24
I1
tp574
a(I24
I2
tp575
a(I25
I0
tp576
a(I26
I0
tp577
a(I27
I0
tp578
a(I28
I1
tp579
a(I28
I3
tp580
a(I28
I5
tp581
a(I28
I7
tp582
a(I28
I9
tp583
a(I28
I11
tp584
a(I28
I13
tp585
a(I28
I15
tp586
a(I29
I2
tp587
a(I29
I5
tp588
a(I29
I8
tp589
a(I29
I11
tp590
a(I30
I0
tp591
a(I31
I0
tp592
a(I32
I0
tp593
a(I33
I0
tp594
a(I34
I0
tp595
a(I35
I0
tp596
a(I36
I2
tp597
a(I36
I5
tp598
a(I37
I2
tp599
a(I37
I5
tp600
a(I38
I2
tp601
a(I38
I5
tp602
a(I39
I2
tp603
a(I39
I5
tp604
a(I40
I2
tp605
a(I40
I5
tp606
a(I41
I2
tp607
a(I41
I5
tp608
a(I42
I2
tp609
a(I42
I5
tp610
a(I43
I0
tp611
a(I44
I0
tp612
a(I45
I0
tp613
a(I46
I0
tp614
asg461
(lp615
(I0
I2
tp616
a(I1
I0
tp617
a(I2
I0
tp618
a(I3
I5
tp619
a(I4
I17
tp620
a(I5
I2
tp621
a(I6
I2
tp622
a(I7
I0
tp623
a(I8
I0
tp624
a(I9
I5
tp625
a(I10
I17
tp626
a(I11
I2
tp627
a(I12
I2
tp628
a(I13
I0
tp629
a(I14
I0
tp630
a(I15
I5
tp631
a(I16
I17
tp632
a(I17
I2
tp633
a(I18
I2
tp634
a(I19
I0
tp635
a(I20
I0
tp636
a(I21
I5
tp637
a(I22
I17
tp638
a(I23
I2
tp639
a(I24
I2
tp640
a(I25
I0
tp641
a(I26
I0
tp642
a(I27
I0
tp643
a(I28
I5
tp644
a(I29
I17
tp645
a(I30
I2
tp646
a(I31
I0
tp647
a(I32
I0
tp648
a(I33
I2
tp649
a(I34
I2
tp650
a(I35
I2
tp651
a(I36
I17
tp652
a(I37
I17
tp653
a(I38
I17
tp654
a(I39
I17
tp655
a(I40
I17
tp656
a(I41
I17
tp657
a(I42
I17
tp658
a(I43
I0
tp659
a(I44
I2
tp660
a(I45
I0
tp661
a(I46
I0
tp662
asg463
(lp663
(I0
I0
tp664
a(I1
I0
tp665
a(I2
I0
tp666
a(I3
I1
tp667
a(I4
I5
tp668
a(I5
I0
tp669
a(I6
I0
tp670
a(I7
I0
tp671
a(I8
I0
tp672
a(I9
I1
tp673
a(I10
I5
tp674
a(I11
I0
tp675
a(I12
I0
tp676
a(I13
I0
tp677
a(I14
I0
tp678
a(I15
I1
tp679
a(I16
I5
tp680
a(I17
I0
tp681
a(I18
I0
tp682
a(I19
I0
tp683
a(I20
I0
tp684
a(I21
I1
tp685
a(I22
I5
tp686
a(I23
I0
tp687
a(I24
I0
tp688
a(I25
I0
tp689
a(I26
I0
tp690
a(I27
I0
tp691
a(I28
I1
tp692
a(I29
I5
tp693
a(I30
I0
tp694
a(I31
I0
tp695
a(I32
I0
tp696
a(I33
I0
tp697
a(I34
I0
tp698
a(I35
I0
tp699
a(I36
I5
tp700
a(I37
I5
tp701
a(I38
I5
tp702
a(I39
I5
tp703
a(I40
I5
tp704
a(I41
I5
tp705
a(I42
I5
tp706
a(I43
I0
tp707
a(I44
I0
tp708
a(I45
I0
tp709
a(I46
I0
tp710
assbsS'checksums'
p711
S'01261  1436\n'
p712
s.