(dp0
S'content'
p1
(imystruct
Struct
p2
(dp3
S'omitmicro'
p4
(lp5
(I3
I4
tp6
a(I3
I5
tp7
a(I3
I6
tp8
a(I3
I7
tp9
a(I4
I5
tp10
a(I4
I6
tp11
a(I4
I7
tp12
a(I5
I6
tp13
a(I5
I7
tp14
a(I6
I7
tp15
a(I9
I10
tp16
a(I9
I11
tp17
a(I9
I12
tp18
a(I9
I13
tp19
a(I10
I11
tp20
a(I10
I12
tp21
a(I10
I13
tp22
a(I11
I12
tp23
a(I11
I13
tp24
a(I12
I13
tp25
a(I15
I16
tp26
a(I15
I17
tp27
a(I15
I18
tp28
a(I15
I19
tp29
a(I16
I17
tp30
a(I16
I18
tp31
a(I16
I19
tp32
a(I17
I18
tp33
a(I17
I19
tp34
a(I18
I19
tp35
a(I21
I22
tp36
a(I21
I23
tp37
a(I21
I24
tp38
a(I21
I25
tp39
a(I22
I23
tp40
a(I22
I24
tp41
a(I22
I25
tp42
a(I23
I24
tp43
a(I23
I25
tp44
a(I24
I25
tp45
a(I28
I29
tp46
a(I28
I30
tp47
a(I28
I31
tp48
a(I29
I30
tp49
a(I29
I31
tp50
a(I30
I31
tp51
a(I34
I35
tp52
a(I34
I36
tp53
a(I34
I37
tp54
a(I34
I38
tp55
a(I34
I39
tp56
a(I34
I40
tp57
a(I34
I41
tp58
a(I34
I42
tp59
a(I34
I43
tp60
a(I34
I44
tp61
a(I34
I45
tp62
a(I35
I36
tp63
a(I35
I37
tp64
a(I35
I38
tp65
a(I35
I39
tp66
a(I35
I40
tp67
a(I35
I41
tp68
a(I35
I42
tp69
a(I35
I43
tp70
a(I35
I44
tp71
a(I35
I45
tp72
a(I36
I37
tp73
a(I36
I38
tp74
a(I36
I39
tp75
a(I36
I40
tp76
a(I36
I41
tp77
a(I36
I42
tp78
a(I36
I43
tp79
a(I36
I44
tp80
a(I36
I45
tp81
a(I37
I38
tp82
a(I37
I39
tp83
a(I37
I40
tp84
a(I37
I41
tp85
a(I37
I42
tp86
a(I37
I43
tp87
a(I37
I44
tp88
a(I37
I45
tp89
a(I38
I39
tp90
a(I38
I40
tp91
a(I38
I41
tp92
a(I38
I42
tp93
a(I38
I43
tp94
a(I38
I44
tp95
a(I38
I45
tp96
a(I39
I40
tp97
a(I39
I41
tp98
a(I39
I42
tp99
a(I39
I43
tp100
a(I39
I44
tp101
a(I39
I45
tp102
a(I40
I41
tp103
a(I40
I42
tp104
a(I40
I43
tp105
a(I40
I44
tp106
a(I40
I45
tp107
a(I41
I42
tp108
a(I41
I43
tp109
a(I41
I44
tp110
a(I41
I45
tp111
a(I42
I43
tp112
a(I42
I44
tp113
a(I42
I45
tp114
a(I43
I44
tp115
a(I43
I45
tp116
a(I44
I45
tp117
asS'omit_one'
p118
(dp119
S'aligned'
p120
(lp121
((I1
I0
tp122
(I1
I1
tp123
tp124
a(g122
(I1
I2
tp125
tp126
a(g122
(I1
I3
tp127
tp128
a(g122
(I1
I4
tp129
tp130
a(g122
(I1
I5
tp131
tp132
a(g122
(I1
I6
tp133
tp134
a(g122
(I1
I7
tp135
tp136
a((I1
I1
tp137
(I1
I2
tp138
tp139
a(g137
(I1
I3
tp140
tp141
a(g137
(I1
I4
tp142
tp143
a(g137
(I1
I5
tp144
tp145
a(g137
(I1
I6
tp146
tp147
a(g137
(I1
I7
tp148
tp149
a((I1
I2
tp150
(I1
I3
tp151
tp152
a(g150
(I1
I4
tp153
tp154
a(g150
(I1
I5
tp155
tp156
a(g150
(I1
I6
tp157
tp158
a(g150
(I1
I7
tp159
tp160
a((I1
I3
tp161
(I1
I4
tp162
tp163
a(g161
(I1
I5
tp164
tp165
a(g161
(I1
I6
tp166
tp167
a(g161
(I1
I7
tp168
tp169
a((I1
I4
tp170
(I1
I5
tp171
tp172
a(g170
(I1
I6
tp173
tp174
a(g170
(I1
I7
tp175
tp176
a((I1
I5
tp177
(I1
I6
tp178
tp179
a(g177
(I1
I7
tp180
tp181
a((I1
I6
tp182
(I1
I7
tp183
tp184
a((I6
I0
tp185
(I6
I1
tp186
tp187
a(g185
(I6
I2
tp188
tp189
a(g185
(I6
I3
tp190
tp191
a(g185
(I6
I4
tp192
tp193
a(g185
(I6
I5
tp194
tp195
a(g185
(I6
I6
tp196
tp197
a(g185
(I6
I7
tp198
tp199
a((I6
I1
tp200
(I6
I2
tp201
tp202
a(g200
(I6
I3
tp203
tp204
a(g200
(I6
I4
tp205
tp206
a(g200
(I6
I5
tp207
tp208
a(g200
(I6
I6
tp209
tp210
a(g200
(I6
I7
tp211
tp212
a((I6
I2
tp213
(I6
I3
tp214
tp215
a(g213
(I6
I4
tp216
tp217
a(g213
(I6
I5
tp218
tp219
a(g213
(I6
I6
tp220
tp221
a(g213
(I6
I7
tp222
tp223
a((I6
I3
tp224
(I6
I4
tp225
tp226
a(g224
(I6
I5
tp227
tp228
a(g224
(I6
I6
tp229
tp230
a(g224
(I6
I7
tp231
tp232
a((I6
I4
tp233
(I6
I5
tp234
tp235
a(g233
(I6
I6
tp236
tp237
a(g233
(I6
I7
tp238
tp239
a((I6
I5
tp240
(I6
I6
tp241
tp242
a(g240
(I6
I7
tp243
tp244
a((I6
I6
tp245
(I6
I7
tp246
tp247
a((I7
I0
tp248
(I7
I1
tp249
tp250
a(g248
(I7
I2
tp251
tp252
a((I7
I1
tp253
(I7
I2
tp254
tp255
a((I12
I0
tp256
(I12
I1
tp257
tp258
a(g256
(I12
I2
tp259
tp260
a(g256
(I12
I3
tp261
tp262
a(g256
(I12
I4
tp263
tp264
a(g256
(I12
I5
tp265
tp266
a(g256
(I12
I6
tp267
tp268
a(g256
(I12
I7
tp269
tp270
a((I12
I1
tp271
(I12
I2
tp272
tp273
a(g271
(I12
I3
tp274
tp275
a(g271
(I12
I4
tp276
tp277
a(g271
(I12
I5
tp278
tp279
a(g271
(I12
I6
tp280
tp281
a(g271
(I12
I7
tp282
tp283
a((I12
I2
tp284
(I12
I3
tp285
tp286
a(g284
(I12
I4
tp287
tp288
a(g284
(I12
I5
tp289
tp290
a(g284
(I12
I6
tp291
tp292
a(g284
(I12
I7
tp293
tp294
a((I12
I3
tp295
(I12
I4
tp296
tp297
a(g295
(I12
I5
tp298
tp299
a(g295
(I12
I6
tp300
tp301
a(g295
(I12
I7
tp302
tp303
a((I12
I4
tp304
(I12
I5
tp305
tp306
a(g304
(I12
I6
tp307
tp308
a(g304
(I12
I7
tp309
tp310
a((I12
I5
tp311
(I12
I6
tp312
tp313
a(g311
(I12
I7
tp314
tp315
a((I12
I6
tp316
(I12
I7
tp317
tp318
a((I13
I0
tp319
(I13
I1
tp320
tp321
a(g319
(I13
I2
tp322
tp323
a((I13
I1
tp324
(I13
I2
tp325
tp326
a((I18
I0
tp327
(I18
I1
tp328
tp329
a(g327
(I18
I2
tp330
tp331
a(g327
(I18
I3
tp332
tp333
a(g327
(I18
I4
tp334
tp335
a(g327
(I18
I5
tp336
tp337
a(g327
(I18
I6
tp338
tp339
a(g327
(I18
I7
tp340
tp341
a((I18
I1
tp342
(I18
I2
tp343
tp344
a(g342
(I18
I3
tp345
tp346
a(g342
(I18
I4
tp347
tp348
a(g342
(I18
I5
tp349
tp350
a(g342
(I18
I6
tp351
tp352
a(g342
(I18
I7
tp353
tp354
a((I18
I2
tp355
(I18
I3
tp356
tp357
a(g355
(I18
I4
tp358
tp359
a(g355
(I18
I5
tp360
tp361
a(g355
(I18
I6
tp362
tp363
a(g355
(I18
I7
tp364
tp365
a((I18
I3
tp366
(I18
I4
tp367
tp368
a(g366
(I18
I5
tp369
tp370
a(g366
(I18
I6
tp371
tp372
a(g366
(I18
I7
tp373
tp374
a((I18
I4
tp375
(I18
I5
tp376
tp377
a(g375
(I18
I6
tp378
tp379
a(g375
(I18
I7
tp380
tp381
a((I18
I5
tp382
(I18
I6
tp383
tp384
a(g382
(I18
I7
tp385
tp386
a((I18
I6
tp387
(I18
I7
tp388
tp389
a((I19
I0
tp390
(I19
I1
tp391
tp392
a(g390
(I19
I2
tp393
tp394
a((I19
I1
tp395
(I19
I2
tp396
tp397
a((I24
I0
tp398
(I24
I1
tp399
tp400
a(g398
(I24
I2
tp401
tp402
a(g398
(I24
I3
tp403
tp404
a(g398
(I24
I4
tp405
tp406
a(g398
(I24
I5
tp407
tp408
a(g398
(I24
I6
tp409
tp410
a(g398
(I24
I7
tp411
tp412
a((I24
I1
tp413
(I24
I2
tp414
tp415
a(g413
(I24
I3
tp416
tp417
a(g413
(I24
I4
tp418
tp419
a(g413
(I24
I5
tp420
tp421
a(g413
(I24
I6
tp422
tp423
a(g413
(I24
I7
tp424
tp425
a((I24
I2
tp426
(I24
I3
tp427
tp428
a(g426
(I24
I4
tp429
tp430
a(g426
(I24
I5
tp431
tp432
a(g426
(I24
I6
tp433
tp434
a(g426
(I24
I7
tp435
tp436
a((I24
I3
tp437
(I24
I4
tp438
tp439
a(g437
(I24
I5
tp440
tp441
a(g437
(I24
I6
tp442
tp443
a(g437
(I24
I7
tp444
tp445
a((I24
I4
tp446
(I24
I5
tp447
tp448
a(g446
(I24
I6
tp449
tp450
a(g446
(I24
I7
tp451
tp452
a((I24
I5
tp453
(I24
I6
tp454
tp455
a(g453
(I24
I7
tp456
tp457
a((I24
I6
tp458
(I24
I7
tp459
tp460
a((I25
I0
tp461
(I25
I1
tp462
tp463
a(g461
(I25
I2
tp464
tp465
a((I25
I1
tp466
(I25
I2
tp467
tp468
a((I31
I0
tp469
(I31
I1
tp470
tp471
a(g469
(I31
I2
tp472
tp473
a((I31
I1
tp474
(I31
I2
tp475
tp476
asS'three'
p477
(lp478
sS'one'
p479
(lp480
ssS'prefix'
p481
(dp482
g120
(lp483
(I0
I0
tp484
a(I1
I0
tp485
a(I1
I1
tp486
a(I1
I2
tp487
a(I1
I3
tp488
a(I1
I4
tp489
a(I1
I5
tp490
a(I1
I6
tp491
a(I1
I7
tp492
a(I2
I0
tp493
a(I3
I0
tp494
a(I4
I1
tp495
a(I4
I3
tp496
a(I4
I5
tp497
a(I4
I7
tp498
a(I4
I9
tp499
a(I4
I11
tp500
a(I4
I13
tp501
a(I4
I15
tp502
a(I5
I2
tp503
a(I5
I5
tp504
a(I5
I8
tp505
a(I5
I11
tp506
a(I6
I0
tp507
a(I6
I1
tp508
a(I6
I2
tp509
a(I6
I3
tp510
a(I6
I4
tp511
a(I6
I5
tp512
a(I6
I6
tp513
a(I6
I7
tp514
a(I7
I0
tp515
a(I7
I1
tp516
a(I7
I2
tp517
a(I8
I0
tp518
a(I9
I0
tp519
a(I10
I1
tp520
a(I10
I3
tp521
a(I10
I5
tp522
a(I10
I7
tp523
a(I10
I9
tp524
a(I10
I11
tp525
a(I10
I13
tp526
a(I10
I15
tp527
a(I11
I2
tp528
a(I11
I5
tp529
a(I11
I8
tp530
a(I11
I11
tp531
a(I12
I0
tp532
a(I12
I1
tp533
a(I12
I2
tp534
a(I12
I3
tp535
a(I12
I4
tp536
a(I12
I5
tp537
a(I12
I6
tp538
a(I12
I7
tp539
a(I13
I0
tp540
a(I13
I1
tp541
a(I13
I2
tp542
a(I14
I0
tp543
a(I15
I0
tp544
a(I16
I1
tp545
a(I16
I3
tp546
a(I16
I5
tp547
a(I16
I7
tp548
a(I16
I9
tp549
a(I16
I11
tp550
a(I16
I13
tp551
a(I16
I15
tp552
a(I17
I2
tp553
a(I17
I5
tp554
a(I17
I8
tp555
a(I17
I11
tp556
a(I18
I0
tp557
a(I18
I1
tp558
a(I18
I2
tp559
a(I18
I3
tp560
a(I18
I4
tp561
a(I18
I5
tp562
a(I18
I6
tp563
a(I18
I7
tp564
a(I19
I0
tp565
a(I19
I1
tp566
a(I19
I2
tp567
a(I20
I0
tp568
a(I21
I0
tp569
a(I22
I1
tp570
a(I22
I3
tp571
a(I22
I5
tp572
a(I22
I7
tp573
a(I22
I9
tp574
a(I22
I11
tp575
a(I22
I13
tp576
a(I22
I15
tp577
a(I23
I2
tp578
a(I23
I5
tp579
a(I23
I8
tp580
a(I23
I11
tp581
a(I24
I0
tp582
a(I24
I1
tp583
a(I24
I2
tp584
a(I24
I3
tp585
a(I24
I4
tp586
a(I24
I5
tp587
a(I24
I6
tp588
a(I24
I7
tp589
a(I25
I0
tp590
a(I25
I1
tp591
a(I25
I2
tp592
a(I26
I0
tp593
a(I27
I0
tp594
a(I28
I0
tp595
a(I29
I1
tp596
a(I29
I3
tp597
a(I29
I5
tp598
a(I29
I7
tp599
a(I29
I9
tp600
a(I29
I11
tp601
a(I29
I13
tp602
a(I29
I15
tp603
a(I30
I2
tp604
a(I30
I5
tp605
a(I30
I8
tp606
a(I30
I11
tp607
a(I31
I0
tp608
a(I31
I1
tp609
a(I31
I2
tp610
a(I32
I0
tp611
a(I33
I0
tp612
a(I34
I0
tp613
a(I35
I0
tp614
a(I36
I2
tp615
a(I36
I5
tp616
a(I37
I2
tp617
a(I37
I5
tp618
a(I38
I2
tp619
a(I38
I5
tp620
a(I39
I2
tp621
a(I39
I5
tp622
a(I40
I2
tp623
a(I40
I5
tp624
a(I41
I2
tp625
a(I41
I5
tp626
a(I42
I2
tp627
a(I42
I5
tp628
a(I43
I2
tp629
a(I43
I5
tp630
a(I44
I2
tp631
a(I44
I5
tp632
a(I45
I2
tp633
a(I45
I5
tp634
a(I46
I0
tp635
a(I47
I0
tp636
a(I48
I0
tp637
a(I49
I0
tp638
asg477
(lp639
(I0
I0
tp640
a(I1
I2
tp641
a(I2
I0
tp642
a(I3
I0
tp643
a(I4
I5
tp644
a(I5
I17
tp645
a(I6
I2
tp646
a(I7
I2
tp647
a(I8
I0
tp648
a(I9
I0
tp649
a(I10
I5
tp650
a(I11
I17
tp651
a(I12
I2
tp652
a(I13
I2
tp653
a(I14
I0
tp654
a(I15
I0
tp655
a(I16
I5
tp656
a(I17
I17
tp657
a(I18
I2
tp658
a(I19
I2
tp659
a(I20
I0
tp660
a(I21
I0
tp661
a(I22
I5
tp662
a(I23
I17
tp663
a(I24
I2
tp664
a(I25
I2
tp665
a(I26
I0
tp666
a(I27
I0
tp667
a(I28
I0
tp668
a(I29
I5
tp669
a(I30
I17
tp670
a(I31
I2
tp671
a(I32
I0
tp672
a(I33
I0
tp673
a(I34
I2
tp674
a(I35
I2
tp675
a(I36
I17
tp676
a(I37
I17
tp677
a(I38
I17
tp678
a(I39
I17
tp679
a(I40
I17
tp680
a(I41
I17
tp681
a(I42
I17
tp682
a(I43
I17
tp683
a(I44
I17
tp684
a(I45
I17
tp685
a(I46
I0
tp686
a(I47
I2
tp687
a(I48
I0
tp688
a(I49
I0
tp689
asg479
(lp690
(I0
I0
tp691
a(I1
I0
tp692
a(I2
I0
tp693
a(I3
I0
tp694
a(I4
I1
tp695
a(I5
I5
tp696
a(I6
I0
tp697
a(I7
I0
tp698
a(I8
I0
tp699
a(I9
I0
tp700
a(I10
I1
tp701
a(I11
I5
tp702
a(I12
I0
tp703
a(I13
I0
tp704
a(I14
I0
tp705
a(I15
I0
tp706
a(I16
I1
tp707
a(I17
I5
tp708
a(I18
I0
tp709
a(I19
I0
tp710
a(I20
I0
tp711
a(I21
I0
tp712
a(I22
I1
tp713
a(I23
I5
tp714
a(I24
I0
tp715
a(I25
I0
tp716
a(I26
I0
tp717
a(I27
I0
tp718
a(I28
I0
tp719
a(I29
I1
tp720
a(I30
I5
tp721
a(I31
I0
tp722
a(I32
I0
tp723
a(I33
I0
tp724
a(I34
I0
tp725
a(I35
I0
tp726
a(I36
I5
tp727
a(I37
I5
tp728
a(I38
I5
tp729
a(I39
I5
tp730
a(I40
I5
tp731
a(I41
I5
tp732
a(I42
I5
tp733
a(I43
I5
tp734
a(I44
I5
tp735
a(I45
I5
tp736
a(I46
I0
tp737
a(I47
I0
tp738
a(I48
I0
tp739
a(I49
I0
tp740
assbsS'checksums'
p741
S'53952  1624\n'
p742
s.