(dp0
S'content'
p1
(imystruct
Struct
p2
(dp3
S'omitmicro'
p4
(lp5
(I3
I4
tp6
a(I3
I5
tp7
a(I3
I6
tp8
a(I3
I7
tp9
a(I5
I6
tp10
a(I5
I7
tp11
a(I6
I7
tp12
a(I9
I10
tp13
a(I9
I11
tp14
a(I9
I12
tp15
a(I9
I13
tp16
a(I11
I12
tp17
a(I11
I13
tp18
a(I12
I13
tp19
a(I15
I16
tp20
a(I15
I17
tp21
a(I15
I18
tp22
a(I15
I19
tp23
a(I17
I18
tp24
a(I17
I19
tp25
a(I18
I19
tp26
a(I21
I22
tp27
a(I21
I23
tp28
a(I21
I24
tp29
a(I21
I25
tp30
a(I21
I27
tp31
a(I23
I24
tp32
a(I23
I25
tp33
a(I24
I25
tp34
a(I28
I29
tp35
a(I28
I30
tp36
a(I28
I31
tp37
a(I28
I33
tp38
a(I28
I34
tp39
a(I28
I35
tp40
a(I28
I36
tp41
a(I28
I37
tp42
a(I28
I38
tp43
a(I28
I39
tp44
a(I28
I40
tp45
a(I28
I41
tp46
a(I28
I42
tp47
a(I28
I43
tp48
a(I28
I44
tp49
a(I28
I45
tp50
a(I28
I47
tp51
a(I30
I31
tp52
a(I34
I35
tp53
asS'omit_one'
p54
(dp55
S'aligned'
p56
(lp57
((I1
I0
tp58
(I1
I1
tp59
tp60
a(g58
(I1
I2
tp61
tp62
a(g58
(I1
I3
tp63
tp64
a(g58
(I1
I4
tp65
tp66
a(g58
(I1
I5
tp67
tp68
a(g58
(I1
I6
tp69
tp70
a(g58
(I1
I7
tp71
tp72
a((I1
I1
tp73
(I1
I2
tp74
tp75
a(g73
(I1
I3
tp76
tp77
a(g73
(I1
I4
tp78
tp79
a(g73
(I1
I5
tp80
tp81
a(g73
(I1
I6
tp82
tp83
a(g73
(I1
I7
tp84
tp85
a((I1
I2
tp86
(I1
I3
tp87
tp88
a(g86
(I1
I4
tp89
tp90
a(g86
(I1
I5
tp91
tp92
a(g86
(I1
I6
tp93
tp94
a(g86
(I1
I7
tp95
tp96
a((I1
I3
tp97
(I1
I4
tp98
tp99
a(g97
(I1
I5
tp100
tp101
a(g97
(I1
I6
tp102
tp103
a(g97
(I1
I7
tp104
tp105
a((I1
I4
tp106
(I1
I5
tp107
tp108
a(g106
(I1
I6
tp109
tp110
a(g106
(I1
I7
tp111
tp112
a((I1
I5
tp113
(I1
I6
tp114
tp115
a(g113
(I1
I7
tp116
tp117
a((I1
I6
tp118
(I1
I7
tp119
tp120
a((I6
I0
tp121
(I6
I1
tp122
tp123
a(g121
(I6
I2
tp124
tp125
a(g121
(I6
I3
tp126
tp127
a(g121
(I6
I4
tp128
tp129
a(g121
(I6
I5
tp130
tp131
a(g121
(I6
I6
tp132
tp133
a(g121
(I6
I7
tp134
tp135
a((I6
I1
tp136
(I6
I2
tp137
tp138
a(g136
(I6
I3
tp139
tp140
a(g136
(I6
I4
tp141
tp142
a(g136
(I6
I5
tp143
tp144
a(g136
(I6
I6
tp145
tp146
a(g136
(I6
I7
tp147
tp148
a((I6
I2
tp149
(I6
I3
tp150
tp151
a(g149
(I6
I4
tp152
tp153
a(g149
(I6
I5
tp154
tp155
a(g149
(I6
I6
tp156
tp157
a(g149
(I6
I7
tp158
tp159
a((I6
I3
tp160
(I6
I4
tp161
tp162
a(g160
(I6
I5
tp163
tp164
a(g160
(I6
I6
tp165
tp166
a(g160
(I6
I7
tp167
tp168
a((I6
I4
tp169
(I6
I5
tp170
tp171
a(g169
(I6
I6
tp172
tp173
a(g169
(I6
I7
tp174
tp175
a((I6
I5
tp176
(I6
I6
tp177
tp178
a(g176
(I6
I7
tp179
tp180
a((I6
I6
tp181
(I6
I7
tp182
tp183
a((I7
I0
tp184
(I7
I1
tp185
tp186
a(g184
(I7
I2
tp187
tp188
a((I7
I1
tp189
(I7
I2
tp190
tp191
a((I12
I0
tp192
(I12
I1
tp193
tp194
a(g192
(I12
I2
tp195
tp196
a(g192
(I12
I3
tp197
tp198
a(g192
(I12
I4
tp199
tp200
a(g192
(I12
I5
tp201
tp202
a(g192
(I12
I6
tp203
tp204
a(g192
(I12
I7
tp205
tp206
a((I12
I1
tp207
(I12
I2
tp208
tp209
a(g207
(I12
I3
tp210
tp211
a(g207
(I12
I4
tp212
tp213
a(g207
(I12
I5
tp214
tp215
a(g207
(I12
I6
tp216
tp217
a(g207
(I12
I7
tp218
tp219
a((I12
I2
tp220
(I12
I3
tp221
tp222
a(g220
(I12
I4
tp223
tp224
a(g220
(I12
I5
tp225
tp226
a(g220
(I12
I6
tp227
tp228
a(g220
(I12
I7
tp229
tp230
a((I12
I3
tp231
(I12
I4
tp232
tp233
a(g231
(I12
I5
tp234
tp235
a(g231
(I12
I6
tp236
tp237
a(g231
(I12
I7
tp238
tp239
a((I12
I4
tp240
(I12
I5
tp241
tp242
a(g240
(I12
I6
tp243
tp244
a(g240
(I12
I7
tp245
tp246
a((I12
I5
tp247
(I12
I6
tp248
tp249
a(g247
(I12
I7
tp250
tp251
a((I12
I6
tp252
(I12
I7
tp253
tp254
a((I13
I0
tp255
(I13
I1
tp256
tp257
a(g255
(I13
I2
tp258
tp259
a((I13
I1
tp260
(I13
I2
tp261
tp262
a((I18
I0
tp263
(I18
I1
tp264
tp265
a(g263
(I18
I2
tp266
tp267
a(g263
(I18
I3
tp268
tp269
a(g263
(I18
I4
tp270
tp271
a(g263
(I18
I5
tp272
tp273
a(g263
(I18
I6
tp274
tp275
a(g263
(I18
I7
tp276
tp277
a((I18
I1
tp278
(I18
I2
tp279
tp280
a(g278
(I18
I3
tp281
tp282
a(g278
(I18
I4
tp283
tp284
a(g278
(I18
I5
tp285
tp286
a(g278
(I18
I6
tp287
tp288
a(g278
(I18
I7
tp289
tp290
a((I18
I2
tp291
(I18
I3
tp292
tp293
a(g291
(I18
I4
tp294
tp295
a(g291
(I18
I5
tp296
tp297
a(g291
(I18
I6
tp298
tp299
a(g291
(I18
I7
tp300
tp301
a((I18
I3
tp302
(I18
I4
tp303
tp304
a(g302
(I18
I5
tp305
tp306
a(g302
(I18
I6
tp307
tp308
a(g302
(I18
I7
tp309
tp310
a((I18
I4
tp311
(I18
I5
tp312
tp313
a(g311
(I18
I6
tp314
tp315
a(g311
(I18
I7
tp316
tp317
a((I18
I5
tp318
(I18
I6
tp319
tp320
a(g318
(I18
I7
tp321
tp322
a((I18
I6
tp323
(I18
I7
tp324
tp325
a((I19
I0
tp326
(I19
I1
tp327
tp328
a(g326
(I19
I2
tp329
tp330
a((I19
I1
tp331
(I19
I2
tp332
tp333
a((I24
I0
tp334
(I24
I1
tp335
tp336
a(g334
(I24
I2
tp337
tp338
a(g334
(I24
I3
tp339
tp340
a(g334
(I24
I4
tp341
tp342
a(g334
(I24
I5
tp343
tp344
a(g334
(I24
I6
tp345
tp346
a(g334
(I24
I7
tp347
tp348
a((I24
I1
tp349
(I24
I2
tp350
tp351
a(g349
(I24
I3
tp352
tp353
a(g349
(I24
I4
tp354
tp355
a(g349
(I24
I5
tp356
tp357
a(g349
(I24
I6
tp358
tp359
a(g349
(I24
I7
tp360
tp361
a((I24
I2
tp362
(I24
I3
tp363
tp364
a(g362
(I24
I4
tp365
tp366
a(g362
(I24
I5
tp367
tp368
a(g362
(I24
I6
tp369
tp370
a(g362
(I24
I7
tp371
tp372
a((I24
I3
tp373
(I24
I4
tp374
tp375
a(g373
(I24
I5
tp376
tp377
a(g373
(I24
I6
tp378
tp379
a(g373
(I24
I7
tp380
tp381
a((I24
I4
tp382
(I24
I5
tp383
tp384
a(g382
(I24
I6
tp385
tp386
a(g382
(I24
I7
tp387
tp388
a((I24
I5
tp389
(I24
I6
tp390
tp391
a(g389
(I24
I7
tp392
tp393
a((I24
I6
tp394
(I24
I7
tp395
tp396
a((I25
I0
tp397
(I25
I1
tp398
tp399
a(g397
(I25
I2
tp400
tp401
a((I25
I1
tp402
(I25
I2
tp403
tp404
a((I31
I0
tp405
(I31
I1
tp406
tp407
a(g405
(I31
I2
tp408
tp409
a((I31
I1
tp410
(I31
I2
tp411
tp412
asS'three'
p413
(lp414
sS'one'
p415
(lp416
ssS'prefix'
p417
(dp418
g56
(lp419
(I0
I0
tp420
a(I1
I0
tp421
a(I1
I1
tp422
a(I1
I2
tp423
a(I1
I3
tp424
a(I1
I4
tp425
a(I1
I5
tp426
a(I1
I6
tp427
a(I1
I7
tp428
a(I2
I0
tp429
a(I3
I0
tp430
a(I4
I1
tp431
a(I4
I3
tp432
a(I4
I5
tp433
a(I4
I7
tp434
a(I4
I9
tp435
a(I4
I11
tp436
a(I4
I13
tp437
a(I4
I15
tp438
a(I5
I2
tp439
a(I5
I5
tp440
a(I5
I8
tp441
a(I5
I11
tp442
a(I6
I0
tp443
a(I6
I1
tp444
a(I6
I2
tp445
a(I6
I3
tp446
a(I6
I4
tp447
a(I6
I5
tp448
a(I6
I6
tp449
a(I6
I7
tp450
a(I7
I0
tp451
a(I7
I1
tp452
a(I7
I2
tp453
a(I8
I0
tp454
a(I9
I0
tp455
a(I10
I1
tp456
a(I10
I3
tp457
a(I10
I5
tp458
a(I10
I7
tp459
a(I10
I9
tp460
a(I10
I11
tp461
a(I10
I13
tp462
a(I10
I15
tp463
a(I11
I2
tp464
a(I11
I5
tp465
a(I11
I8
tp466
a(I11
I11
tp467
a(I12
I0
tp468
a(I12
I1
tp469
a(I12
I2
tp470
a(I12
I3
tp471
a(I12
I4
tp472
a(I12
I5
tp473
a(I12
I6
tp474
a(I12
I7
tp475
a(I13
I0
tp476
a(I13
I1
tp477
a(I13
I2
tp478
a(I14
I0
tp479
a(I15
I0
tp480
a(I16
I1
tp481
a(I16
I3
tp482
a(I16
I5
tp483
a(I16
I7
tp484
a(I16
I9
tp485
a(I16
I11
tp486
a(I16
I13
tp487
a(I16
I15
tp488
a(I17
I2
tp489
a(I17
I5
tp490
a(I17
I8
tp491
a(I17
I11
tp492
a(I18
I0
tp493
a(I18
I1
tp494
a(I18
I2
tp495
a(I18
I3
tp496
a(I18
I4
tp497
a(I18
I5
tp498
a(I18
I6
tp499
a(I18
I7
tp500
a(I19
I0
tp501
a(I19
I1
tp502
a(I19
I2
tp503
a(I20
I0
tp504
a(I21
I0
tp505
a(I22
I1
tp506
a(I22
I3
tp507
a(I22
I5
tp508
a(I22
I7
tp509
a(I22
I9
tp510
a(I22
I11
tp511
a(I22
I13
tp512
a(I22
I15
tp513
a(I23
I2
tp514
a(I23
I5
tp515
a(I23
I8
tp516
a(I23
I11
tp517
a(I24
I0
tp518
a(I24
I1
tp519
a(I24
I2
tp520
a(I24
I3
tp521
a(I24
I4
tp522
a(I24
I5
tp523
a(I24
I6
tp524
a(I24
I7
tp525
a(I25
I0
tp526
a(I25
I1
tp527
a(I25
I2
tp528
a(I26
I0
tp529
a(I27
I0
tp530
a(I28
I0
tp531
a(I29
I1
tp532
a(I29
I3
tp533
a(I29
I5
tp534
a(I29
I7
tp535
a(I29
I9
tp536
a(I29
I11
tp537
a(I29
I13
tp538
a(I29
I15
tp539
a(I30
I2
tp540
a(I30
I5
tp541
a(I30
I8
tp542
a(I30
I11
tp543
a(I31
I0
tp544
a(I31
I1
tp545
a(I31
I2
tp546
a(I32
I0
tp547
a(I33
I0
tp548
a(I34
I0
tp549
a(I35
I0
tp550
a(I36
I2
tp551
a(I36
I5
tp552
a(I37
I2
tp553
a(I37
I5
tp554
a(I38
I2
tp555
a(I38
I5
tp556
a(I39
I2
tp557
a(I39
I5
tp558
a(I40
I2
tp559
a(I40
I5
tp560
a(I41
I2
tp561
a(I41
I5
tp562
a(I42
I2
tp563
a(I42
I5
tp564
a(I43
I2
tp565
a(I43
I5
tp566
a(I44
I2
tp567
a(I44
I5
tp568
a(I45
I2
tp569
a(I45
I5
tp570
a(I46
I0
tp571
a(I47
I0
tp572
a(I48
I0
tp573
a(I49
I0
tp574
asg413
(lp575
(I0
I0
tp576
a(I1
I2
tp577
a(I2
I0
tp578
a(I3
I0
tp579
a(I4
I5
tp580
a(I5
I17
tp581
a(I6
I2
tp582
a(I7
I2
tp583
a(I8
I0
tp584
a(I9
I0
tp585
a(I10
I5
tp586
a(I11
I17
tp587
a(I12
I2
tp588
a(I13
I2
tp589
a(I14
I0
tp590
a(I15
I0
tp591
a(I16
I5
tp592
a(I17
I17
tp593
a(I18
I2
tp594
a(I19
I2
tp595
a(I20
I0
tp596
a(I21
I0
tp597
a(I22
I5
tp598
a(I23
I17
tp599
a(I24
I2
tp600
a(I25
I2
tp601
a(I26
I0
tp602
a(I27
I0
tp603
a(I28
I0
tp604
a(I29
I5
tp605
a(I30
I17
tp606
a(I31
I2
tp607
a(I32
I0
tp608
a(I33
I0
tp609
a(I34
I2
tp610
a(I35
I2
tp611
a(I36
I17
tp612
a(I37
I17
tp613
a(I38
I17
tp614
a(I39
I17
tp615
a(I40
I17
tp616
a(I41
I17
tp617
a(I42
I17
tp618
a(I43
I17
tp619
a(I44
I17
tp620
a(I45
I17
tp621
a(I46
I0
tp622
a(I47
I2
tp623
a(I48
I0
tp624
a(I49
I0
tp625
asg415
(lp626
(I0
I0
tp627
a(I1
I0
tp628
a(I2
I0
tp629
a(I3
I0
tp630
a(I4
I1
tp631
a(I5
I5
tp632
a(I6
I0
tp633
a(I7
I0
tp634
a(I8
I0
tp635
a(I9
I0
tp636
a(I10
I1
tp637
a(I11
I5
tp638
a(I12
I0
tp639
a(I13
I0
tp640
a(I14
I0
tp641
a(I15
I0
tp642
a(I16
I1
tp643
a(I17
I5
tp644
a(I18
I0
tp645
a(I19
I0
tp646
a(I20
I0
tp647
a(I21
I0
tp648
a(I22
I1
tp649
a(I23
I5
tp650
a(I24
I0
tp651
a(I25
I0
tp652
a(I26
I0
tp653
a(I27
I0
tp654
a(I28
I0
tp655
a(I29
I1
tp656
a(I30
I5
tp657
a(I31
I0
tp658
a(I32
I0
tp659
a(I33
I0
tp660
a(I34
I0
tp661
a(I35
I0
tp662
a(I36
I5
tp663
a(I37
I5
tp664
a(I38
I5
tp665
a(I39
I5
tp666
a(I40
I5
tp667
a(I41
I5
tp668
a(I42
I5
tp669
a(I43
I5
tp670
a(I44
I5
tp671
a(I45
I5
tp672
a(I46
I0
tp673
a(I47
I0
tp674
a(I48
I0
tp675
a(I49
I0
tp676
assbsS'checksums'
p677
S'53952  1624\n'
p678
s.