(dp0
S'content'
p1
(imystruct
Struct
p2
(dp3
S'omitmicro'
p4
(lp5
(I24
I25
tp6
a(I24
I26
tp7
a(I31
I32
tp8
a(I31
I33
tp9
a(I39
I40
tp10
a(I39
I41
tp11
a(I56
I57
tp12
a(I56
I58
tp13
a(I64
I65
tp14
a(I64
I66
tp15
asS'omit_one'
p16
(dp17
S'aligned'
p18
(lp19
sS'three'
p20
(lp21
sS'one'
p22
(lp23
ssS'prefix'
p24
(dp25
g18
(lp26
(I0
I0
tp27
a(I1
I2
tp28
a(I1
I5
tp29
a(I1
I8
tp30
a(I1
I11
tp31
a(I1
I14
tp32
a(I1
I17
tp33
a(I1
I20
tp34
a(I1
I23
tp35
a(I1
I26
tp36
a(I1
I29
tp37
a(I1
I32
tp38
a(I1
I35
tp39
a(I1
I38
tp40
a(I1
I41
tp41
a(I1
I44
tp42
a(I1
I47
tp43
a(I1
I50
tp44
a(I1
I53
tp45
a(I1
I56
tp46
a(I1
I59
tp47
a(I2
I2
tp48
a(I2
I5
tp49
a(I3
I2
tp50
a(I3
I5
tp51
a(I3
I8
tp52
a(I3
I11
tp53
a(I4
I2
tp54
a(I4
I5
tp55
a(I4
I8
tp56
a(I4
I11
tp57
a(I4
I14
tp58
a(I4
I17
tp59
a(I4
I20
tp60
a(I4
I23
tp61
a(I4
I26
tp62
a(I4
I29
tp63
a(I4
I32
tp64
a(I4
I35
tp65
a(I4
I38
tp66
a(I4
I41
tp67
a(I4
I44
tp68
a(I4
I47
tp69
a(I4
I50
tp70
a(I4
I53
tp71
a(I4
I56
tp72
a(I4
I59
tp73
a(I5
I2
tp74
a(I5
I5
tp75
a(I5
I8
tp76
a(I5
I11
tp77
a(I6
I2
tp78
a(I6
I5
tp79
a(I6
I8
tp80
a(I6
I11
tp81
a(I7
I2
tp82
a(I7
I5
tp83
a(I7
I8
tp84
a(I7
I11
tp85
a(I8
I0
tp86
a(I9
I0
tp87
a(I10
I0
tp88
a(I11
I2
tp89
a(I11
I5
tp90
a(I12
I2
tp91
a(I12
I5
tp92
a(I13
I2
tp93
a(I13
I5
tp94
a(I14
I2
tp95
a(I14
I5
tp96
a(I14
I8
tp97
a(I14
I11
tp98
a(I15
I2
tp99
a(I15
I5
tp100
a(I15
I8
tp101
a(I15
I11
tp102
a(I16
I2
tp103
a(I16
I5
tp104
a(I17
I0
tp105
a(I18
I0
tp106
a(I19
I0
tp107
a(I20
I2
tp108
a(I20
I5
tp109
a(I21
I0
tp110
a(I22
I7
tp111
a(I23
I3
tp112
a(I24
I22
tp113
a(I25
I0
tp114
a(I26
I0
tp115
a(I27
I2
tp116
a(I27
I5
tp117
a(I28
I2
tp118
a(I28
I5
tp119
a(I28
I8
tp120
a(I28
I11
tp121
a(I28
I14
tp122
a(I28
I17
tp123
a(I28
I20
tp124
a(I28
I23
tp125
a(I28
I26
tp126
a(I28
I29
tp127
a(I28
I32
tp128
a(I28
I35
tp129
a(I28
I38
tp130
a(I28
I41
tp131
a(I29
I2
tp132
a(I29
I5
tp133
a(I30
I2
tp134
a(I30
I5
tp135
a(I31
I2
tp136
a(I31
I5
tp137
a(I32
I0
tp138
a(I33
I0
tp139
a(I34
I2
tp140
a(I34
I5
tp141
a(I34
I8
tp142
a(I34
I11
tp143
a(I35
I2
tp144
a(I35
I5
tp145
a(I35
I8
tp146
a(I35
I11
tp147
a(I35
I14
tp148
a(I35
I17
tp149
a(I35
I20
tp150
a(I35
I23
tp151
a(I35
I26
tp152
a(I35
I29
tp153
a(I36
I2
tp154
a(I36
I5
tp155
a(I37
I2
tp156
a(I37
I5
tp157
a(I38
I2
tp158
a(I38
I5
tp159
a(I38
I8
tp160
a(I38
I11
tp161
a(I38
I14
tp162
a(I38
I17
tp163
a(I38
I20
tp164
a(I38
I23
tp165
a(I39
I2
tp166
a(I39
I5
tp167
a(I40
I0
tp168
a(I41
I0
tp169
a(I42
I0
tp170
a(I43
I2
tp171
a(I43
I5
tp172
a(I44
I2
tp173
a(I44
I5
tp174
a(I44
I8
tp175
a(I44
I11
tp176
a(I44
I14
tp177
a(I44
I17
tp178
a(I44
I20
tp179
a(I44
I23
tp180
a(I44
I26
tp181
a(I44
I29
tp182
a(I44
I32
tp183
a(I44
I35
tp184
a(I44
I38
tp185
a(I44
I41
tp186
a(I45
I0
tp187
a(I46
I2
tp188
a(I46
I5
tp189
a(I46
I8
tp190
a(I46
I11
tp191
a(I46
I14
tp192
a(I46
I17
tp193
a(I46
I20
tp194
a(I46
I23
tp195
a(I46
I26
tp196
a(I46
I29
tp197
a(I46
I32
tp198
a(I46
I35
tp199
a(I46
I38
tp200
a(I46
I41
tp201
a(I46
I44
tp202
a(I46
I47
tp203
a(I46
I50
tp204
a(I46
I53
tp205
a(I46
I56
tp206
a(I46
I59
tp207
a(I47
I2
tp208
a(I47
I5
tp209
a(I48
I2
tp210
a(I48
I5
tp211
a(I48
I8
tp212
a(I48
I11
tp213
a(I49
I2
tp214
a(I49
I5
tp215
a(I49
I8
tp216
a(I49
I11
tp217
a(I49
I14
tp218
a(I49
I17
tp219
a(I49
I20
tp220
a(I49
I23
tp221
a(I49
I26
tp222
a(I49
I29
tp223
a(I49
I32
tp224
a(I49
I35
tp225
a(I49
I38
tp226
a(I49
I41
tp227
a(I49
I44
tp228
a(I49
I47
tp229
a(I49
I50
tp230
a(I49
I53
tp231
a(I49
I56
tp232
a(I49
I59
tp233
a(I50
I2
tp234
a(I50
I5
tp235
a(I50
I8
tp236
a(I50
I11
tp237
a(I51
I2
tp238
a(I51
I5
tp239
a(I51
I8
tp240
a(I51
I11
tp241
a(I52
I2
tp242
a(I52
I5
tp243
a(I52
I8
tp244
a(I52
I11
tp245
a(I53
I0
tp246
a(I54
I2
tp247
a(I54
I5
tp248
a(I55
I2
tp249
a(I55
I5
tp250
a(I56
I2
tp251
a(I56
I5
tp252
a(I57
I0
tp253
a(I58
I0
tp254
a(I59
I2
tp255
a(I59
I5
tp256
a(I59
I8
tp257
a(I59
I11
tp258
a(I60
I2
tp259
a(I60
I5
tp260
a(I60
I8
tp261
a(I60
I11
tp262
a(I60
I14
tp263
a(I60
I17
tp264
a(I60
I20
tp265
a(I60
I23
tp266
a(I60
I26
tp267
a(I60
I29
tp268
a(I61
I2
tp269
a(I61
I5
tp270
a(I62
I2
tp271
a(I62
I5
tp272
a(I63
I2
tp273
a(I63
I5
tp274
a(I63
I8
tp275
a(I63
I11
tp276
a(I63
I14
tp277
a(I63
I17
tp278
a(I63
I20
tp279
a(I63
I23
tp280
a(I64
I2
tp281
a(I64
I5
tp282
a(I65
I0
tp283
a(I66
I0
tp284
a(I67
I2
tp285
a(I67
I5
tp286
a(I67
I8
tp287
a(I67
I11
tp288
a(I68
I2
tp289
a(I68
I5
tp290
a(I68
I8
tp291
a(I68
I11
tp292
a(I69
I2
tp293
a(I69
I5
tp294
a(I69
I8
tp295
a(I69
I11
tp296
a(I70
I0
tp297
a(I71
I0
tp298
a(I72
I22
tp299
a(I73
I0
tp300
a(I74
I0
tp301
a(I75
I2
tp302
a(I75
I5
tp303
a(I75
I8
tp304
a(I75
I11
tp305
a(I75
I14
tp306
a(I75
I17
tp307
a(I75
I20
tp308
a(I75
I23
tp309
a(I75
I26
tp310
a(I75
I29
tp311
a(I75
I32
tp312
a(I75
I35
tp313
a(I75
I38
tp314
a(I75
I41
tp315
a(I75
I44
tp316
a(I75
I47
tp317
a(I75
I50
tp318
a(I75
I53
tp319
a(I75
I56
tp320
a(I75
I59
tp321
a(I76
I2
tp322
a(I76
I5
tp323
a(I77
I2
tp324
a(I77
I5
tp325
a(I77
I8
tp326
a(I77
I11
tp327
a(I78
I2
tp328
a(I78
I5
tp329
a(I78
I8
tp330
a(I78
I11
tp331
a(I78
I14
tp332
a(I78
I17
tp333
a(I78
I20
tp334
a(I78
I23
tp335
a(I78
I26
tp336
a(I78
I29
tp337
a(I78
I32
tp338
a(I78
I35
tp339
a(I78
I38
tp340
a(I78
I41
tp341
a(I78
I44
tp342
a(I78
I47
tp343
a(I78
I50
tp344
a(I78
I53
tp345
a(I78
I56
tp346
a(I78
I59
tp347
a(I79
I2
tp348
a(I79
I5
tp349
a(I79
I8
tp350
a(I79
I11
tp351
a(I80
I2
tp352
a(I80
I5
tp353
a(I80
I8
tp354
a(I80
I11
tp355
a(I81
I2
tp356
a(I81
I5
tp357
a(I81
I8
tp358
a(I81
I11
tp359
a(I82
I0
tp360
a(I83
I2
tp361
a(I83
I5
tp362
a(I84
I2
tp363
a(I84
I5
tp364
a(I84
I8
tp365
a(I84
I11
tp366
a(I84
I14
tp367
a(I84
I17
tp368
a(I84
I20
tp369
a(I84
I23
tp370
a(I84
I26
tp371
a(I84
I29
tp372
a(I84
I32
tp373
a(I84
I35
tp374
a(I84
I38
tp375
a(I84
I41
tp376
a(I85
I2
tp377
a(I85
I5
tp378
a(I86
I2
tp379
a(I86
I5
tp380
a(I87
I2
tp381
a(I87
I5
tp382
a(I88
I0
tp383
a(I89
I2
tp384
a(I89
I5
tp385
a(I90
I2
tp386
a(I90
I5
tp387
a(I91
I2
tp388
a(I91
I5
tp389
a(I92
I0
tp390
a(I93
I0
tp391
a(I94
I0
tp392
a(I95
I0
tp393
a(I96
I22
tp394
asg20
(lp395
(I0
I0
tp396
a(I1
I17
tp397
a(I2
I17
tp398
a(I3
I17
tp399
a(I4
I17
tp400
a(I5
I17
tp401
a(I6
I17
tp402
a(I7
I17
tp403
a(I8
I0
tp404
a(I9
I0
tp405
a(I10
I0
tp406
a(I11
I17
tp407
a(I12
I17
tp408
a(I13
I17
tp409
a(I14
I17
tp410
a(I15
I17
tp411
a(I16
I17
tp412
a(I17
I0
tp413
a(I18
I0
tp414
a(I19
I0
tp415
a(I20
I17
tp416
a(I21
I0
tp417
a(I22
I9
tp418
a(I23
I3
tp419
a(I24
I3
tp420
a(I25
I0
tp421
a(I26
I0
tp422
a(I27
I17
tp423
a(I28
I17
tp424
a(I29
I17
tp425
a(I30
I17
tp426
a(I31
I17
tp427
a(I32
I0
tp428
a(I33
I0
tp429
a(I34
I17
tp430
a(I35
I17
tp431
a(I36
I17
tp432
a(I37
I17
tp433
a(I38
I17
tp434
a(I39
I17
tp435
a(I40
I0
tp436
a(I41
I0
tp437
a(I42
I0
tp438
a(I43
I17
tp439
a(I44
I17
tp440
a(I45
I0
tp441
a(I46
I17
tp442
a(I47
I17
tp443
a(I48
I17
tp444
a(I49
I17
tp445
a(I50
I17
tp446
a(I51
I17
tp447
a(I52
I17
tp448
a(I53
I0
tp449
a(I54
I17
tp450
a(I55
I17
tp451
a(I56
I17
tp452
a(I57
I0
tp453
a(I58
I0
tp454
a(I59
I17
tp455
a(I60
I17
tp456
a(I61
I17
tp457
a(I62
I17
tp458
a(I63
I17
tp459
a(I64
I17
tp460
a(I65
I0
tp461
a(I66
I0
tp462
a(I67
I17
tp463
a(I68
I17
tp464
a(I69
I17
tp465
a(I70
I0
tp466
a(I71
I0
tp467
a(I72
I3
tp468
a(I73
I0
tp469
a(I74
I0
tp470
a(I75
I17
tp471
a(I76
I17
tp472
a(I77
I17
tp473
a(I78
I17
tp474
a(I79
I17
tp475
a(I80
I17
tp476
a(I81
I17
tp477
a(I82
I0
tp478
a(I83
I17
tp479
a(I84
I17
tp480
a(I85
I17
tp481
a(I86
I17
tp482
a(I87
I17
tp483
a(I88
I0
tp484
a(I89
I17
tp485
a(I90
I17
tp486
a(I91
I17
tp487
a(I92
I0
tp488
a(I93
I0
tp489
a(I94
I0
tp490
a(I95
I0
tp491
a(I96
I3
tp492
asg22
(lp493
(I0
I0
tp494
a(I1
I5
tp495
a(I2
I5
tp496
a(I3
I5
tp497
a(I4
I5
tp498
a(I5
I5
tp499
a(I6
I5
tp500
a(I7
I5
tp501
a(I8
I0
tp502
a(I9
I0
tp503
a(I10
I0
tp504
a(I11
I5
tp505
a(I12
I5
tp506
a(I13
I5
tp507
a(I14
I5
tp508
a(I15
I5
tp509
a(I16
I5
tp510
a(I17
I0
tp511
a(I18
I0
tp512
a(I19
I0
tp513
a(I20
I5
tp514
a(I21
I0
tp515
a(I22
I7
tp516
a(I23
I1
tp517
a(I24
I1
tp518
a(I25
I0
tp519
a(I26
I0
tp520
a(I27
I5
tp521
a(I28
I5
tp522
a(I29
I5
tp523
a(I30
I5
tp524
a(I31
I5
tp525
a(I32
I0
tp526
a(I33
I0
tp527
a(I34
I5
tp528
a(I35
I5
tp529
a(I36
I5
tp530
a(I37
I5
tp531
a(I38
I5
tp532
a(I39
I5
tp533
a(I40
I0
tp534
a(I41
I0
tp535
a(I42
I0
tp536
a(I43
I5
tp537
a(I44
I5
tp538
a(I45
I0
tp539
a(I46
I5
tp540
a(I47
I5
tp541
a(I48
I5
tp542
a(I49
I5
tp543
a(I50
I5
tp544
a(I51
I5
tp545
a(I52
I5
tp546
a(I53
I0
tp547
a(I54
I5
tp548
a(I55
I5
tp549
a(I56
I5
tp550
a(I57
I0
tp551
a(I58
I0
tp552
a(I59
I5
tp553
a(I60
I5
tp554
a(I61
I5
tp555
a(I62
I5
tp556
a(I63
I5
tp557
a(I64
I5
tp558
a(I65
I0
tp559
a(I66
I0
tp560
a(I67
I5
tp561
a(I68
I5
tp562
a(I69
I5
tp563
a(I70
I0
tp564
a(I71
I0
tp565
a(I72
I1
tp566
a(I73
I0
tp567
a(I74
I0
tp568
a(I75
I5
tp569
a(I76
I5
tp570
a(I77
I5
tp571
a(I78
I5
tp572
a(I79
I5
tp573
a(I80
I5
tp574
a(I81
I5
tp575
a(I82
I0
tp576
a(I83
I5
tp577
a(I84
I5
tp578
a(I85
I5
tp579
a(I86
I5
tp580
a(I87
I5
tp581
a(I88
I0
tp582
a(I89
I5
tp583
a(I90
I5
tp584
a(I91
I5
tp585
a(I92
I0
tp586
a(I93
I0
tp587
a(I94
I0
tp588
a(I95
I0
tp589
a(I96
I1
tp590
assbsS'checksums'
p591
S'33849  2103\n'
p592
s.