(dp0
S'content'
p1
(imystruct
Struct
p2
(dp3
S'omitmicro'
p4
(lp5
(I0
I1
tp6
a(I0
I2
tp7
a(I0
I3
tp8
a(I0
I4
tp9
a(I0
I5
tp10
a(I0
I6
tp11
a(I0
I7
tp12
a(I10
I11
tp13
a(I10
I12
tp14
a(I10
I13
tp15
a(I10
I14
tp16
a(I10
I15
tp17
a(I10
I16
tp18
a(I19
I20
tp19
a(I24
I25
tp20
a(I24
I26
tp21
a(I24
I27
tp22
a(I24
I28
tp23
a(I24
I29
tp24
a(I24
I30
tp25
a(I24
I31
tp26
a(I24
I32
tp27
a(I24
I33
tp28
a(I24
I34
tp29
a(I24
I35
tp30
a(I24
I36
tp31
a(I24
I37
tp32
a(I24
I38
tp33
a(I24
I39
tp34
a(I24
I40
tp35
a(I24
I41
tp36
a(I31
I32
tp37
a(I31
I33
tp38
a(I39
I40
tp39
a(I39
I41
tp40
a(I39
I42
tp41
a(I39
I43
tp42
a(I39
I44
tp43
a(I39
I45
tp44
a(I39
I46
tp45
a(I39
I47
tp46
a(I39
I48
tp47
a(I39
I49
tp48
a(I39
I50
tp49
a(I39
I51
tp50
a(I39
I52
tp51
a(I39
I54
tp52
a(I39
I55
tp53
a(I39
I56
tp54
a(I39
I57
tp55
a(I39
I58
tp56
a(I39
I59
tp57
a(I39
I60
tp58
a(I39
I61
tp59
a(I39
I62
tp60
a(I39
I63
tp61
a(I39
I64
tp62
a(I39
I65
tp63
a(I39
I66
tp64
a(I39
I67
tp65
a(I39
I68
tp66
a(I39
I69
tp67
a(I39
I72
tp68
a(I39
I73
tp69
a(I39
I74
tp70
a(I39
I75
tp71
a(I39
I76
tp72
a(I39
I77
tp73
a(I39
I78
tp74
a(I39
I79
tp75
a(I39
I80
tp76
a(I39
I81
tp77
a(I39
I83
tp78
a(I39
I84
tp79
a(I39
I85
tp80
a(I39
I86
tp81
a(I39
I87
tp82
a(I39
I89
tp83
a(I39
I90
tp84
a(I39
I91
tp85
a(I39
I93
tp86
a(I39
I94
tp87
a(I39
I96
tp88
a(I42
I43
tp89
a(I42
I44
tp90
a(I44
I45
tp91
a(I44
I46
tp92
a(I44
I47
tp93
a(I44
I48
tp94
a(I44
I49
tp95
a(I44
I50
tp96
a(I44
I51
tp97
a(I44
I52
tp98
a(I45
I46
tp99
a(I45
I47
tp100
a(I45
I48
tp101
a(I45
I49
tp102
a(I45
I50
tp103
a(I45
I51
tp104
a(I45
I52
tp105
a(I56
I57
tp106
a(I56
I58
tp107
a(I64
I65
tp108
a(I64
I66
tp109
a(I64
I67
tp110
a(I64
I68
tp111
a(I64
I69
tp112
a(I64
I72
tp113
a(I64
I73
tp114
a(I64
I74
tp115
a(I64
I75
tp116
a(I64
I76
tp117
a(I64
I77
tp118
a(I64
I78
tp119
a(I64
I79
tp120
a(I64
I80
tp121
a(I64
I81
tp122
a(I64
I83
tp123
a(I64
I84
tp124
a(I64
I85
tp125
a(I64
I86
tp126
a(I64
I87
tp127
a(I64
I89
tp128
a(I64
I90
tp129
a(I64
I91
tp130
a(I64
I93
tp131
a(I64
I94
tp132
a(I64
I96
tp133
a(I74
I75
tp134
a(I74
I76
tp135
a(I74
I77
tp136
a(I74
I78
tp137
a(I74
I79
tp138
a(I74
I80
tp139
a(I74
I81
tp140
a(I91
I93
tp141
a(I91
I94
tp142
asS'omit_one'
p143
(dp144
S'aligned'
p145
(lp146
sS'three'
p147
(lp148
sS'one'
p149
(lp150
ssS'prefix'
p151
(dp152
g145
(lp153
(I0
I0
tp154
a(I1
I2
tp155
a(I1
I5
tp156
a(I1
I8
tp157
a(I1
I11
tp158
a(I1
I14
tp159
a(I1
I17
tp160
a(I1
I20
tp161
a(I1
I23
tp162
a(I1
I26
tp163
a(I1
I29
tp164
a(I1
I32
tp165
a(I1
I35
tp166
a(I1
I38
tp167
a(I1
I41
tp168
a(I1
I44
tp169
a(I1
I47
tp170
a(I1
I50
tp171
a(I1
I53
tp172
a(I1
I56
tp173
a(I1
I59
tp174
a(I2
I2
tp175
a(I2
I5
tp176
a(I3
I2
tp177
a(I3
I5
tp178
a(I3
I8
tp179
a(I3
I11
tp180
a(I4
I2
tp181
a(I4
I5
tp182
a(I4
I8
tp183
a(I4
I11
tp184
a(I4
I14
tp185
a(I4
I17
tp186
a(I4
I20
tp187
a(I4
I23
tp188
a(I4
I26
tp189
a(I4
I29
tp190
a(I4
I32
tp191
a(I4
I35
tp192
a(I4
I38
tp193
a(I4
I41
tp194
a(I4
I44
tp195
a(I4
I47
tp196
a(I4
I50
tp197
a(I4
I53
tp198
a(I4
I56
tp199
a(I4
I59
tp200
a(I5
I2
tp201
a(I5
I5
tp202
a(I5
I8
tp203
a(I5
I11
tp204
a(I6
I2
tp205
a(I6
I5
tp206
a(I6
I8
tp207
a(I6
I11
tp208
a(I7
I2
tp209
a(I7
I5
tp210
a(I7
I8
tp211
a(I7
I11
tp212
a(I8
I0
tp213
a(I9
I0
tp214
a(I10
I0
tp215
a(I11
I2
tp216
a(I11
I5
tp217
a(I12
I2
tp218
a(I12
I5
tp219
a(I13
I2
tp220
a(I13
I5
tp221
a(I14
I2
tp222
a(I14
I5
tp223
a(I14
I8
tp224
a(I14
I11
tp225
a(I15
I2
tp226
a(I15
I5
tp227
a(I15
I8
tp228
a(I15
I11
tp229
a(I16
I2
tp230
a(I16
I5
tp231
a(I17
I0
tp232
a(I18
I0
tp233
a(I19
I0
tp234
a(I20
I2
tp235
a(I20
I5
tp236
a(I21
I0
tp237
a(I22
I7
tp238
a(I23
I3
tp239
a(I24
I22
tp240
a(I25
I0
tp241
a(I26
I0
tp242
a(I27
I2
tp243
a(I27
I5
tp244
a(I28
I2
tp245
a(I28
I5
tp246
a(I28
I8
tp247
a(I28
I11
tp248
a(I28
I14
tp249
a(I28
I17
tp250
a(I28
I20
tp251
a(I28
I23
tp252
a(I28
I26
tp253
a(I28
I29
tp254
a(I28
I32
tp255
a(I28
I35
tp256
a(I28
I38
tp257
a(I28
I41
tp258
a(I29
I2
tp259
a(I29
I5
tp260
a(I30
I2
tp261
a(I30
I5
tp262
a(I31
I2
tp263
a(I31
I5
tp264
a(I32
I0
tp265
a(I33
I0
tp266
a(I34
I2
tp267
a(I34
I5
tp268
a(I34
I8
tp269
a(I34
I11
tp270
a(I35
I2
tp271
a(I35
I5
tp272
a(I35
I8
tp273
a(I35
I11
tp274
a(I35
I14
tp275
a(I35
I17
tp276
a(I35
I20
tp277
a(I35
I23
tp278
a(I35
I26
tp279
a(I35
I29
tp280
a(I36
I2
tp281
a(I36
I5
tp282
a(I37
I2
tp283
a(I37
I5
tp284
a(I38
I2
tp285
a(I38
I5
tp286
a(I38
I8
tp287
a(I38
I11
tp288
a(I38
I14
tp289
a(I38
I17
tp290
a(I38
I20
tp291
a(I38
I23
tp292
a(I39
I2
tp293
a(I39
I5
tp294
a(I40
I0
tp295
a(I41
I0
tp296
a(I42
I0
tp297
a(I43
I2
tp298
a(I43
I5
tp299
a(I44
I2
tp300
a(I44
I5
tp301
a(I44
I8
tp302
a(I44
I11
tp303
a(I44
I14
tp304
a(I44
I17
tp305
a(I44
I20
tp306
a(I44
I23
tp307
a(I44
I26
tp308
a(I44
I29
tp309
a(I44
I32
tp310
a(I44
I35
tp311
a(I44
I38
tp312
a(I44
I41
tp313
a(I45
I0
tp314
a(I46
I2
tp315
a(I46
I5
tp316
a(I46
I8
tp317
a(I46
I11
tp318
a(I46
I14
tp319
a(I46
I17
tp320
a(I46
I20
tp321
a(I46
I23
tp322
a(I46
I26
tp323
a(I46
I29
tp324
a(I46
I32
tp325
a(I46
I35
tp326
a(I46
I38
tp327
a(I46
I41
tp328
a(I46
I44
tp329
a(I46
I47
tp330
a(I46
I50
tp331
a(I46
I53
tp332
a(I46
I56
tp333
a(I46
I59
tp334
a(I47
I2
tp335
a(I47
I5
tp336
a(I48
I2
tp337
a(I48
I5
tp338
a(I48
I8
tp339
a(I48
I11
tp340
a(I49
I2
tp341
a(I49
I5
tp342
a(I49
I8
tp343
a(I49
I11
tp344
a(I49
I14
tp345
a(I49
I17
tp346
a(I49
I20
tp347
a(I49
I23
tp348
a(I49
I26
tp349
a(I49
I29
tp350
a(I49
I32
tp351
a(I49
I35
tp352
a(I49
I38
tp353
a(I49
I41
tp354
a(I49
I44
tp355
a(I49
I47
tp356
a(I49
I50
tp357
a(I49
I53
tp358
a(I49
I56
tp359
a(I49
I59
tp360
a(I50
I2
tp361
a(I50
I5
tp362
a(I50
I8
tp363
a(I50
I11
tp364
a(I51
I2
tp365
a(I51
I5
tp366
a(I51
I8
tp367
a(I51
I11
tp368
a(I52
I2
tp369
a(I52
I5
tp370
a(I52
I8
tp371
a(I52
I11
tp372
a(I53
I0
tp373
a(I54
I2
tp374
a(I54
I5
tp375
a(I55
I2
tp376
a(I55
I5
tp377
a(I56
I2
tp378
a(I56
I5
tp379
a(I57
I0
tp380
a(I58
I0
tp381
a(I59
I2
tp382
a(I59
I5
tp383
a(I59
I8
tp384
a(I59
I11
tp385
a(I60
I2
tp386
a(I60
I5
tp387
a(I60
I8
tp388
a(I60
I11
tp389
a(I60
I14
tp390
a(I60
I17
tp391
a(I60
I20
tp392
a(I60
I23
tp393
a(I60
I26
tp394
a(I60
I29
tp395
a(I61
I2
tp396
a(I61
I5
tp397
a(I62
I2
tp398
a(I62
I5
tp399
a(I63
I2
tp400
a(I63
I5
tp401
a(I63
I8
tp402
a(I63
I11
tp403
a(I63
I14
tp404
a(I63
I17
tp405
a(I63
I20
tp406
a(I63
I23
tp407
a(I64
I2
tp408
a(I64
I5
tp409
a(I65
I0
tp410
a(I66
I0
tp411
a(I67
I2
tp412
a(I67
I5
tp413
a(I67
I8
tp414
a(I67
I11
tp415
a(I68
I2
tp416
a(I68
I5
tp417
a(I68
I8
tp418
a(I68
I11
tp419
a(I69
I2
tp420
a(I69
I5
tp421
a(I69
I8
tp422
a(I69
I11
tp423
a(I70
I0
tp424
a(I71
I0
tp425
a(I72
I22
tp426
a(I73
I0
tp427
a(I74
I0
tp428
a(I75
I2
tp429
a(I75
I5
tp430
a(I75
I8
tp431
a(I75
I11
tp432
a(I75
I14
tp433
a(I75
I17
tp434
a(I75
I20
tp435
a(I75
I23
tp436
a(I75
I26
tp437
a(I75
I29
tp438
a(I75
I32
tp439
a(I75
I35
tp440
a(I75
I38
tp441
a(I75
I41
tp442
a(I75
I44
tp443
a(I75
I47
tp444
a(I75
I50
tp445
a(I75
I53
tp446
a(I75
I56
tp447
a(I75
I59
tp448
a(I76
I2
tp449
a(I76
I5
tp450
a(I77
I2
tp451
a(I77
I5
tp452
a(I77
I8
tp453
a(I77
I11
tp454
a(I78
I2
tp455
a(I78
I5
tp456
a(I78
I8
tp457
a(I78
I11
tp458
a(I78
I14
tp459
a(I78
I17
tp460
a(I78
I20
tp461
a(I78
I23
tp462
a(I78
I26
tp463
a(I78
I29
tp464
a(I78
I32
tp465
a(I78
I35
tp466
a(I78
I38
tp467
a(I78
I41
tp468
a(I78
I44
tp469
a(I78
I47
tp470
a(I78
I50
tp471
a(I78
I53
tp472
a(I78
I56
tp473
a(I78
I59
tp474
a(I79
I2
tp475
a(I79
I5
tp476
a(I79
I8
tp477
a(I79
I11
tp478
a(I80
I2
tp479
a(I80
I5
tp480
a(I80
I8
tp481
a(I80
I11
tp482
a(I81
I2
tp483
a(I81
I5
tp484
a(I81
I8
tp485
a(I81
I11
tp486
a(I82
I0
tp487
a(I83
I2
tp488
a(I83
I5
tp489
a(I84
I2
tp490
a(I84
I5
tp491
a(I84
I8
tp492
a(I84
I11
tp493
a(I84
I14
tp494
a(I84
I17
tp495
a(I84
I20
tp496
a(I84
I23
tp497
a(I84
I26
tp498
a(I84
I29
tp499
a(I84
I32
tp500
a(I84
I35
tp501
a(I84
I38
tp502
a(I84
I41
tp503
a(I85
I2
tp504
a(I85
I5
tp505
a(I86
I2
tp506
a(I86
I5
tp507
a(I87
I2
tp508
a(I87
I5
tp509
a(I88
I0
tp510
a(I89
I2
tp511
a(I89
I5
tp512
a(I90
I2
tp513
a(I90
I5
tp514
a(I91
I2
tp515
a(I91
I5
tp516
a(I92
I0
tp517
a(I93
I0
tp518
a(I94
I0
tp519
a(I95
I0
tp520
a(I96
I22
tp521
asg147
(lp522
(I0
I0
tp523
a(I1
I17
tp524
a(I2
I17
tp525
a(I3
I17
tp526
a(I4
I17
tp527
a(I5
I17
tp528
a(I6
I17
tp529
a(I7
I17
tp530
a(I8
I0
tp531
a(I9
I0
tp532
a(I10
I0
tp533
a(I11
I17
tp534
a(I12
I17
tp535
a(I13
I17
tp536
a(I14
I17
tp537
a(I15
I17
tp538
a(I16
I17
tp539
a(I17
I0
tp540
a(I18
I0
tp541
a(I19
I0
tp542
a(I20
I17
tp543
a(I21
I0
tp544
a(I22
I9
tp545
a(I23
I3
tp546
a(I24
I3
tp547
a(I25
I0
tp548
a(I26
I0
tp549
a(I27
I17
tp550
a(I28
I17
tp551
a(I29
I17
tp552
a(I30
I17
tp553
a(I31
I17
tp554
a(I32
I0
tp555
a(I33
I0
tp556
a(I34
I17
tp557
a(I35
I17
tp558
a(I36
I17
tp559
a(I37
I17
tp560
a(I38
I17
tp561
a(I39
I17
tp562
a(I40
I0
tp563
a(I41
I0
tp564
a(I42
I0
tp565
a(I43
I17
tp566
a(I44
I17
tp567
a(I45
I0
tp568
a(I46
I17
tp569
a(I47
I17
tp570
a(I48
I17
tp571
a(I49
I17
tp572
a(I50
I17
tp573
a(I51
I17
tp574
a(I52
I17
tp575
a(I53
I0
tp576
a(I54
I17
tp577
a(I55
I17
tp578
a(I56
I17
tp579
a(I57
I0
tp580
a(I58
I0
tp581
a(I59
I17
tp582
a(I60
I17
tp583
a(I61
I17
tp584
a(I62
I17
tp585
a(I63
I17
tp586
a(I64
I17
tp587
a(I65
I0
tp588
a(I66
I0
tp589
a(I67
I17
tp590
a(I68
I17
tp591
a(I69
I17
tp592
a(I70
I0
tp593
a(I71
I0
tp594
a(I72
I3
tp595
a(I73
I0
tp596
a(I74
I0
tp597
a(I75
I17
tp598
a(I76
I17
tp599
a(I77
I17
tp600
a(I78
I17
tp601
a(I79
I17
tp602
a(I80
I17
tp603
a(I81
I17
tp604
a(I82
I0
tp605
a(I83
I17
tp606
a(I84
I17
tp607
a(I85
I17
tp608
a(I86
I17
tp609
a(I87
I17
tp610
a(I88
I0
tp611
a(I89
I17
tp612
a(I90
I17
tp613
a(I91
I17
tp614
a(I92
I0
tp615
a(I93
I0
tp616
a(I94
I0
tp617
a(I95
I0
tp618
a(I96
I3
tp619
asg149
(lp620
(I0
I0
tp621
a(I1
I5
tp622
a(I2
I5
tp623
a(I3
I5
tp624
a(I4
I5
tp625
a(I5
I5
tp626
a(I6
I5
tp627
a(I7
I5
tp628
a(I8
I0
tp629
a(I9
I0
tp630
a(I10
I0
tp631
a(I11
I5
tp632
a(I12
I5
tp633
a(I13
I5
tp634
a(I14
I5
tp635
a(I15
I5
tp636
a(I16
I5
tp637
a(I17
I0
tp638
a(I18
I0
tp639
a(I19
I0
tp640
a(I20
I5
tp641
a(I21
I0
tp642
a(I22
I7
tp643
a(I23
I1
tp644
a(I24
I1
tp645
a(I25
I0
tp646
a(I26
I0
tp647
a(I27
I5
tp648
a(I28
I5
tp649
a(I29
I5
tp650
a(I30
I5
tp651
a(I31
I5
tp652
a(I32
I0
tp653
a(I33
I0
tp654
a(I34
I5
tp655
a(I35
I5
tp656
a(I36
I5
tp657
a(I37
I5
tp658
a(I38
I5
tp659
a(I39
I5
tp660
a(I40
I0
tp661
a(I41
I0
tp662
a(I42
I0
tp663
a(I43
I5
tp664
a(I44
I5
tp665
a(I45
I0
tp666
a(I46
I5
tp667
a(I47
I5
tp668
a(I48
I5
tp669
a(I49
I5
tp670
a(I50
I5
tp671
a(I51
I5
tp672
a(I52
I5
tp673
a(I53
I0
tp674
a(I54
I5
tp675
a(I55
I5
tp676
a(I56
I5
tp677
a(I57
I0
tp678
a(I58
I0
tp679
a(I59
I5
tp680
a(I60
I5
tp681
a(I61
I5
tp682
a(I62
I5
tp683
a(I63
I5
tp684
a(I64
I5
tp685
a(I65
I0
tp686
a(I66
I0
tp687
a(I67
I5
tp688
a(I68
I5
tp689
a(I69
I5
tp690
a(I70
I0
tp691
a(I71
I0
tp692
a(I72
I1
tp693
a(I73
I0
tp694
a(I74
I0
tp695
a(I75
I5
tp696
a(I76
I5
tp697
a(I77
I5
tp698
a(I78
I5
tp699
a(I79
I5
tp700
a(I80
I5
tp701
a(I81
I5
tp702
a(I82
I0
tp703
a(I83
I5
tp704
a(I84
I5
tp705
a(I85
I5
tp706
a(I86
I5
tp707
a(I87
I5
tp708
a(I88
I0
tp709
a(I89
I5
tp710
a(I90
I5
tp711
a(I91
I5
tp712
a(I92
I0
tp713
a(I93
I0
tp714
a(I94
I0
tp715
a(I95
I0
tp716
a(I96
I1
tp717
assbsS'checksums'
p718
S'33849  2103\n'
p719
s.