(dp0
S'content'
p1
(imystruct
Struct
p2
(dp3
S'omitmicro'
p4
(lp5
(I0
I1
tp6
a(I0
I2
tp7
a(I0
I3
tp8
a(I0
I4
tp9
a(I0
I5
tp10
a(I0
I6
tp11
a(I0
I7
tp12
a(I0
I9
tp13
a(I0
I10
tp14
a(I0
I11
tp15
a(I0
I12
tp16
a(I0
I13
tp17
a(I0
I14
tp18
a(I0
I15
tp19
a(I0
I16
tp20
a(I1
I2
tp21
a(I1
I3
tp22
a(I1
I4
tp23
a(I1
I5
tp24
a(I1
I6
tp25
a(I1
I7
tp26
a(I2
I3
tp27
a(I2
I4
tp28
a(I2
I5
tp29
a(I2
I6
tp30
a(I2
I7
tp31
a(I3
I4
tp32
a(I3
I5
tp33
a(I3
I6
tp34
a(I3
I7
tp35
a(I4
I5
tp36
a(I4
I6
tp37
a(I4
I7
tp38
a(I5
I6
tp39
a(I5
I7
tp40
a(I6
I7
tp41
a(I9
I10
tp42
a(I9
I11
tp43
a(I9
I12
tp44
a(I9
I13
tp45
a(I9
I14
tp46
a(I9
I15
tp47
a(I9
I16
tp48
a(I10
I11
tp49
a(I10
I12
tp50
a(I10
I13
tp51
a(I10
I14
tp52
a(I10
I15
tp53
a(I10
I16
tp54
a(I11
I12
tp55
a(I11
I13
tp56
a(I11
I14
tp57
a(I11
I15
tp58
a(I11
I16
tp59
a(I12
I13
tp60
a(I12
I14
tp61
a(I12
I15
tp62
a(I12
I16
tp63
a(I13
I14
tp64
a(I13
I15
tp65
a(I13
I16
tp66
a(I14
I15
tp67
a(I14
I16
tp68
a(I15
I16
tp69
a(I19
I20
tp70
a(I24
I25
tp71
a(I24
I26
tp72
a(I31
I32
tp73
a(I31
I33
tp74
a(I39
I40
tp75
a(I39
I41
tp76
a(I39
I42
tp77
a(I44
I45
tp78
a(I44
I46
tp79
a(I44
I47
tp80
a(I44
I48
tp81
a(I44
I49
tp82
a(I44
I50
tp83
a(I44
I51
tp84
a(I44
I52
tp85
a(I45
I46
tp86
a(I45
I47
tp87
a(I45
I48
tp88
a(I45
I49
tp89
a(I45
I50
tp90
a(I45
I51
tp91
a(I45
I52
tp92
a(I46
I47
tp93
a(I46
I48
tp94
a(I46
I49
tp95
a(I46
I50
tp96
a(I46
I51
tp97
a(I46
I52
tp98
a(I47
I48
tp99
a(I47
I49
tp100
a(I47
I50
tp101
a(I47
I51
tp102
a(I47
I52
tp103
a(I48
I49
tp104
a(I48
I50
tp105
a(I48
I51
tp106
a(I48
I52
tp107
a(I49
I50
tp108
a(I49
I51
tp109
a(I49
I52
tp110
a(I50
I51
tp111
a(I50
I52
tp112
a(I51
I52
tp113
a(I56
I57
tp114
a(I56
I58
tp115
a(I64
I65
tp116
a(I64
I66
tp117
a(I64
I67
tp118
a(I64
I68
tp119
a(I64
I69
tp120
a(I67
I68
tp121
a(I67
I69
tp122
a(I68
I69
tp123
a(I72
I73
tp124
a(I72
I74
tp125
a(I72
I75
tp126
a(I72
I76
tp127
a(I72
I77
tp128
a(I72
I78
tp129
a(I72
I79
tp130
a(I72
I80
tp131
a(I72
I81
tp132
a(I72
I83
tp133
a(I72
I84
tp134
a(I72
I85
tp135
a(I72
I86
tp136
a(I72
I87
tp137
a(I72
I89
tp138
a(I72
I90
tp139
a(I72
I91
tp140
a(I73
I74
tp141
a(I73
I75
tp142
a(I73
I76
tp143
a(I73
I77
tp144
a(I73
I78
tp145
a(I73
I79
tp146
a(I73
I80
tp147
a(I73
I81
tp148
a(I73
I83
tp149
a(I73
I84
tp150
a(I73
I85
tp151
a(I73
I86
tp152
a(I73
I87
tp153
a(I73
I89
tp154
a(I73
I90
tp155
a(I73
I91
tp156
a(I74
I75
tp157
a(I74
I76
tp158
a(I74
I77
tp159
a(I74
I78
tp160
a(I74
I79
tp161
a(I74
I80
tp162
a(I74
I81
tp163
a(I74
I83
tp164
a(I74
I84
tp165
a(I74
I85
tp166
a(I74
I86
tp167
a(I74
I87
tp168
a(I74
I89
tp169
a(I74
I90
tp170
a(I74
I91
tp171
a(I75
I76
tp172
a(I75
I77
tp173
a(I75
I78
tp174
a(I75
I79
tp175
a(I75
I80
tp176
a(I75
I81
tp177
a(I76
I77
tp178
a(I76
I78
tp179
a(I76
I79
tp180
a(I76
I80
tp181
a(I76
I81
tp182
a(I77
I78
tp183
a(I77
I79
tp184
a(I77
I80
tp185
a(I77
I81
tp186
a(I78
I79
tp187
a(I78
I80
tp188
a(I78
I81
tp189
a(I79
I80
tp190
a(I79
I81
tp191
a(I80
I81
tp192
a(I83
I84
tp193
a(I83
I85
tp194
a(I83
I86
tp195
a(I83
I87
tp196
a(I84
I85
tp197
a(I84
I86
tp198
a(I84
I87
tp199
a(I85
I86
tp200
a(I85
I87
tp201
a(I86
I87
tp202
a(I89
I90
tp203
a(I89
I91
tp204
a(I89
I93
tp205
a(I89
I94
tp206
a(I90
I91
tp207
a(I90
I93
tp208
a(I90
I94
tp209
a(I91
I93
tp210
a(I91
I94
tp211
asS'omit_one'
p212
(dp213
S'aligned'
p214
(lp215
((I1
I2
tp216
(I1
I3
tp217
tp218
a(g216
(I1
I4
tp219
tp220
a(g216
(I1
I5
tp221
tp222
a(g216
(I1
I6
tp223
tp224
a(g216
(I1
I7
tp225
tp226
a(g216
(I1
I8
tp227
tp228
a(g216
(I1
I9
tp229
tp230
a(g216
(I1
I10
tp231
tp232
a(g216
(I1
I11
tp233
tp234
a(g216
(I1
I12
tp235
tp236
a(g216
(I1
I13
tp237
tp238
a(g216
(I1
I14
tp239
tp240
a(g216
(I1
I15
tp241
tp242
a(g216
(I1
I16
tp243
tp244
a(g216
(I1
I17
tp245
tp246
a(g216
(I1
I18
tp247
tp248
a(g216
(I1
I19
tp249
tp250
a(g216
(I1
I20
tp251
tp252
a(g216
(I1
I21
tp253
tp254
a(g216
(I1
I22
tp255
tp256
a(g216
(I1
I23
tp257
tp258
a(g216
(I1
I24
tp259
tp260
a(g216
(I1
I25
tp261
tp262
a(g216
(I1
I26
tp263
tp264
a(g216
(I1
I27
tp265
tp266
a(g216
(I1
I28
tp267
tp268
a(g216
(I1
I29
tp269
tp270
a((I1
I5
tp271
(I1
I6
tp272
tp273
a(g271
(I1
I7
tp274
tp275
a(g271
(I1
I8
tp276
tp277
a(g271
(I1
I9
tp278
tp279
a(g271
(I1
I10
tp280
tp281
a(g271
(I1
I11
tp282
tp283
a(g271
(I1
I12
tp284
tp285
a(g271
(I1
I13
tp286
tp287
a(g271
(I1
I14
tp288
tp289
a(g271
(I1
I15
tp290
tp291
a(g271
(I1
I16
tp292
tp293
a(g271
(I1
I17
tp294
tp295
a(g271
(I1
I18
tp296
tp297
a(g271
(I1
I19
tp298
tp299
a(g271
(I1
I20
tp300
tp301
a(g271
(I1
I21
tp302
tp303
a(g271
(I1
I22
tp304
tp305
a(g271
(I1
I23
tp306
tp307
a(g271
(I1
I24
tp308
tp309
a(g271
(I1
I25
tp310
tp311
a(g271
(I1
I26
tp312
tp313
a(g271
(I1
I27
tp314
tp315
a(g271
(I1
I28
tp316
tp317
a(g271
(I1
I29
tp318
tp319
a((I1
I8
tp320
(I1
I9
tp321
tp322
a(g320
(I1
I10
tp323
tp324
a(g320
(I1
I11
tp325
tp326
a(g320
(I1
I12
tp327
tp328
a(g320
(I1
I13
tp329
tp330
a(g320
(I1
I14
tp331
tp332
a(g320
(I1
I15
tp333
tp334
a(g320
(I1
I16
tp335
tp336
a(g320
(I1
I17
tp337
tp338
a(g320
(I1
I18
tp339
tp340
a(g320
(I1
I19
tp341
tp342
a(g320
(I1
I20
tp343
tp344
a(g320
(I1
I21
tp345
tp346
a(g320
(I1
I22
tp347
tp348
a(g320
(I1
I23
tp349
tp350
a(g320
(I1
I24
tp351
tp352
a(g320
(I1
I25
tp353
tp354
a(g320
(I1
I26
tp355
tp356
a(g320
(I1
I27
tp357
tp358
a(g320
(I1
I28
tp359
tp360
a(g320
(I1
I29
tp361
tp362
a((I1
I11
tp363
(I1
I12
tp364
tp365
a(g363
(I1
I13
tp366
tp367
a(g363
(I1
I14
tp368
tp369
a(g363
(I1
I15
tp370
tp371
a(g363
(I1
I16
tp372
tp373
a(g363
(I1
I17
tp374
tp375
a(g363
(I1
I18
tp376
tp377
a(g363
(I1
I19
tp378
tp379
a(g363
(I1
I20
tp380
tp381
a(g363
(I1
I21
tp382
tp383
a(g363
(I1
I22
tp384
tp385
a(g363
(I1
I23
tp386
tp387
a(g363
(I1
I24
tp388
tp389
a(g363
(I1
I25
tp390
tp391
a(g363
(I1
I26
tp392
tp393
a(g363
(I1
I27
tp394
tp395
a(g363
(I1
I28
tp396
tp397
a(g363
(I1
I29
tp398
tp399
a((I1
I14
tp400
(I1
I15
tp401
tp402
a(g400
(I1
I16
tp403
tp404
a(g400
(I1
I17
tp405
tp406
a(g400
(I1
I18
tp407
tp408
a(g400
(I1
I19
tp409
tp410
a(g400
(I1
I20
tp411
tp412
a(g400
(I1
I21
tp413
tp414
a(g400
(I1
I22
tp415
tp416
a(g400
(I1
I23
tp417
tp418
a(g400
(I1
I24
tp419
tp420
a(g400
(I1
I25
tp421
tp422
a(g400
(I1
I26
tp423
tp424
a(g400
(I1
I27
tp425
tp426
a(g400
(I1
I28
tp427
tp428
a(g400
(I1
I29
tp429
tp430
a((I1
I17
tp431
(I1
I18
tp432
tp433
a(g431
(I1
I19
tp434
tp435
a(g431
(I1
I20
tp436
tp437
a(g431
(I1
I21
tp438
tp439
a(g431
(I1
I22
tp440
tp441
a(g431
(I1
I23
tp442
tp443
a(g431
(I1
I24
tp444
tp445
a(g431
(I1
I25
tp446
tp447
a(g431
(I1
I26
tp448
tp449
a(g431
(I1
I27
tp450
tp451
a(g431
(I1
I28
tp452
tp453
a(g431
(I1
I29
tp454
tp455
a((I1
I20
tp456
(I1
I21
tp457
tp458
a(g456
(I1
I22
tp459
tp460
a(g456
(I1
I23
tp461
tp462
a(g456
(I1
I24
tp463
tp464
a(g456
(I1
I25
tp465
tp466
a(g456
(I1
I26
tp467
tp468
a(g456
(I1
I27
tp469
tp470
a(g456
(I1
I28
tp471
tp472
a(g456
(I1
I29
tp473
tp474
a((I1
I23
tp475
(I1
I24
tp476
tp477
a(g475
(I1
I25
tp478
tp479
a(g475
(I1
I26
tp480
tp481
a(g475
(I1
I27
tp482
tp483
a(g475
(I1
I28
tp484
tp485
a(g475
(I1
I29
tp486
tp487
a((I1
I26
tp488
(I1
I27
tp489
tp490
a(g488
(I1
I28
tp491
tp492
a(g488
(I1
I29
tp493
tp494
a((I3
I2
tp495
(I3
I3
tp496
tp497
a(g495
(I3
I4
tp498
tp499
a(g495
(I3
I5
tp500
tp501
a((I4
I2
tp502
(I4
I3
tp503
tp504
a(g502
(I4
I4
tp505
tp506
a(g502
(I4
I5
tp507
tp508
a(g502
(I4
I6
tp509
tp510
a(g502
(I4
I7
tp511
tp512
a(g502
(I4
I8
tp513
tp514
a(g502
(I4
I9
tp515
tp516
a(g502
(I4
I10
tp517
tp518
a(g502
(I4
I11
tp519
tp520
a(g502
(I4
I12
tp521
tp522
a(g502
(I4
I13
tp523
tp524
a(g502
(I4
I14
tp525
tp526
a(g502
(I4
I15
tp527
tp528
a(g502
(I4
I16
tp529
tp530
a(g502
(I4
I17
tp531
tp532
a(g502
(I4
I18
tp533
tp534
a(g502
(I4
I19
tp535
tp536
a(g502
(I4
I20
tp537
tp538
a(g502
(I4
I21
tp539
tp540
a(g502
(I4
I22
tp541
tp542
a(g502
(I4
I23
tp543
tp544
a(g502
(I4
I24
tp545
tp546
a(g502
(I4
I25
tp547
tp548
a(g502
(I4
I26
tp549
tp550
a(g502
(I4
I27
tp551
tp552
a(g502
(I4
I28
tp553
tp554
a(g502
(I4
I29
tp555
tp556
a((I4
I5
tp557
(I4
I6
tp558
tp559
a(g557
(I4
I7
tp560
tp561
a(g557
(I4
I8
tp562
tp563
a(g557
(I4
I9
tp564
tp565
a(g557
(I4
I10
tp566
tp567
a(g557
(I4
I11
tp568
tp569
a(g557
(I4
I12
tp570
tp571
a(g557
(I4
I13
tp572
tp573
a(g557
(I4
I14
tp574
tp575
a(g557
(I4
I15
tp576
tp577
a(g557
(I4
I16
tp578
tp579
a(g557
(I4
I17
tp580
tp581
a(g557
(I4
I18
tp582
tp583
a(g557
(I4
I19
tp584
tp585
a(g557
(I4
I20
tp586
tp587
a(g557
(I4
I21
tp588
tp589
a(g557
(I4
I22
tp590
tp591
a(g557
(I4
I23
tp592
tp593
a(g557
(I4
I24
tp594
tp595
a(g557
(I4
I25
tp596
tp597
a(g557
(I4
I26
tp598
tp599
a(g557
(I4
I27
tp600
tp601
a(g557
(I4
I28
tp602
tp603
a(g557
(I4
I29
tp604
tp605
a((I4
I8
tp606
(I4
I9
tp607
tp608
a(g606
(I4
I10
tp609
tp610
a(g606
(I4
I11
tp611
tp612
a(g606
(I4
I12
tp613
tp614
a(g606
(I4
I13
tp615
tp616
a(g606
(I4
I14
tp617
tp618
a(g606
(I4
I15
tp619
tp620
a(g606
(I4
I16
tp621
tp622
a(g606
(I4
I17
tp623
tp624
a(g606
(I4
I18
tp625
tp626
a(g606
(I4
I19
tp627
tp628
a(g606
(I4
I20
tp629
tp630
a(g606
(I4
I21
tp631
tp632
a(g606
(I4
I22
tp633
tp634
a(g606
(I4
I23
tp635
tp636
a(g606
(I4
I24
tp637
tp638
a(g606
(I4
I25
tp639
tp640
a(g606
(I4
I26
tp641
tp642
a(g606
(I4
I27
tp643
tp644
a(g606
(I4
I28
tp645
tp646
a(g606
(I4
I29
tp647
tp648
a((I4
I11
tp649
(I4
I12
tp650
tp651
a(g649
(I4
I13
tp652
tp653
a(g649
(I4
I14
tp654
tp655
a(g649
(I4
I15
tp656
tp657
a(g649
(I4
I16
tp658
tp659
a(g649
(I4
I17
tp660
tp661
a(g649
(I4
I18
tp662
tp663
a(g649
(I4
I19
tp664
tp665
a(g649
(I4
I20
tp666
tp667
a(g649
(I4
I21
tp668
tp669
a(g649
(I4
I22
tp670
tp671
a(g649
(I4
I23
tp672
tp673
a(g649
(I4
I24
tp674
tp675
a(g649
(I4
I25
tp676
tp677
a(g649
(I4
I26
tp678
tp679
a(g649
(I4
I27
tp680
tp681
a(g649
(I4
I28
tp682
tp683
a(g649
(I4
I29
tp684
tp685
a((I4
I14
tp686
(I4
I15
tp687
tp688
a(g686
(I4
I16
tp689
tp690
a(g686
(I4
I17
tp691
tp692
a(g686
(I4
I18
tp693
tp694
a(g686
(I4
I19
tp695
tp696
a(g686
(I4
I20
tp697
tp698
a(g686
(I4
I21
tp699
tp700
a(g686
(I4
I22
tp701
tp702
a(g686
(I4
I23
tp703
tp704
a(g686
(I4
I24
tp705
tp706
a(g686
(I4
I25
tp707
tp708
a(g686
(I4
I26
tp709
tp710
a(g686
(I4
I27
tp711
tp712
a(g686
(I4
I28
tp713
tp714
a(g686
(I4
I29
tp715
tp716
a((I4
I17
tp717
(I4
I18
tp718
tp719
a(g717
(I4
I19
tp720
tp721
a(g717
(I4
I20
tp722
tp723
a(g717
(I4
I21
tp724
tp725
a(g717
(I4
I22
tp726
tp727
a(g717
(I4
I23
tp728
tp729
a(g717
(I4
I24
tp730
tp731
a(g717
(I4
I25
tp732
tp733
a(g717
(I4
I26
tp734
tp735
a(g717
(I4
I27
tp736
tp737
a(g717
(I4
I28
tp738
tp739
a(g717
(I4
I29
tp740
tp741
a((I4
I20
tp742
(I4
I21
tp743
tp744
a(g742
(I4
I22
tp745
tp746
a(g742
(I4
I23
tp747
tp748
a(g742
(I4
I24
tp749
tp750
a(g742
(I4
I25
tp751
tp752
a(g742
(I4
I26
tp753
tp754
a(g742
(I4
I27
tp755
tp756
a(g742
(I4
I28
tp757
tp758
a(g742
(I4
I29
tp759
tp760
a((I4
I23
tp761
(I4
I24
tp762
tp763
a(g761
(I4
I25
tp764
tp765
a(g761
(I4
I26
tp766
tp767
a(g761
(I4
I27
tp768
tp769
a(g761
(I4
I28
tp770
tp771
a(g761
(I4
I29
tp772
tp773
a((I4
I26
tp774
(I4
I27
tp775
tp776
a(g774
(I4
I28
tp777
tp778
a(g774
(I4
I29
tp779
tp780
a((I5
I2
tp781
(I5
I3
tp782
tp783
a(g781
(I5
I4
tp784
tp785
a(g781
(I5
I5
tp786
tp787
a((I6
I2
tp788
(I6
I3
tp789
tp790
a(g788
(I6
I4
tp791
tp792
a(g788
(I6
I5
tp793
tp794
a((I7
I2
tp795
(I7
I3
tp796
tp797
a(g795
(I7
I4
tp798
tp799
a(g795
(I7
I5
tp800
tp801
a((I14
I2
tp802
(I14
I3
tp803
tp804
a(g802
(I14
I4
tp805
tp806
a(g802
(I14
I5
tp807
tp808
a((I15
I2
tp809
(I15
I3
tp810
tp811
a(g809
(I15
I4
tp812
tp813
a(g809
(I15
I5
tp814
tp815
a((I22
I0
tp816
(I22
I1
tp817
tp818
a(g816
(I22
I2
tp819
tp820
a(g816
(I22
I3
tp821
tp822
a((I22
I1
tp823
(I22
I2
tp824
tp825
a(g823
(I22
I3
tp826
tp827
a((I22
I2
tp828
(I22
I3
tp829
tp830
a((I23
I0
tp831
(I23
I1
tp832
tp833
a(g831
(I23
I2
tp834
tp835
a(g831
(I23
I3
tp836
tp837
a((I23
I1
tp838
(I23
I2
tp839
tp840
a(g838
(I23
I3
tp841
tp842
a((I23
I2
tp843
(I23
I3
tp844
tp845
a((I24
I0
tp846
(I24
I1
tp847
tp848
a(g846
(I24
I2
tp849
tp850
a(g846
(I24
I3
tp851
tp852
a(g846
(I24
I4
tp853
tp854
a(g846
(I24
I5
tp855
tp856
a(g846
(I24
I6
tp857
tp858
a(g846
(I24
I7
tp859
tp860
a(g846
(I24
I8
tp861
tp862
a(g846
(I24
I9
tp863
tp864
a(g846
(I24
I10
tp865
tp866
a(g846
(I24
I11
tp867
tp868
a(g846
(I24
I12
tp869
tp870
a(g846
(I24
I13
tp871
tp872
a(g846
(I24
I14
tp873
tp874
a(g846
(I24
I15
tp875
tp876
a(g846
(I24
I16
tp877
tp878
a(g846
(I24
I17
tp879
tp880
a(g846
(I24
I18
tp881
tp882
a(g846
(I24
I19
tp883
tp884
a(g846
(I24
I20
tp885
tp886
a(g846
(I24
I21
tp887
tp888
a(g846
(I24
I22
tp889
tp890
a((I24
I1
tp891
(I24
I2
tp892
tp893
a(g891
(I24
I3
tp894
tp895
a(g891
(I24
I4
tp896
tp897
a(g891
(I24
I5
tp898
tp899
a(g891
(I24
I6
tp900
tp901
a(g891
(I24
I7
tp902
tp903
a(g891
(I24
I8
tp904
tp905
a(g891
(I24
I9
tp906
tp907
a(g891
(I24
I10
tp908
tp909
a(g891
(I24
I11
tp910
tp911
a(g891
(I24
I12
tp912
tp913
a(g891
(I24
I13
tp914
tp915
a(g891
(I24
I14
tp916
tp917
a(g891
(I24
I15
tp918
tp919
a(g891
(I24
I16
tp920
tp921
a(g891
(I24
I17
tp922
tp923
a(g891
(I24
I18
tp924
tp925
a(g891
(I24
I19
tp926
tp927
a(g891
(I24
I20
tp928
tp929
a(g891
(I24
I21
tp930
tp931
a(g891
(I24
I22
tp932
tp933
a((I24
I2
tp934
(I24
I3
tp935
tp936
a(g934
(I24
I4
tp937
tp938
a(g934
(I24
I5
tp939
tp940
a(g934
(I24
I6
tp941
tp942
a(g934
(I24
I7
tp943
tp944
a(g934
(I24
I8
tp945
tp946
a(g934
(I24
I9
tp947
tp948
a(g934
(I24
I10
tp949
tp950
a(g934
(I24
I11
tp951
tp952
a(g934
(I24
I12
tp953
tp954
a(g934
(I24
I13
tp955
tp956
a(g934
(I24
I14
tp957
tp958
a(g934
(I24
I15
tp959
tp960
a(g934
(I24
I16
tp961
tp962
a(g934
(I24
I17
tp963
tp964
a(g934
(I24
I18
tp965
tp966
a(g934
(I24
I19
tp967
tp968
a(g934
(I24
I20
tp969
tp970
a(g934
(I24
I21
tp971
tp972
a(g934
(I24
I22
tp973
tp974
a((I24
I3
tp975
(I24
I4
tp976
tp977
a(g975
(I24
I5
tp978
tp979
a(g975
(I24
I6
tp980
tp981
a(g975
(I24
I7
tp982
tp983
a(g975
(I24
I8
tp984
tp985
a(g975
(I24
I9
tp986
tp987
a(g975
(I24
I10
tp988
tp989
a(g975
(I24
I11
tp990
tp991
a(g975
(I24
I12
tp992
tp993
a(g975
(I24
I13
tp994
tp995
a(g975
(I24
I14
tp996
tp997
a(g975
(I24
I15
tp998
tp999
a(g975
(I24
I16
tp1000
tp1001
a(g975
(I24
I17
tp1002
tp1003
a(g975
(I24
I18
tp1004
tp1005
a(g975
(I24
I19
tp1006
tp1007
a(g975
(I24
I20
tp1008
tp1009
a(g975
(I24
I21
tp1010
tp1011
a(g975
(I24
I22
tp1012
tp1013
a((I24
I4
tp1014
(I24
I5
tp1015
tp1016
a(g1014
(I24
I6
tp1017
tp1018
a(g1014
(I24
I7
tp1019
tp1020
a(g1014
(I24
I8
tp1021
tp1022
a(g1014
(I24
I9
tp1023
tp1024
a(g1014
(I24
I10
tp1025
tp1026
a(g1014
(I24
I11
tp1027
tp1028
a(g1014
(I24
I12
tp1029
tp1030
a(g1014
(I24
I13
tp1031
tp1032
a(g1014
(I24
I14
tp1033
tp1034
a(g1014
(I24
I15
tp1035
tp1036
a(g1014
(I24
I16
tp1037
tp1038
a(g1014
(I24
I17
tp1039
tp1040
a(g1014
(I24
I18
tp1041
tp1042
a(g1014
(I24
I19
tp1043
tp1044
a(g1014
(I24
I20
tp1045
tp1046
a(g1014
(I24
I21
tp1047
tp1048
a(g1014
(I24
I22
tp1049
tp1050
a((I24
I5
tp1051
(I24
I6
tp1052
tp1053
a(g1051
(I24
I7
tp1054
tp1055
a(g1051
(I24
I8
tp1056
tp1057
a(g1051
(I24
I9
tp1058
tp1059
a(g1051
(I24
I10
tp1060
tp1061
a(g1051
(I24
I11
tp1062
tp1063
a(g1051
(I24
I12
tp1064
tp1065
a(g1051
(I24
I13
tp1066
tp1067
a(g1051
(I24
I14
tp1068
tp1069
a(g1051
(I24
I15
tp1070
tp1071
a(g1051
(I24
I16
tp1072
tp1073
a(g1051
(I24
I17
tp1074
tp1075
a(g1051
(I24
I18
tp1076
tp1077
a(g1051
(I24
I19
tp1078
tp1079
a(g1051
(I24
I20
tp1080
tp1081
a(g1051
(I24
I21
tp1082
tp1083
a(g1051
(I24
I22
tp1084
tp1085
a((I24
I6
tp1086
(I24
I7
tp1087
tp1088
a(g1086
(I24
I8
tp1089
tp1090
a(g1086
(I24
I9
tp1091
tp1092
a(g1086
(I24
I10
tp1093
tp1094
a(g1086
(I24
I11
tp1095
tp1096
a(g1086
(I24
I12
tp1097
tp1098
a(g1086
(I24
I13
tp1099
tp1100
a(g1086
(I24
I14
tp1101
tp1102
a(g1086
(I24
I15
tp1103
tp1104
a(g1086
(I24
I16
tp1105
tp1106
a(g1086
(I24
I17
tp1107
tp1108
a(g1086
(I24
I18
tp1109
tp1110
a(g1086
(I24
I19
tp1111
tp1112
a(g1086
(I24
I20
tp1113
tp1114
a(g1086
(I24
I21
tp1115
tp1116
a(g1086
(I24
I22
tp1117
tp1118
a((I24
I7
tp1119
(I24
I8
tp1120
tp1121
a(g1119
(I24
I9
tp1122
tp1123
a(g1119
(I24
I10
tp1124
tp1125
a(g1119
(I24
I11
tp1126
tp1127
a(g1119
(I24
I12
tp1128
tp1129
a(g1119
(I24
I13
tp1130
tp1131
a(g1119
(I24
I14
tp1132
tp1133
a(g1119
(I24
I15
tp1134
tp1135
a(g1119
(I24
I16
tp1136
tp1137
a(g1119
(I24
I17
tp1138
tp1139
a(g1119
(I24
I18
tp1140
tp1141
a(g1119
(I24
I19
tp1142
tp1143
a(g1119
(I24
I20
tp1144
tp1145
a(g1119
(I24
I21
tp1146
tp1147
a(g1119
(I24
I22
tp1148
tp1149
a((I24
I8
tp1150
(I24
I9
tp1151
tp1152
a(g1150
(I24
I10
tp1153
tp1154
a(g1150
(I24
I11
tp1155
tp1156
a(g1150
(I24
I12
tp1157
tp1158
a(g1150
(I24
I13
tp1159
tp1160
a(g1150
(I24
I14
tp1161
tp1162
a(g1150
(I24
I15
tp1163
tp1164
a(g1150
(I24
I16
tp1165
tp1166
a(g1150
(I24
I17
tp1167
tp1168
a(g1150
(I24
I18
tp1169
tp1170
a(g1150
(I24
I19
tp1171
tp1172
a(g1150
(I24
I20
tp1173
tp1174
a(g1150
(I24
I21
tp1175
tp1176
a(g1150
(I24
I22
tp1177
tp1178
a((I24
I9
tp1179
(I24
I10
tp1180
tp1181
a(g1179
(I24
I11
tp1182
tp1183
a(g1179
(I24
I12
tp1184
tp1185
a(g1179
(I24
I13
tp1186
tp1187
a(g1179
(I24
I14
tp1188
tp1189
a(g1179
(I24
I15
tp1190
tp1191
a(g1179
(I24
I16
tp1192
tp1193
a(g1179
(I24
I17
tp1194
tp1195
a(g1179
(I24
I18
tp1196
tp1197
a(g1179
(I24
I19
tp1198
tp1199
a(g1179
(I24
I20
tp1200
tp1201
a(g1179
(I24
I21
tp1202
tp1203
a(g1179
(I24
I22
tp1204
tp1205
a((I24
I10
tp1206
(I24
I11
tp1207
tp1208
a(g1206
(I24
I12
tp1209
tp1210
a(g1206
(I24
I13
tp1211
tp1212
a(g1206
(I24
I14
tp1213
tp1214
a(g1206
(I24
I15
tp1215
tp1216
a(g1206
(I24
I16
tp1217
tp1218
a(g1206
(I24
I17
tp1219
tp1220
a(g1206
(I24
I18
tp1221
tp1222
a(g1206
(I24
I19
tp1223
tp1224
a(g1206
(I24
I20
tp1225
tp1226
a(g1206
(I24
I21
tp1227
tp1228
a(g1206
(I24
I22
tp1229
tp1230
a((I24
I11
tp1231
(I24
I12
tp1232
tp1233
a(g1231
(I24
I13
tp1234
tp1235
a(g1231
(I24
I14
tp1236
tp1237
a(g1231
(I24
I15
tp1238
tp1239
a(g1231
(I24
I16
tp1240
tp1241
a(g1231
(I24
I17
tp1242
tp1243
a(g1231
(I24
I18
tp1244
tp1245
a(g1231
(I24
I19
tp1246
tp1247
a(g1231
(I24
I20
tp1248
tp1249
a(g1231
(I24
I21
tp1250
tp1251
a(g1231
(I24
I22
tp1252
tp1253
a((I24
I12
tp1254
(I24
I13
tp1255
tp1256
a(g1254
(I24
I14
tp1257
tp1258
a(g1254
(I24
I15
tp1259
tp1260
a(g1254
(I24
I16
tp1261
tp1262
a(g1254
(I24
I17
tp1263
tp1264
a(g1254
(I24
I18
tp1265
tp1266
a(g1254
(I24
I19
tp1267
tp1268
a(g1254
(I24
I20
tp1269
tp1270
a(g1254
(I24
I21
tp1271
tp1272
a(g1254
(I24
I22
tp1273
tp1274
a((I24
I13
tp1275
(I24
I14
tp1276
tp1277
a(g1275
(I24
I15
tp1278
tp1279
a(g1275
(I24
I16
tp1280
tp1281
a(g1275
(I24
I17
tp1282
tp1283
a(g1275
(I24
I18
tp1284
tp1285
a(g1275
(I24
I19
tp1286
tp1287
a(g1275
(I24
I20
tp1288
tp1289
a(g1275
(I24
I21
tp1290
tp1291
a(g1275
(I24
I22
tp1292
tp1293
a((I24
I14
tp1294
(I24
I15
tp1295
tp1296
a(g1294
(I24
I16
tp1297
tp1298
a(g1294
(I24
I17
tp1299
tp1300
a(g1294
(I24
I18
tp1301
tp1302
a(g1294
(I24
I19
tp1303
tp1304
a(g1294
(I24
I20
tp1305
tp1306
a(g1294
(I24
I21
tp1307
tp1308
a(g1294
(I24
I22
tp1309
tp1310
a((I24
I15
tp1311
(I24
I16
tp1312
tp1313
a(g1311
(I24
I17
tp1314
tp1315
a(g1311
(I24
I18
tp1316
tp1317
a(g1311
(I24
I19
tp1318
tp1319
a(g1311
(I24
I20
tp1320
tp1321
a(g1311
(I24
I21
tp1322
tp1323
a(g1311
(I24
I22
tp1324
tp1325
a((I24
I16
tp1326
(I24
I17
tp1327
tp1328
a(g1326
(I24
I18
tp1329
tp1330
a(g1326
(I24
I19
tp1331
tp1332
a(g1326
(I24
I20
tp1333
tp1334
a(g1326
(I24
I21
tp1335
tp1336
a(g1326
(I24
I22
tp1337
tp1338
a((I24
I17
tp1339
(I24
I18
tp1340
tp1341
a(g1339
(I24
I19
tp1342
tp1343
a(g1339
(I24
I20
tp1344
tp1345
a(g1339
(I24
I21
tp1346
tp1347
a(g1339
(I24
I22
tp1348
tp1349
a((I24
I18
tp1350
(I24
I19
tp1351
tp1352
a(g1350
(I24
I20
tp1353
tp1354
a(g1350
(I24
I21
tp1355
tp1356
a(g1350
(I24
I22
tp1357
tp1358
a((I24
I19
tp1359
(I24
I20
tp1360
tp1361
a(g1359
(I24
I21
tp1362
tp1363
a(g1359
(I24
I22
tp1364
tp1365
a((I24
I20
tp1366
(I24
I21
tp1367
tp1368
a(g1366
(I24
I22
tp1369
tp1370
a((I24
I21
tp1371
(I24
I22
tp1372
tp1373
a((I28
I2
tp1374
(I28
I3
tp1375
tp1376
a(g1374
(I28
I4
tp1377
tp1378
a(g1374
(I28
I5
tp1379
tp1380
a(g1374
(I28
I6
tp1381
tp1382
a(g1374
(I28
I7
tp1383
tp1384
a(g1374
(I28
I8
tp1385
tp1386
a(g1374
(I28
I9
tp1387
tp1388
a(g1374
(I28
I10
tp1389
tp1390
a(g1374
(I28
I11
tp1391
tp1392
a(g1374
(I28
I12
tp1393
tp1394
a(g1374
(I28
I13
tp1395
tp1396
a(g1374
(I28
I14
tp1397
tp1398
a(g1374
(I28
I15
tp1399
tp1400
a(g1374
(I28
I16
tp1401
tp1402
a(g1374
(I28
I17
tp1403
tp1404
a(g1374
(I28
I18
tp1405
tp1406
a(g1374
(I28
I19
tp1407
tp1408
a(g1374
(I28
I20
tp1409
tp1410
a((I28
I5
tp1411
(I28
I6
tp1412
tp1413
a(g1411
(I28
I7
tp1414
tp1415
a(g1411
(I28
I8
tp1416
tp1417
a(g1411
(I28
I9
tp1418
tp1419
a(g1411
(I28
I10
tp1420
tp1421
a(g1411
(I28
I11
tp1422
tp1423
a(g1411
(I28
I12
tp1424
tp1425
a(g1411
(I28
I13
tp1426
tp1427
a(g1411
(I28
I14
tp1428
tp1429
a(g1411
(I28
I15
tp1430
tp1431
a(g1411
(I28
I16
tp1432
tp1433
a(g1411
(I28
I17
tp1434
tp1435
a(g1411
(I28
I18
tp1436
tp1437
a(g1411
(I28
I19
tp1438
tp1439
a(g1411
(I28
I20
tp1440
tp1441
a((I28
I8
tp1442
(I28
I9
tp1443
tp1444
a(g1442
(I28
I10
tp1445
tp1446
a(g1442
(I28
I11
tp1447
tp1448
a(g1442
(I28
I12
tp1449
tp1450
a(g1442
(I28
I13
tp1451
tp1452
a(g1442
(I28
I14
tp1453
tp1454
a(g1442
(I28
I15
tp1455
tp1456
a(g1442
(I28
I16
tp1457
tp1458
a(g1442
(I28
I17
tp1459
tp1460
a(g1442
(I28
I18
tp1461
tp1462
a(g1442
(I28
I19
tp1463
tp1464
a(g1442
(I28
I20
tp1465
tp1466
a((I28
I11
tp1467
(I28
I12
tp1468
tp1469
a(g1467
(I28
I13
tp1470
tp1471
a(g1467
(I28
I14
tp1472
tp1473
a(g1467
(I28
I15
tp1474
tp1475
a(g1467
(I28
I16
tp1476
tp1477
a(g1467
(I28
I17
tp1478
tp1479
a(g1467
(I28
I18
tp1480
tp1481
a(g1467
(I28
I19
tp1482
tp1483
a(g1467
(I28
I20
tp1484
tp1485
a((I28
I14
tp1486
(I28
I15
tp1487
tp1488
a(g1486
(I28
I16
tp1489
tp1490
a(g1486
(I28
I17
tp1491
tp1492
a(g1486
(I28
I18
tp1493
tp1494
a(g1486
(I28
I19
tp1495
tp1496
a(g1486
(I28
I20
tp1497
tp1498
a((I28
I17
tp1499
(I28
I18
tp1500
tp1501
a(g1499
(I28
I19
tp1502
tp1503
a(g1499
(I28
I20
tp1504
tp1505
a((I34
I2
tp1506
(I34
I3
tp1507
tp1508
a(g1506
(I34
I4
tp1509
tp1510
a(g1506
(I34
I5
tp1511
tp1512
a((I35
I2
tp1513
(I35
I3
tp1514
tp1515
a(g1513
(I35
I4
tp1516
tp1517
a(g1513
(I35
I5
tp1518
tp1519
a(g1513
(I35
I6
tp1520
tp1521
a(g1513
(I35
I7
tp1522
tp1523
a(g1513
(I35
I8
tp1524
tp1525
a(g1513
(I35
I9
tp1526
tp1527
a(g1513
(I35
I10
tp1528
tp1529
a(g1513
(I35
I11
tp1530
tp1531
a(g1513
(I35
I12
tp1532
tp1533
a(g1513
(I35
I13
tp1534
tp1535
a(g1513
(I35
I14
tp1536
tp1537
a((I35
I5
tp1538
(I35
I6
tp1539
tp1540
a(g1538
(I35
I7
tp1541
tp1542
a(g1538
(I35
I8
tp1543
tp1544
a(g1538
(I35
I9
tp1545
tp1546
a(g1538
(I35
I10
tp1547
tp1548
a(g1538
(I35
I11
tp1549
tp1550
a(g1538
(I35
I12
tp1551
tp1552
a(g1538
(I35
I13
tp1553
tp1554
a(g1538
(I35
I14
tp1555
tp1556
a((I35
I8
tp1557
(I35
I9
tp1558
tp1559
a(g1557
(I35
I10
tp1560
tp1561
a(g1557
(I35
I11
tp1562
tp1563
a(g1557
(I35
I12
tp1564
tp1565
a(g1557
(I35
I13
tp1566
tp1567
a(g1557
(I35
I14
tp1568
tp1569
a((I35
I11
tp1570
(I35
I12
tp1571
tp1572
a(g1570
(I35
I13
tp1573
tp1574
a(g1570
(I35
I14
tp1575
tp1576
a((I38
I2
tp1577
(I38
I3
tp1578
tp1579
a(g1577
(I38
I4
tp1580
tp1581
a(g1577
(I38
I5
tp1582
tp1583
a(g1577
(I38
I6
tp1584
tp1585
a(g1577
(I38
I7
tp1586
tp1587
a(g1577
(I38
I8
tp1588
tp1589
a(g1577
(I38
I9
tp1590
tp1591
a(g1577
(I38
I10
tp1592
tp1593
a(g1577
(I38
I11
tp1594
tp1595
a((I38
I5
tp1596
(I38
I6
tp1597
tp1598
a(g1596
(I38
I7
tp1599
tp1600
a(g1596
(I38
I8
tp1601
tp1602
a(g1596
(I38
I9
tp1603
tp1604
a(g1596
(I38
I10
tp1605
tp1606
a(g1596
(I38
I11
tp1607
tp1608
a((I38
I8
tp1609
(I38
I9
tp1610
tp1611
a(g1609
(I38
I10
tp1612
tp1613
a(g1609
(I38
I11
tp1614
tp1615
a((I44
I2
tp1616
(I44
I3
tp1617
tp1618
a(g1616
(I44
I4
tp1619
tp1620
a(g1616
(I44
I5
tp1621
tp1622
a(g1616
(I44
I6
tp1623
tp1624
a(g1616
(I44
I7
tp1625
tp1626
a(g1616
(I44
I8
tp1627
tp1628
a(g1616
(I44
I9
tp1629
tp1630
a(g1616
(I44
I10
tp1631
tp1632
a(g1616
(I44
I11
tp1633
tp1634
a(g1616
(I44
I12
tp1635
tp1636
a(g1616
(I44
I13
tp1637
tp1638
a(g1616
(I44
I14
tp1639
tp1640
a(g1616
(I44
I15
tp1641
tp1642
a(g1616
(I44
I16
tp1643
tp1644
a(g1616
(I44
I17
tp1645
tp1646
a(g1616
(I44
I18
tp1647
tp1648
a(g1616
(I44
I19
tp1649
tp1650
a(g1616
(I44
I20
tp1651
tp1652
a((I44
I5
tp1653
(I44
I6
tp1654
tp1655
a(g1653
(I44
I7
tp1656
tp1657
a(g1653
(I44
I8
tp1658
tp1659
a(g1653
(I44
I9
tp1660
tp1661
a(g1653
(I44
I10
tp1662
tp1663
a(g1653
(I44
I11
tp1664
tp1665
a(g1653
(I44
I12
tp1666
tp1667
a(g1653
(I44
I13
tp1668
tp1669
a(g1653
(I44
I14
tp1670
tp1671
a(g1653
(I44
I15
tp1672
tp1673
a(g1653
(I44
I16
tp1674
tp1675
a(g1653
(I44
I17
tp1676
tp1677
a(g1653
(I44
I18
tp1678
tp1679
a(g1653
(I44
I19
tp1680
tp1681
a(g1653
(I44
I20
tp1682
tp1683
a((I44
I8
tp1684
(I44
I9
tp1685
tp1686
a(g1684
(I44
I10
tp1687
tp1688
a(g1684
(I44
I11
tp1689
tp1690
a(g1684
(I44
I12
tp1691
tp1692
a(g1684
(I44
I13
tp1693
tp1694
a(g1684
(I44
I14
tp1695
tp1696
a(g1684
(I44
I15
tp1697
tp1698
a(g1684
(I44
I16
tp1699
tp1700
a(g1684
(I44
I17
tp1701
tp1702
a(g1684
(I44
I18
tp1703
tp1704
a(g1684
(I44
I19
tp1705
tp1706
a(g1684
(I44
I20
tp1707
tp1708
a((I44
I11
tp1709
(I44
I12
tp1710
tp1711
a(g1709
(I44
I13
tp1712
tp1713
a(g1709
(I44
I14
tp1714
tp1715
a(g1709
(I44
I15
tp1716
tp1717
a(g1709
(I44
I16
tp1718
tp1719
a(g1709
(I44
I17
tp1720
tp1721
a(g1709
(I44
I18
tp1722
tp1723
a(g1709
(I44
I19
tp1724
tp1725
a(g1709
(I44
I20
tp1726
tp1727
a((I44
I14
tp1728
(I44
I15
tp1729
tp1730
a(g1728
(I44
I16
tp1731
tp1732
a(g1728
(I44
I17
tp1733
tp1734
a(g1728
(I44
I18
tp1735
tp1736
a(g1728
(I44
I19
tp1737
tp1738
a(g1728
(I44
I20
tp1739
tp1740
a((I44
I17
tp1741
(I44
I18
tp1742
tp1743
a(g1741
(I44
I19
tp1744
tp1745
a(g1741
(I44
I20
tp1746
tp1747
a((I46
I2
tp1748
(I46
I3
tp1749
tp1750
a(g1748
(I46
I4
tp1751
tp1752
a(g1748
(I46
I5
tp1753
tp1754
a(g1748
(I46
I6
tp1755
tp1756
a(g1748
(I46
I7
tp1757
tp1758
a(g1748
(I46
I8
tp1759
tp1760
a(g1748
(I46
I9
tp1761
tp1762
a(g1748
(I46
I10
tp1763
tp1764
a(g1748
(I46
I11
tp1765
tp1766
a(g1748
(I46
I12
tp1767
tp1768
a(g1748
(I46
I13
tp1769
tp1770
a(g1748
(I46
I14
tp1771
tp1772
a(g1748
(I46
I15
tp1773
tp1774
a(g1748
(I46
I16
tp1775
tp1776
a(g1748
(I46
I17
tp1777
tp1778
a(g1748
(I46
I18
tp1779
tp1780
a(g1748
(I46
I19
tp1781
tp1782
a(g1748
(I46
I20
tp1783
tp1784
a(g1748
(I46
I21
tp1785
tp1786
a(g1748
(I46
I22
tp1787
tp1788
a(g1748
(I46
I23
tp1789
tp1790
a(g1748
(I46
I24
tp1791
tp1792
a(g1748
(I46
I25
tp1793
tp1794
a(g1748
(I46
I26
tp1795
tp1796
a(g1748
(I46
I27
tp1797
tp1798
a(g1748
(I46
I28
tp1799
tp1800
a(g1748
(I46
I29
tp1801
tp1802
a((I46
I5
tp1803
(I46
I6
tp1804
tp1805
a(g1803
(I46
I7
tp1806
tp1807
a(g1803
(I46
I8
tp1808
tp1809
a(g1803
(I46
I9
tp1810
tp1811
a(g1803
(I46
I10
tp1812
tp1813
a(g1803
(I46
I11
tp1814
tp1815
a(g1803
(I46
I12
tp1816
tp1817
a(g1803
(I46
I13
tp1818
tp1819
a(g1803
(I46
I14
tp1820
tp1821
a(g1803
(I46
I15
tp1822
tp1823
a(g1803
(I46
I16
tp1824
tp1825
a(g1803
(I46
I17
tp1826
tp1827
a(g1803
(I46
I18
tp1828
tp1829
a(g1803
(I46
I19
tp1830
tp1831
a(g1803
(I46
I20
tp1832
tp1833
a(g1803
(I46
I21
tp1834
tp1835
a(g1803
(I46
I22
tp1836
tp1837
a(g1803
(I46
I23
tp1838
tp1839
a(g1803
(I46
I24
tp1840
tp1841
a(g1803
(I46
I25
tp1842
tp1843
a(g1803
(I46
I26
tp1844
tp1845
a(g1803
(I46
I27
tp1846
tp1847
a(g1803
(I46
I28
tp1848
tp1849
a(g1803
(I46
I29
tp1850
tp1851
a((I46
I8
tp1852
(I46
I9
tp1853
tp1854
a(g1852
(I46
I10
tp1855
tp1856
a(g1852
(I46
I11
tp1857
tp1858
a(g1852
(I46
I12
tp1859
tp1860
a(g1852
(I46
I13
tp1861
tp1862
a(g1852
(I46
I14
tp1863
tp1864
a(g1852
(I46
I15
tp1865
tp1866
a(g1852
(I46
I16
tp1867
tp1868
a(g1852
(I46
I17
tp1869
tp1870
a(g1852
(I46
I18
tp1871
tp1872
a(g1852
(I46
I19
tp1873
tp1874
a(g1852
(I46
I20
tp1875
tp1876
a(g1852
(I46
I21
tp1877
tp1878
a(g1852
(I46
I22
tp1879
tp1880
a(g1852
(I46
I23
tp1881
tp1882
a(g1852
(I46
I24
tp1883
tp1884
a(g1852
(I46
I25
tp1885
tp1886
a(g1852
(I46
I26
tp1887
tp1888
a(g1852
(I46
I27
tp1889
tp1890
a(g1852
(I46
I28
tp1891
tp1892
a(g1852
(I46
I29
tp1893
tp1894
a((I46
I11
tp1895
(I46
I12
tp1896
tp1897
a(g1895
(I46
I13
tp1898
tp1899
a(g1895
(I46
I14
tp1900
tp1901
a(g1895
(I46
I15
tp1902
tp1903
a(g1895
(I46
I16
tp1904
tp1905
a(g1895
(I46
I17
tp1906
tp1907
a(g1895
(I46
I18
tp1908
tp1909
a(g1895
(I46
I19
tp1910
tp1911
a(g1895
(I46
I20
tp1912
tp1913
a(g1895
(I46
I21
tp1914
tp1915
a(g1895
(I46
I22
tp1916
tp1917
a(g1895
(I46
I23
tp1918
tp1919
a(g1895
(I46
I24
tp1920
tp1921
a(g1895
(I46
I25
tp1922
tp1923
a(g1895
(I46
I26
tp1924
tp1925
a(g1895
(I46
I27
tp1926
tp1927
a(g1895
(I46
I28
tp1928
tp1929
a(g1895
(I46
I29
tp1930
tp1931
a((I46
I14
tp1932
(I46
I15
tp1933
tp1934
a(g1932
(I46
I16
tp1935
tp1936
a(g1932
(I46
I17
tp1937
tp1938
a(g1932
(I46
I18
tp1939
tp1940
a(g1932
(I46
I19
tp1941
tp1942
a(g1932
(I46
I20
tp1943
tp1944
a(g1932
(I46
I21
tp1945
tp1946
a(g1932
(I46
I22
tp1947
tp1948
a(g1932
(I46
I23
tp1949
tp1950
a(g1932
(I46
I24
tp1951
tp1952
a(g1932
(I46
I25
tp1953
tp1954
a(g1932
(I46
I26
tp1955
tp1956
a(g1932
(I46
I27
tp1957
tp1958
a(g1932
(I46
I28
tp1959
tp1960
a(g1932
(I46
I29
tp1961
tp1962
a((I46
I17
tp1963
(I46
I18
tp1964
tp1965
a(g1963
(I46
I19
tp1966
tp1967
a(g1963
(I46
I20
tp1968
tp1969
a(g1963
(I46
I21
tp1970
tp1971
a(g1963
(I46
I22
tp1972
tp1973
a(g1963
(I46
I23
tp1974
tp1975
a(g1963
(I46
I24
tp1976
tp1977
a(g1963
(I46
I25
tp1978
tp1979
a(g1963
(I46
I26
tp1980
tp1981
a(g1963
(I46
I27
tp1982
tp1983
a(g1963
(I46
I28
tp1984
tp1985
a(g1963
(I46
I29
tp1986
tp1987
a((I46
I20
tp1988
(I46
I21
tp1989
tp1990
a(g1988
(I46
I22
tp1991
tp1992
a(g1988
(I46
I23
tp1993
tp1994
a(g1988
(I46
I24
tp1995
tp1996
a(g1988
(I46
I25
tp1997
tp1998
a(g1988
(I46
I26
tp1999
tp2000
a(g1988
(I46
I27
tp2001
tp2002
a(g1988
(I46
I28
tp2003
tp2004
a(g1988
(I46
I29
tp2005
tp2006
a((I46
I23
tp2007
(I46
I24
tp2008
tp2009
a(g2007
(I46
I25
tp2010
tp2011
a(g2007
(I46
I26
tp2012
tp2013
a(g2007
(I46
I27
tp2014
tp2015
a(g2007
(I46
I28
tp2016
tp2017
a(g2007
(I46
I29
tp2018
tp2019
a((I46
I26
tp2020
(I46
I27
tp2021
tp2022
a(g2020
(I46
I28
tp2023
tp2024
a(g2020
(I46
I29
tp2025
tp2026
a((I48
I2
tp2027
(I48
I3
tp2028
tp2029
a(g2027
(I48
I4
tp2030
tp2031
a(g2027
(I48
I5
tp2032
tp2033
a((I49
I2
tp2034
(I49
I3
tp2035
tp2036
a(g2034
(I49
I4
tp2037
tp2038
a(g2034
(I49
I5
tp2039
tp2040
a(g2034
(I49
I6
tp2041
tp2042
a(g2034
(I49
I7
tp2043
tp2044
a(g2034
(I49
I8
tp2045
tp2046
a(g2034
(I49
I9
tp2047
tp2048
a(g2034
(I49
I10
tp2049
tp2050
a(g2034
(I49
I11
tp2051
tp2052
a(g2034
(I49
I12
tp2053
tp2054
a(g2034
(I49
I13
tp2055
tp2056
a(g2034
(I49
I14
tp2057
tp2058
a(g2034
(I49
I15
tp2059
tp2060
a(g2034
(I49
I16
tp2061
tp2062
a(g2034
(I49
I17
tp2063
tp2064
a(g2034
(I49
I18
tp2065
tp2066
a(g2034
(I49
I19
tp2067
tp2068
a(g2034
(I49
I20
tp2069
tp2070
a(g2034
(I49
I21
tp2071
tp2072
a(g2034
(I49
I22
tp2073
tp2074
a(g2034
(I49
I23
tp2075
tp2076
a(g2034
(I49
I24
tp2077
tp2078
a(g2034
(I49
I25
tp2079
tp2080
a(g2034
(I49
I26
tp2081
tp2082
a(g2034
(I49
I27
tp2083
tp2084
a(g2034
(I49
I28
tp2085
tp2086
a(g2034
(I49
I29
tp2087
tp2088
a((I49
I5
tp2089
(I49
I6
tp2090
tp2091
a(g2089
(I49
I7
tp2092
tp2093
a(g2089
(I49
I8
tp2094
tp2095
a(g2089
(I49
I9
tp2096
tp2097
a(g2089
(I49
I10
tp2098
tp2099
a(g2089
(I49
I11
tp2100
tp2101
a(g2089
(I49
I12
tp2102
tp2103
a(g2089
(I49
I13
tp2104
tp2105
a(g2089
(I49
I14
tp2106
tp2107
a(g2089
(I49
I15
tp2108
tp2109
a(g2089
(I49
I16
tp2110
tp2111
a(g2089
(I49
I17
tp2112
tp2113
a(g2089
(I49
I18
tp2114
tp2115
a(g2089
(I49
I19
tp2116
tp2117
a(g2089
(I49
I20
tp2118
tp2119
a(g2089
(I49
I21
tp2120
tp2121
a(g2089
(I49
I22
tp2122
tp2123
a(g2089
(I49
I23
tp2124
tp2125
a(g2089
(I49
I24
tp2126
tp2127
a(g2089
(I49
I25
tp2128
tp2129
a(g2089
(I49
I26
tp2130
tp2131
a(g2089
(I49
I27
tp2132
tp2133
a(g2089
(I49
I28
tp2134
tp2135
a(g2089
(I49
I29
tp2136
tp2137
a((I49
I8
tp2138
(I49
I9
tp2139
tp2140
a(g2138
(I49
I10
tp2141
tp2142
a(g2138
(I49
I11
tp2143
tp2144
a(g2138
(I49
I12
tp2145
tp2146
a(g2138
(I49
I13
tp2147
tp2148
a(g2138
(I49
I14
tp2149
tp2150
a(g2138
(I49
I15
tp2151
tp2152
a(g2138
(I49
I16
tp2153
tp2154
a(g2138
(I49
I17
tp2155
tp2156
a(g2138
(I49
I18
tp2157
tp2158
a(g2138
(I49
I19
tp2159
tp2160
a(g2138
(I49
I20
tp2161
tp2162
a(g2138
(I49
I21
tp2163
tp2164
a(g2138
(I49
I22
tp2165
tp2166
a(g2138
(I49
I23
tp2167
tp2168
a(g2138
(I49
I24
tp2169
tp2170
a(g2138
(I49
I25
tp2171
tp2172
a(g2138
(I49
I26
tp2173
tp2174
a(g2138
(I49
I27
tp2175
tp2176
a(g2138
(I49
I28
tp2177
tp2178
a(g2138
(I49
I29
tp2179
tp2180
a((I49
I11
tp2181
(I49
I12
tp2182
tp2183
a(g2181
(I49
I13
tp2184
tp2185
a(g2181
(I49
I14
tp2186
tp2187
a(g2181
(I49
I15
tp2188
tp2189
a(g2181
(I49
I16
tp2190
tp2191
a(g2181
(I49
I17
tp2192
tp2193
a(g2181
(I49
I18
tp2194
tp2195
a(g2181
(I49
I19
tp2196
tp2197
a(g2181
(I49
I20
tp2198
tp2199
a(g2181
(I49
I21
tp2200
tp2201
a(g2181
(I49
I22
tp2202
tp2203
a(g2181
(I49
I23
tp2204
tp2205
a(g2181
(I49
I24
tp2206
tp2207
a(g2181
(I49
I25
tp2208
tp2209
a(g2181
(I49
I26
tp2210
tp2211
a(g2181
(I49
I27
tp2212
tp2213
a(g2181
(I49
I28
tp2214
tp2215
a(g2181
(I49
I29
tp2216
tp2217
a((I49
I14
tp2218
(I49
I15
tp2219
tp2220
a(g2218
(I49
I16
tp2221
tp2222
a(g2218
(I49
I17
tp2223
tp2224
a(g2218
(I49
I18
tp2225
tp2226
a(g2218
(I49
I19
tp2227
tp2228
a(g2218
(I49
I20
tp2229
tp2230
a(g2218
(I49
I21
tp2231
tp2232
a(g2218
(I49
I22
tp2233
tp2234
a(g2218
(I49
I23
tp2235
tp2236
a(g2218
(I49
I24
tp2237
tp2238
a(g2218
(I49
I25
tp2239
tp2240
a(g2218
(I49
I26
tp2241
tp2242
a(g2218
(I49
I27
tp2243
tp2244
a(g2218
(I49
I28
tp2245
tp2246
a(g2218
(I49
I29
tp2247
tp2248
a((I49
I17
tp2249
(I49
I18
tp2250
tp2251
a(g2249
(I49
I19
tp2252
tp2253
a(g2249
(I49
I20
tp2254
tp2255
a(g2249
(I49
I21
tp2256
tp2257
a(g2249
(I49
I22
tp2258
tp2259
a(g2249
(I49
I23
tp2260
tp2261
a(g2249
(I49
I24
tp2262
tp2263
a(g2249
(I49
I25
tp2264
tp2265
a(g2249
(I49
I26
tp2266
tp2267
a(g2249
(I49
I27
tp2268
tp2269
a(g2249
(I49
I28
tp2270
tp2271
a(g2249
(I49
I29
tp2272
tp2273
a((I49
I20
tp2274
(I49
I21
tp2275
tp2276
a(g2274
(I49
I22
tp2277
tp2278
a(g2274
(I49
I23
tp2279
tp2280
a(g2274
(I49
I24
tp2281
tp2282
a(g2274
(I49
I25
tp2283
tp2284
a(g2274
(I49
I26
tp2285
tp2286
a(g2274
(I49
I27
tp2287
tp2288
a(g2274
(I49
I28
tp2289
tp2290
a(g2274
(I49
I29
tp2291
tp2292
a((I49
I23
tp2293
(I49
I24
tp2294
tp2295
a(g2293
(I49
I25
tp2296
tp2297
a(g2293
(I49
I26
tp2298
tp2299
a(g2293
(I49
I27
tp2300
tp2301
a(g2293
(I49
I28
tp2302
tp2303
a(g2293
(I49
I29
tp2304
tp2305
a((I49
I26
tp2306
(I49
I27
tp2307
tp2308
a(g2306
(I49
I28
tp2309
tp2310
a(g2306
(I49
I29
tp2311
tp2312
a((I50
I2
tp2313
(I50
I3
tp2314
tp2315
a(g2313
(I50
I4
tp2316
tp2317
a(g2313
(I50
I5
tp2318
tp2319
a((I51
I2
tp2320
(I51
I3
tp2321
tp2322
a(g2320
(I51
I4
tp2323
tp2324
a(g2320
(I51
I5
tp2325
tp2326
a((I52
I2
tp2327
(I52
I3
tp2328
tp2329
a(g2327
(I52
I4
tp2330
tp2331
a(g2327
(I52
I5
tp2332
tp2333
a((I59
I2
tp2334
(I59
I3
tp2335
tp2336
a(g2334
(I59
I4
tp2337
tp2338
a(g2334
(I59
I5
tp2339
tp2340
a((I60
I2
tp2341
(I60
I3
tp2342
tp2343
a(g2341
(I60
I4
tp2344
tp2345
a(g2341
(I60
I5
tp2346
tp2347
a(g2341
(I60
I6
tp2348
tp2349
a(g2341
(I60
I7
tp2350
tp2351
a(g2341
(I60
I8
tp2352
tp2353
a(g2341
(I60
I9
tp2354
tp2355
a(g2341
(I60
I10
tp2356
tp2357
a(g2341
(I60
I11
tp2358
tp2359
a(g2341
(I60
I12
tp2360
tp2361
a(g2341
(I60
I13
tp2362
tp2363
a(g2341
(I60
I14
tp2364
tp2365
a((I60
I5
tp2366
(I60
I6
tp2367
tp2368
a(g2366
(I60
I7
tp2369
tp2370
a(g2366
(I60
I8
tp2371
tp2372
a(g2366
(I60
I9
tp2373
tp2374
a(g2366
(I60
I10
tp2375
tp2376
a(g2366
(I60
I11
tp2377
tp2378
a(g2366
(I60
I12
tp2379
tp2380
a(g2366
(I60
I13
tp2381
tp2382
a(g2366
(I60
I14
tp2383
tp2384
a((I60
I8
tp2385
(I60
I9
tp2386
tp2387
a(g2385
(I60
I10
tp2388
tp2389
a(g2385
(I60
I11
tp2390
tp2391
a(g2385
(I60
I12
tp2392
tp2393
a(g2385
(I60
I13
tp2394
tp2395
a(g2385
(I60
I14
tp2396
tp2397
a((I60
I11
tp2398
(I60
I12
tp2399
tp2400
a(g2398
(I60
I13
tp2401
tp2402
a(g2398
(I60
I14
tp2403
tp2404
a((I63
I2
tp2405
(I63
I3
tp2406
tp2407
a(g2405
(I63
I4
tp2408
tp2409
a(g2405
(I63
I5
tp2410
tp2411
a(g2405
(I63
I6
tp2412
tp2413
a(g2405
(I63
I7
tp2414
tp2415
a(g2405
(I63
I8
tp2416
tp2417
a(g2405
(I63
I9
tp2418
tp2419
a(g2405
(I63
I10
tp2420
tp2421
a(g2405
(I63
I11
tp2422
tp2423
a((I63
I5
tp2424
(I63
I6
tp2425
tp2426
a(g2424
(I63
I7
tp2427
tp2428
a(g2424
(I63
I8
tp2429
tp2430
a(g2424
(I63
I9
tp2431
tp2432
a(g2424
(I63
I10
tp2433
tp2434
a(g2424
(I63
I11
tp2435
tp2436
a((I63
I8
tp2437
(I63
I9
tp2438
tp2439
a(g2437
(I63
I10
tp2440
tp2441
a(g2437
(I63
I11
tp2442
tp2443
a((I67
I2
tp2444
(I67
I3
tp2445
tp2446
a(g2444
(I67
I4
tp2447
tp2448
a(g2444
(I67
I5
tp2449
tp2450
a((I68
I2
tp2451
(I68
I3
tp2452
tp2453
a(g2451
(I68
I4
tp2454
tp2455
a(g2451
(I68
I5
tp2456
tp2457
a((I69
I2
tp2458
(I69
I3
tp2459
tp2460
a(g2458
(I69
I4
tp2461
tp2462
a(g2458
(I69
I5
tp2463
tp2464
a((I72
I0
tp2465
(I72
I1
tp2466
tp2467
a(g2465
(I72
I2
tp2468
tp2469
a(g2465
(I72
I3
tp2470
tp2471
a(g2465
(I72
I4
tp2472
tp2473
a(g2465
(I72
I5
tp2474
tp2475
a(g2465
(I72
I6
tp2476
tp2477
a(g2465
(I72
I7
tp2478
tp2479
a(g2465
(I72
I8
tp2480
tp2481
a(g2465
(I72
I9
tp2482
tp2483
a(g2465
(I72
I10
tp2484
tp2485
a(g2465
(I72
I11
tp2486
tp2487
a(g2465
(I72
I12
tp2488
tp2489
a(g2465
(I72
I13
tp2490
tp2491
a(g2465
(I72
I14
tp2492
tp2493
a(g2465
(I72
I15
tp2494
tp2495
a(g2465
(I72
I16
tp2496
tp2497
a(g2465
(I72
I17
tp2498
tp2499
a(g2465
(I72
I18
tp2500
tp2501
a(g2465
(I72
I19
tp2502
tp2503
a(g2465
(I72
I20
tp2504
tp2505
a(g2465
(I72
I21
tp2506
tp2507
a(g2465
(I72
I22
tp2508
tp2509
a((I72
I1
tp2510
(I72
I2
tp2511
tp2512
a(g2510
(I72
I3
tp2513
tp2514
a(g2510
(I72
I4
tp2515
tp2516
a(g2510
(I72
I5
tp2517
tp2518
a(g2510
(I72
I6
tp2519
tp2520
a(g2510
(I72
I7
tp2521
tp2522
a(g2510
(I72
I8
tp2523
tp2524
a(g2510
(I72
I9
tp2525
tp2526
a(g2510
(I72
I10
tp2527
tp2528
a(g2510
(I72
I11
tp2529
tp2530
a(g2510
(I72
I12
tp2531
tp2532
a(g2510
(I72
I13
tp2533
tp2534
a(g2510
(I72
I14
tp2535
tp2536
a(g2510
(I72
I15
tp2537
tp2538
a(g2510
(I72
I16
tp2539
tp2540
a(g2510
(I72
I17
tp2541
tp2542
a(g2510
(I72
I18
tp2543
tp2544
a(g2510
(I72
I19
tp2545
tp2546
a(g2510
(I72
I20
tp2547
tp2548
a(g2510
(I72
I21
tp2549
tp2550
a(g2510
(I72
I22
tp2551
tp2552
a((I72
I2
tp2553
(I72
I3
tp2554
tp2555
a(g2553
(I72
I4
tp2556
tp2557
a(g2553
(I72
I5
tp2558
tp2559
a(g2553
(I72
I6
tp2560
tp2561
a(g2553
(I72
I7
tp2562
tp2563
a(g2553
(I72
I8
tp2564
tp2565
a(g2553
(I72
I9
tp2566
tp2567
a(g2553
(I72
I10
tp2568
tp2569
a(g2553
(I72
I11
tp2570
tp2571
a(g2553
(I72
I12
tp2572
tp2573
a(g2553
(I72
I13
tp2574
tp2575
a(g2553
(I72
I14
tp2576
tp2577
a(g2553
(I72
I15
tp2578
tp2579
a(g2553
(I72
I16
tp2580
tp2581
a(g2553
(I72
I17
tp2582
tp2583
a(g2553
(I72
I18
tp2584
tp2585
a(g2553
(I72
I19
tp2586
tp2587
a(g2553
(I72
I20
tp2588
tp2589
a(g2553
(I72
I21
tp2590
tp2591
a(g2553
(I72
I22
tp2592
tp2593
a((I72
I3
tp2594
(I72
I4
tp2595
tp2596
a(g2594
(I72
I5
tp2597
tp2598
a(g2594
(I72
I6
tp2599
tp2600
a(g2594
(I72
I7
tp2601
tp2602
a(g2594
(I72
I8
tp2603
tp2604
a(g2594
(I72
I9
tp2605
tp2606
a(g2594
(I72
I10
tp2607
tp2608
a(g2594
(I72
I11
tp2609
tp2610
a(g2594
(I72
I12
tp2611
tp2612
a(g2594
(I72
I13
tp2613
tp2614
a(g2594
(I72
I14
tp2615
tp2616
a(g2594
(I72
I15
tp2617
tp2618
a(g2594
(I72
I16
tp2619
tp2620
a(g2594
(I72
I17
tp2621
tp2622
a(g2594
(I72
I18
tp2623
tp2624
a(g2594
(I72
I19
tp2625
tp2626
a(g2594
(I72
I20
tp2627
tp2628
a(g2594
(I72
I21
tp2629
tp2630
a(g2594
(I72
I22
tp2631
tp2632
a((I72
I4
tp2633
(I72
I5
tp2634
tp2635
a(g2633
(I72
I6
tp2636
tp2637
a(g2633
(I72
I7
tp2638
tp2639
a(g2633
(I72
I8
tp2640
tp2641
a(g2633
(I72
I9
tp2642
tp2643
a(g2633
(I72
I10
tp2644
tp2645
a(g2633
(I72
I11
tp2646
tp2647
a(g2633
(I72
I12
tp2648
tp2649
a(g2633
(I72
I13
tp2650
tp2651
a(g2633
(I72
I14
tp2652
tp2653
a(g2633
(I72
I15
tp2654
tp2655
a(g2633
(I72
I16
tp2656
tp2657
a(g2633
(I72
I17
tp2658
tp2659
a(g2633
(I72
I18
tp2660
tp2661
a(g2633
(I72
I19
tp2662
tp2663
a(g2633
(I72
I20
tp2664
tp2665
a(g2633
(I72
I21
tp2666
tp2667
a(g2633
(I72
I22
tp2668
tp2669
a((I72
I5
tp2670
(I72
I6
tp2671
tp2672
a(g2670
(I72
I7
tp2673
tp2674
a(g2670
(I72
I8
tp2675
tp2676
a(g2670
(I72
I9
tp2677
tp2678
a(g2670
(I72
I10
tp2679
tp2680
a(g2670
(I72
I11
tp2681
tp2682
a(g2670
(I72
I12
tp2683
tp2684
a(g2670
(I72
I13
tp2685
tp2686
a(g2670
(I72
I14
tp2687
tp2688
a(g2670
(I72
I15
tp2689
tp2690
a(g2670
(I72
I16
tp2691
tp2692
a(g2670
(I72
I17
tp2693
tp2694
a(g2670
(I72
I18
tp2695
tp2696
a(g2670
(I72
I19
tp2697
tp2698
a(g2670
(I72
I20
tp2699
tp2700
a(g2670
(I72
I21
tp2701
tp2702
a(g2670
(I72
I22
tp2703
tp2704
a((I72
I6
tp2705
(I72
I7
tp2706
tp2707
a(g2705
(I72
I8
tp2708
tp2709
a(g2705
(I72
I9
tp2710
tp2711
a(g2705
(I72
I10
tp2712
tp2713
a(g2705
(I72
I11
tp2714
tp2715
a(g2705
(I72
I12
tp2716
tp2717
a(g2705
(I72
I13
tp2718
tp2719
a(g2705
(I72
I14
tp2720
tp2721
a(g2705
(I72
I15
tp2722
tp2723
a(g2705
(I72
I16
tp2724
tp2725
a(g2705
(I72
I17
tp2726
tp2727
a(g2705
(I72
I18
tp2728
tp2729
a(g2705
(I72
I19
tp2730
tp2731
a(g2705
(I72
I20
tp2732
tp2733
a(g2705
(I72
I21
tp2734
tp2735
a(g2705
(I72
I22
tp2736
tp2737
a((I72
I7
tp2738
(I72
I8
tp2739
tp2740
a(g2738
(I72
I9
tp2741
tp2742
a(g2738
(I72
I10
tp2743
tp2744
a(g2738
(I72
I11
tp2745
tp2746
a(g2738
(I72
I12
tp2747
tp2748
a(g2738
(I72
I13
tp2749
tp2750
a(g2738
(I72
I14
tp2751
tp2752
a(g2738
(I72
I15
tp2753
tp2754
a(g2738
(I72
I16
tp2755
tp2756
a(g2738
(I72
I17
tp2757
tp2758
a(g2738
(I72
I18
tp2759
tp2760
a(g2738
(I72
I19
tp2761
tp2762
a(g2738
(I72
I20
tp2763
tp2764
a(g2738
(I72
I21
tp2765
tp2766
a(g2738
(I72
I22
tp2767
tp2768
a((I72
I8
tp2769
(I72
I9
tp2770
tp2771
a(g2769
(I72
I10
tp2772
tp2773
a(g2769
(I72
I11
tp2774
tp2775
a(g2769
(I72
I12
tp2776
tp2777
a(g2769
(I72
I13
tp2778
tp2779
a(g2769
(I72
I14
tp2780
tp2781
a(g2769
(I72
I15
tp2782
tp2783
a(g2769
(I72
I16
tp2784
tp2785
a(g2769
(I72
I17
tp2786
tp2787
a(g2769
(I72
I18
tp2788
tp2789
a(g2769
(I72
I19
tp2790
tp2791
a(g2769
(I72
I20
tp2792
tp2793
a(g2769
(I72
I21
tp2794
tp2795
a(g2769
(I72
I22
tp2796
tp2797
a((I72
I9
tp2798
(I72
I10
tp2799
tp2800
a(g2798
(I72
I11
tp2801
tp2802
a(g2798
(I72
I12
tp2803
tp2804
a(g2798
(I72
I13
tp2805
tp2806
a(g2798
(I72
I14
tp2807
tp2808
a(g2798
(I72
I15
tp2809
tp2810
a(g2798
(I72
I16
tp2811
tp2812
a(g2798
(I72
I17
tp2813
tp2814
a(g2798
(I72
I18
tp2815
tp2816
a(g2798
(I72
I19
tp2817
tp2818
a(g2798
(I72
I20
tp2819
tp2820
a(g2798
(I72
I21
tp2821
tp2822
a(g2798
(I72
I22
tp2823
tp2824
a((I72
I10
tp2825
(I72
I11
tp2826
tp2827
a(g2825
(I72
I12
tp2828
tp2829
a(g2825
(I72
I13
tp2830
tp2831
a(g2825
(I72
I14
tp2832
tp2833
a(g2825
(I72
I15
tp2834
tp2835
a(g2825
(I72
I16
tp2836
tp2837
a(g2825
(I72
I17
tp2838
tp2839
a(g2825
(I72
I18
tp2840
tp2841
a(g2825
(I72
I19
tp2842
tp2843
a(g2825
(I72
I20
tp2844
tp2845
a(g2825
(I72
I21
tp2846
tp2847
a(g2825
(I72
I22
tp2848
tp2849
a((I72
I11
tp2850
(I72
I12
tp2851
tp2852
a(g2850
(I72
I13
tp2853
tp2854
a(g2850
(I72
I14
tp2855
tp2856
a(g2850
(I72
I15
tp2857
tp2858
a(g2850
(I72
I16
tp2859
tp2860
a(g2850
(I72
I17
tp2861
tp2862
a(g2850
(I72
I18
tp2863
tp2864
a(g2850
(I72
I19
tp2865
tp2866
a(g2850
(I72
I20
tp2867
tp2868
a(g2850
(I72
I21
tp2869
tp2870
a(g2850
(I72
I22
tp2871
tp2872
a((I72
I12
tp2873
(I72
I13
tp2874
tp2875
a(g2873
(I72
I14
tp2876
tp2877
a(g2873
(I72
I15
tp2878
tp2879
a(g2873
(I72
I16
tp2880
tp2881
a(g2873
(I72
I17
tp2882
tp2883
a(g2873
(I72
I18
tp2884
tp2885
a(g2873
(I72
I19
tp2886
tp2887
a(g2873
(I72
I20
tp2888
tp2889
a(g2873
(I72
I21
tp2890
tp2891
a(g2873
(I72
I22
tp2892
tp2893
a((I72
I13
tp2894
(I72
I14
tp2895
tp2896
a(g2894
(I72
I15
tp2897
tp2898
a(g2894
(I72
I16
tp2899
tp2900
a(g2894
(I72
I17
tp2901
tp2902
a(g2894
(I72
I18
tp2903
tp2904
a(g2894
(I72
I19
tp2905
tp2906
a(g2894
(I72
I20
tp2907
tp2908
a(g2894
(I72
I21
tp2909
tp2910
a(g2894
(I72
I22
tp2911
tp2912
a((I72
I14
tp2913
(I72
I15
tp2914
tp2915
a(g2913
(I72
I16
tp2916
tp2917
a(g2913
(I72
I17
tp2918
tp2919
a(g2913
(I72
I18
tp2920
tp2921
a(g2913
(I72
I19
tp2922
tp2923
a(g2913
(I72
I20
tp2924
tp2925
a(g2913
(I72
I21
tp2926
tp2927
a(g2913
(I72
I22
tp2928
tp2929
a((I72
I15
tp2930
(I72
I16
tp2931
tp2932
a(g2930
(I72
I17
tp2933
tp2934
a(g2930
(I72
I18
tp2935
tp2936
a(g2930
(I72
I19
tp2937
tp2938
a(g2930
(I72
I20
tp2939
tp2940
a(g2930
(I72
I21
tp2941
tp2942
a(g2930
(I72
I22
tp2943
tp2944
a((I72
I16
tp2945
(I72
I17
tp2946
tp2947
a(g2945
(I72
I18
tp2948
tp2949
a(g2945
(I72
I19
tp2950
tp2951
a(g2945
(I72
I20
tp2952
tp2953
a(g2945
(I72
I21
tp2954
tp2955
a(g2945
(I72
I22
tp2956
tp2957
a((I72
I17
tp2958
(I72
I18
tp2959
tp2960
a(g2958
(I72
I19
tp2961
tp2962
a(g2958
(I72
I20
tp2963
tp2964
a(g2958
(I72
I21
tp2965
tp2966
a(g2958
(I72
I22
tp2967
tp2968
a((I72
I18
tp2969
(I72
I19
tp2970
tp2971
a(g2969
(I72
I20
tp2972
tp2973
a(g2969
(I72
I21
tp2974
tp2975
a(g2969
(I72
I22
tp2976
tp2977
a((I72
I19
tp2978
(I72
I20
tp2979
tp2980
a(g2978
(I72
I21
tp2981
tp2982
a(g2978
(I72
I22
tp2983
tp2984
a((I72
I20
tp2985
(I72
I21
tp2986
tp2987
a(g2985
(I72
I22
tp2988
tp2989
a((I72
I21
tp2990
(I72
I22
tp2991
tp2992
a((I75
I2
tp2993
(I75
I3
tp2994
tp2995
a(g2993
(I75
I4
tp2996
tp2997
a(g2993
(I75
I5
tp2998
tp2999
a(g2993
(I75
I6
tp3000
tp3001
a(g2993
(I75
I7
tp3002
tp3003
a(g2993
(I75
I8
tp3004
tp3005
a(g2993
(I75
I9
tp3006
tp3007
a(g2993
(I75
I10
tp3008
tp3009
a(g2993
(I75
I11
tp3010
tp3011
a(g2993
(I75
I12
tp3012
tp3013
a(g2993
(I75
I13
tp3014
tp3015
a(g2993
(I75
I14
tp3016
tp3017
a(g2993
(I75
I15
tp3018
tp3019
a(g2993
(I75
I16
tp3020
tp3021
a(g2993
(I75
I17
tp3022
tp3023
a(g2993
(I75
I18
tp3024
tp3025
a(g2993
(I75
I19
tp3026
tp3027
a(g2993
(I75
I20
tp3028
tp3029
a(g2993
(I75
I21
tp3030
tp3031
a(g2993
(I75
I22
tp3032
tp3033
a(g2993
(I75
I23
tp3034
tp3035
a(g2993
(I75
I24
tp3036
tp3037
a(g2993
(I75
I25
tp3038
tp3039
a(g2993
(I75
I26
tp3040
tp3041
a(g2993
(I75
I27
tp3042
tp3043
a(g2993
(I75
I28
tp3044
tp3045
a(g2993
(I75
I29
tp3046
tp3047
a((I75
I5
tp3048
(I75
I6
tp3049
tp3050
a(g3048
(I75
I7
tp3051
tp3052
a(g3048
(I75
I8
tp3053
tp3054
a(g3048
(I75
I9
tp3055
tp3056
a(g3048
(I75
I10
tp3057
tp3058
a(g3048
(I75
I11
tp3059
tp3060
a(g3048
(I75
I12
tp3061
tp3062
a(g3048
(I75
I13
tp3063
tp3064
a(g3048
(I75
I14
tp3065
tp3066
a(g3048
(I75
I15
tp3067
tp3068
a(g3048
(I75
I16
tp3069
tp3070
a(g3048
(I75
I17
tp3071
tp3072
a(g3048
(I75
I18
tp3073
tp3074
a(g3048
(I75
I19
tp3075
tp3076
a(g3048
(I75
I20
tp3077
tp3078
a(g3048
(I75
I21
tp3079
tp3080
a(g3048
(I75
I22
tp3081
tp3082
a(g3048
(I75
I23
tp3083
tp3084
a(g3048
(I75
I24
tp3085
tp3086
a(g3048
(I75
I25
tp3087
tp3088
a(g3048
(I75
I26
tp3089
tp3090
a(g3048
(I75
I27
tp3091
tp3092
a(g3048
(I75
I28
tp3093
tp3094
a(g3048
(I75
I29
tp3095
tp3096
a((I75
I8
tp3097
(I75
I9
tp3098
tp3099
a(g3097
(I75
I10
tp3100
tp3101
a(g3097
(I75
I11
tp3102
tp3103
a(g3097
(I75
I12
tp3104
tp3105
a(g3097
(I75
I13
tp3106
tp3107
a(g3097
(I75
I14
tp3108
tp3109
a(g3097
(I75
I15
tp3110
tp3111
a(g3097
(I75
I16
tp3112
tp3113
a(g3097
(I75
I17
tp3114
tp3115
a(g3097
(I75
I18
tp3116
tp3117
a(g3097
(I75
I19
tp3118
tp3119
a(g3097
(I75
I20
tp3120
tp3121
a(g3097
(I75
I21
tp3122
tp3123
a(g3097
(I75
I22
tp3124
tp3125
a(g3097
(I75
I23
tp3126
tp3127
a(g3097
(I75
I24
tp3128
tp3129
a(g3097
(I75
I25
tp3130
tp3131
a(g3097
(I75
I26
tp3132
tp3133
a(g3097
(I75
I27
tp3134
tp3135
a(g3097
(I75
I28
tp3136
tp3137
a(g3097
(I75
I29
tp3138
tp3139
a((I75
I11
tp3140
(I75
I12
tp3141
tp3142
a(g3140
(I75
I13
tp3143
tp3144
a(g3140
(I75
I14
tp3145
tp3146
a(g3140
(I75
I15
tp3147
tp3148
a(g3140
(I75
I16
tp3149
tp3150
a(g3140
(I75
I17
tp3151
tp3152
a(g3140
(I75
I18
tp3153
tp3154
a(g3140
(I75
I19
tp3155
tp3156
a(g3140
(I75
I20
tp3157
tp3158
a(g3140
(I75
I21
tp3159
tp3160
a(g3140
(I75
I22
tp3161
tp3162
a(g3140
(I75
I23
tp3163
tp3164
a(g3140
(I75
I24
tp3165
tp3166
a(g3140
(I75
I25
tp3167
tp3168
a(g3140
(I75
I26
tp3169
tp3170
a(g3140
(I75
I27
tp3171
tp3172
a(g3140
(I75
I28
tp3173
tp3174
a(g3140
(I75
I29
tp3175
tp3176
a((I75
I14
tp3177
(I75
I15
tp3178
tp3179
a(g3177
(I75
I16
tp3180
tp3181
a(g3177
(I75
I17
tp3182
tp3183
a(g3177
(I75
I18
tp3184
tp3185
a(g3177
(I75
I19
tp3186
tp3187
a(g3177
(I75
I20
tp3188
tp3189
a(g3177
(I75
I21
tp3190
tp3191
a(g3177
(I75
I22
tp3192
tp3193
a(g3177
(I75
I23
tp3194
tp3195
a(g3177
(I75
I24
tp3196
tp3197
a(g3177
(I75
I25
tp3198
tp3199
a(g3177
(I75
I26
tp3200
tp3201
a(g3177
(I75
I27
tp3202
tp3203
a(g3177
(I75
I28
tp3204
tp3205
a(g3177
(I75
I29
tp3206
tp3207
a((I75
I17
tp3208
(I75
I18
tp3209
tp3210
a(g3208
(I75
I19
tp3211
tp3212
a(g3208
(I75
I20
tp3213
tp3214
a(g3208
(I75
I21
tp3215
tp3216
a(g3208
(I75
I22
tp3217
tp3218
a(g3208
(I75
I23
tp3219
tp3220
a(g3208
(I75
I24
tp3221
tp3222
a(g3208
(I75
I25
tp3223
tp3224
a(g3208
(I75
I26
tp3225
tp3226
a(g3208
(I75
I27
tp3227
tp3228
a(g3208
(I75
I28
tp3229
tp3230
a(g3208
(I75
I29
tp3231
tp3232
a((I75
I20
tp3233
(I75
I21
tp3234
tp3235
a(g3233
(I75
I22
tp3236
tp3237
a(g3233
(I75
I23
tp3238
tp3239
a(g3233
(I75
I24
tp3240
tp3241
a(g3233
(I75
I25
tp3242
tp3243
a(g3233
(I75
I26
tp3244
tp3245
a(g3233
(I75
I27
tp3246
tp3247
a(g3233
(I75
I28
tp3248
tp3249
a(g3233
(I75
I29
tp3250
tp3251
a((I75
I23
tp3252
(I75
I24
tp3253
tp3254
a(g3252
(I75
I25
tp3255
tp3256
a(g3252
(I75
I26
tp3257
tp3258
a(g3252
(I75
I27
tp3259
tp3260
a(g3252
(I75
I28
tp3261
tp3262
a(g3252
(I75
I29
tp3263
tp3264
a((I75
I26
tp3265
(I75
I27
tp3266
tp3267
a(g3265
(I75
I28
tp3268
tp3269
a(g3265
(I75
I29
tp3270
tp3271
a((I77
I2
tp3272
(I77
I3
tp3273
tp3274
a(g3272
(I77
I4
tp3275
tp3276
a(g3272
(I77
I5
tp3277
tp3278
a((I78
I2
tp3279
(I78
I3
tp3280
tp3281
a(g3279
(I78
I4
tp3282
tp3283
a(g3279
(I78
I5
tp3284
tp3285
a(g3279
(I78
I6
tp3286
tp3287
a(g3279
(I78
I7
tp3288
tp3289
a(g3279
(I78
I8
tp3290
tp3291
a(g3279
(I78
I9
tp3292
tp3293
a(g3279
(I78
I10
tp3294
tp3295
a(g3279
(I78
I11
tp3296
tp3297
a(g3279
(I78
I12
tp3298
tp3299
a(g3279
(I78
I13
tp3300
tp3301
a(g3279
(I78
I14
tp3302
tp3303
a(g3279
(I78
I15
tp3304
tp3305
a(g3279
(I78
I16
tp3306
tp3307
a(g3279
(I78
I17
tp3308
tp3309
a(g3279
(I78
I18
tp3310
tp3311
a(g3279
(I78
I19
tp3312
tp3313
a(g3279
(I78
I20
tp3314
tp3315
a(g3279
(I78
I21
tp3316
tp3317
a(g3279
(I78
I22
tp3318
tp3319
a(g3279
(I78
I23
tp3320
tp3321
a(g3279
(I78
I24
tp3322
tp3323
a(g3279
(I78
I25
tp3324
tp3325
a(g3279
(I78
I26
tp3326
tp3327
a(g3279
(I78
I27
tp3328
tp3329
a(g3279
(I78
I28
tp3330
tp3331
a(g3279
(I78
I29
tp3332
tp3333
a((I78
I5
tp3334
(I78
I6
tp3335
tp3336
a(g3334
(I78
I7
tp3337
tp3338
a(g3334
(I78
I8
tp3339
tp3340
a(g3334
(I78
I9
tp3341
tp3342
a(g3334
(I78
I10
tp3343
tp3344
a(g3334
(I78
I11
tp3345
tp3346
a(g3334
(I78
I12
tp3347
tp3348
a(g3334
(I78
I13
tp3349
tp3350
a(g3334
(I78
I14
tp3351
tp3352
a(g3334
(I78
I15
tp3353
tp3354
a(g3334
(I78
I16
tp3355
tp3356
a(g3334
(I78
I17
tp3357
tp3358
a(g3334
(I78
I18
tp3359
tp3360
a(g3334
(I78
I19
tp3361
tp3362
a(g3334
(I78
I20
tp3363
tp3364
a(g3334
(I78
I21
tp3365
tp3366
a(g3334
(I78
I22
tp3367
tp3368
a(g3334
(I78
I23
tp3369
tp3370
a(g3334
(I78
I24
tp3371
tp3372
a(g3334
(I78
I25
tp3373
tp3374
a(g3334
(I78
I26
tp3375
tp3376
a(g3334
(I78
I27
tp3377
tp3378
a(g3334
(I78
I28
tp3379
tp3380
a(g3334
(I78
I29
tp3381
tp3382
a((I78
I8
tp3383
(I78
I9
tp3384
tp3385
a(g3383
(I78
I10
tp3386
tp3387
a(g3383
(I78
I11
tp3388
tp3389
a(g3383
(I78
I12
tp3390
tp3391
a(g3383
(I78
I13
tp3392
tp3393
a(g3383
(I78
I14
tp3394
tp3395
a(g3383
(I78
I15
tp3396
tp3397
a(g3383
(I78
I16
tp3398
tp3399
a(g3383
(I78
I17
tp3400
tp3401
a(g3383
(I78
I18
tp3402
tp3403
a(g3383
(I78
I19
tp3404
tp3405
a(g3383
(I78
I20
tp3406
tp3407
a(g3383
(I78
I21
tp3408
tp3409
a(g3383
(I78
I22
tp3410
tp3411
a(g3383
(I78
I23
tp3412
tp3413
a(g3383
(I78
I24
tp3414
tp3415
a(g3383
(I78
I25
tp3416
tp3417
a(g3383
(I78
I26
tp3418
tp3419
a(g3383
(I78
I27
tp3420
tp3421
a(g3383
(I78
I28
tp3422
tp3423
a(g3383
(I78
I29
tp3424
tp3425
a((I78
I11
tp3426
(I78
I12
tp3427
tp3428
a(g3426
(I78
I13
tp3429
tp3430
a(g3426
(I78
I14
tp3431
tp3432
a(g3426
(I78
I15
tp3433
tp3434
a(g3426
(I78
I16
tp3435
tp3436
a(g3426
(I78
I17
tp3437
tp3438
a(g3426
(I78
I18
tp3439
tp3440
a(g3426
(I78
I19
tp3441
tp3442
a(g3426
(I78
I20
tp3443
tp3444
a(g3426
(I78
I21
tp3445
tp3446
a(g3426
(I78
I22
tp3447
tp3448
a(g3426
(I78
I23
tp3449
tp3450
a(g3426
(I78
I24
tp3451
tp3452
a(g3426
(I78
I25
tp3453
tp3454
a(g3426
(I78
I26
tp3455
tp3456
a(g3426
(I78
I27
tp3457
tp3458
a(g3426
(I78
I28
tp3459
tp3460
a(g3426
(I78
I29
tp3461
tp3462
a((I78
I14
tp3463
(I78
I15
tp3464
tp3465
a(g3463
(I78
I16
tp3466
tp3467
a(g3463
(I78
I17
tp3468
tp3469
a(g3463
(I78
I18
tp3470
tp3471
a(g3463
(I78
I19
tp3472
tp3473
a(g3463
(I78
I20
tp3474
tp3475
a(g3463
(I78
I21
tp3476
tp3477
a(g3463
(I78
I22
tp3478
tp3479
a(g3463
(I78
I23
tp3480
tp3481
a(g3463
(I78
I24
tp3482
tp3483
a(g3463
(I78
I25
tp3484
tp3485
a(g3463
(I78
I26
tp3486
tp3487
a(g3463
(I78
I27
tp3488
tp3489
a(g3463
(I78
I28
tp3490
tp3491
a(g3463
(I78
I29
tp3492
tp3493
a((I78
I17
tp3494
(I78
I18
tp3495
tp3496
a(g3494
(I78
I19
tp3497
tp3498
a(g3494
(I78
I20
tp3499
tp3500
a(g3494
(I78
I21
tp3501
tp3502
a(g3494
(I78
I22
tp3503
tp3504
a(g3494
(I78
I23
tp3505
tp3506
a(g3494
(I78
I24
tp3507
tp3508
a(g3494
(I78
I25
tp3509
tp3510
a(g3494
(I78
I26
tp3511
tp3512
a(g3494
(I78
I27
tp3513
tp3514
a(g3494
(I78
I28
tp3515
tp3516
a(g3494
(I78
I29
tp3517
tp3518
a((I78
I20
tp3519
(I78
I21
tp3520
tp3521
a(g3519
(I78
I22
tp3522
tp3523
a(g3519
(I78
I23
tp3524
tp3525
a(g3519
(I78
I24
tp3526
tp3527
a(g3519
(I78
I25
tp3528
tp3529
a(g3519
(I78
I26
tp3530
tp3531
a(g3519
(I78
I27
tp3532
tp3533
a(g3519
(I78
I28
tp3534
tp3535
a(g3519
(I78
I29
tp3536
tp3537
a((I78
I23
tp3538
(I78
I24
tp3539
tp3540
a(g3538
(I78
I25
tp3541
tp3542
a(g3538
(I78
I26
tp3543
tp3544
a(g3538
(I78
I27
tp3545
tp3546
a(g3538
(I78
I28
tp3547
tp3548
a(g3538
(I78
I29
tp3549
tp3550
a((I78
I26
tp3551
(I78
I27
tp3552
tp3553
a(g3551
(I78
I28
tp3554
tp3555
a(g3551
(I78
I29
tp3556
tp3557
a((I79
I2
tp3558
(I79
I3
tp3559
tp3560
a(g3558
(I79
I4
tp3561
tp3562
a(g3558
(I79
I5
tp3563
tp3564
a((I80
I2
tp3565
(I80
I3
tp3566
tp3567
a(g3565
(I80
I4
tp3568
tp3569
a(g3565
(I80
I5
tp3570
tp3571
a((I81
I2
tp3572
(I81
I3
tp3573
tp3574
a(g3572
(I81
I4
tp3575
tp3576
a(g3572
(I81
I5
tp3577
tp3578
a((I84
I2
tp3579
(I84
I3
tp3580
tp3581
a(g3579
(I84
I4
tp3582
tp3583
a(g3579
(I84
I5
tp3584
tp3585
a(g3579
(I84
I6
tp3586
tp3587
a(g3579
(I84
I7
tp3588
tp3589
a(g3579
(I84
I8
tp3590
tp3591
a(g3579
(I84
I9
tp3592
tp3593
a(g3579
(I84
I10
tp3594
tp3595
a(g3579
(I84
I11
tp3596
tp3597
a(g3579
(I84
I12
tp3598
tp3599
a(g3579
(I84
I13
tp3600
tp3601
a(g3579
(I84
I14
tp3602
tp3603
a(g3579
(I84
I15
tp3604
tp3605
a(g3579
(I84
I16
tp3606
tp3607
a(g3579
(I84
I17
tp3608
tp3609
a(g3579
(I84
I18
tp3610
tp3611
a(g3579
(I84
I19
tp3612
tp3613
a(g3579
(I84
I20
tp3614
tp3615
a((I84
I5
tp3616
(I84
I6
tp3617
tp3618
a(g3616
(I84
I7
tp3619
tp3620
a(g3616
(I84
I8
tp3621
tp3622
a(g3616
(I84
I9
tp3623
tp3624
a(g3616
(I84
I10
tp3625
tp3626
a(g3616
(I84
I11
tp3627
tp3628
a(g3616
(I84
I12
tp3629
tp3630
a(g3616
(I84
I13
tp3631
tp3632
a(g3616
(I84
I14
tp3633
tp3634
a(g3616
(I84
I15
tp3635
tp3636
a(g3616
(I84
I16
tp3637
tp3638
a(g3616
(I84
I17
tp3639
tp3640
a(g3616
(I84
I18
tp3641
tp3642
a(g3616
(I84
I19
tp3643
tp3644
a(g3616
(I84
I20
tp3645
tp3646
a((I84
I8
tp3647
(I84
I9
tp3648
tp3649
a(g3647
(I84
I10
tp3650
tp3651
a(g3647
(I84
I11
tp3652
tp3653
a(g3647
(I84
I12
tp3654
tp3655
a(g3647
(I84
I13
tp3656
tp3657
a(g3647
(I84
I14
tp3658
tp3659
a(g3647
(I84
I15
tp3660
tp3661
a(g3647
(I84
I16
tp3662
tp3663
a(g3647
(I84
I17
tp3664
tp3665
a(g3647
(I84
I18
tp3666
tp3667
a(g3647
(I84
I19
tp3668
tp3669
a(g3647
(I84
I20
tp3670
tp3671
a((I84
I11
tp3672
(I84
I12
tp3673
tp3674
a(g3672
(I84
I13
tp3675
tp3676
a(g3672
(I84
I14
tp3677
tp3678
a(g3672
(I84
I15
tp3679
tp3680
a(g3672
(I84
I16
tp3681
tp3682
a(g3672
(I84
I17
tp3683
tp3684
a(g3672
(I84
I18
tp3685
tp3686
a(g3672
(I84
I19
tp3687
tp3688
a(g3672
(I84
I20
tp3689
tp3690
a((I84
I14
tp3691
(I84
I15
tp3692
tp3693
a(g3691
(I84
I16
tp3694
tp3695
a(g3691
(I84
I17
tp3696
tp3697
a(g3691
(I84
I18
tp3698
tp3699
a(g3691
(I84
I19
tp3700
tp3701
a(g3691
(I84
I20
tp3702
tp3703
a((I84
I17
tp3704
(I84
I18
tp3705
tp3706
a(g3704
(I84
I19
tp3707
tp3708
a(g3704
(I84
I20
tp3709
tp3710
a((I96
I0
tp3711
(I96
I1
tp3712
tp3713
a(g3711
(I96
I2
tp3714
tp3715
a(g3711
(I96
I3
tp3716
tp3717
a(g3711
(I96
I4
tp3718
tp3719
a(g3711
(I96
I5
tp3720
tp3721
a(g3711
(I96
I6
tp3722
tp3723
a(g3711
(I96
I7
tp3724
tp3725
a(g3711
(I96
I8
tp3726
tp3727
a(g3711
(I96
I9
tp3728
tp3729
a(g3711
(I96
I10
tp3730
tp3731
a(g3711
(I96
I11
tp3732
tp3733
a(g3711
(I96
I12
tp3734
tp3735
a(g3711
(I96
I13
tp3736
tp3737
a(g3711
(I96
I14
tp3738
tp3739
a(g3711
(I96
I15
tp3740
tp3741
a(g3711
(I96
I16
tp3742
tp3743
a(g3711
(I96
I17
tp3744
tp3745
a(g3711
(I96
I18
tp3746
tp3747
a(g3711
(I96
I19
tp3748
tp3749
a(g3711
(I96
I20
tp3750
tp3751
a(g3711
(I96
I21
tp3752
tp3753
a(g3711
(I96
I22
tp3754
tp3755
a((I96
I1
tp3756
(I96
I2
tp3757
tp3758
a(g3756
(I96
I3
tp3759
tp3760
a(g3756
(I96
I4
tp3761
tp3762
a(g3756
(I96
I5
tp3763
tp3764
a(g3756
(I96
I6
tp3765
tp3766
a(g3756
(I96
I7
tp3767
tp3768
a(g3756
(I96
I8
tp3769
tp3770
a(g3756
(I96
I9
tp3771
tp3772
a(g3756
(I96
I10
tp3773
tp3774
a(g3756
(I96
I11
tp3775
tp3776
a(g3756
(I96
I12
tp3777
tp3778
a(g3756
(I96
I13
tp3779
tp3780
a(g3756
(I96
I14
tp3781
tp3782
a(g3756
(I96
I15
tp3783
tp3784
a(g3756
(I96
I16
tp3785
tp3786
a(g3756
(I96
I17
tp3787
tp3788
a(g3756
(I96
I18
tp3789
tp3790
a(g3756
(I96
I19
tp3791
tp3792
a(g3756
(I96
I20
tp3793
tp3794
a(g3756
(I96
I21
tp3795
tp3796
a(g3756
(I96
I22
tp3797
tp3798
a((I96
I2
tp3799
(I96
I3
tp3800
tp3801
a(g3799
(I96
I4
tp3802
tp3803
a(g3799
(I96
I5
tp3804
tp3805
a(g3799
(I96
I6
tp3806
tp3807
a(g3799
(I96
I7
tp3808
tp3809
a(g3799
(I96
I8
tp3810
tp3811
a(g3799
(I96
I9
tp3812
tp3813
a(g3799
(I96
I10
tp3814
tp3815
a(g3799
(I96
I11
tp3816
tp3817
a(g3799
(I96
I12
tp3818
tp3819
a(g3799
(I96
I13
tp3820
tp3821
a(g3799
(I96
I14
tp3822
tp3823
a(g3799
(I96
I15
tp3824
tp3825
a(g3799
(I96
I16
tp3826
tp3827
a(g3799
(I96
I17
tp3828
tp3829
a(g3799
(I96
I18
tp3830
tp3831
a(g3799
(I96
I19
tp3832
tp3833
a(g3799
(I96
I20
tp3834
tp3835
a(g3799
(I96
I21
tp3836
tp3837
a(g3799
(I96
I22
tp3838
tp3839
a((I96
I3
tp3840
(I96
I4
tp3841
tp3842
a(g3840
(I96
I5
tp3843
tp3844
a(g3840
(I96
I6
tp3845
tp3846
a(g3840
(I96
I7
tp3847
tp3848
a(g3840
(I96
I8
tp3849
tp3850
a(g3840
(I96
I9
tp3851
tp3852
a(g3840
(I96
I10
tp3853
tp3854
a(g3840
(I96
I11
tp3855
tp3856
a(g3840
(I96
I12
tp3857
tp3858
a(g3840
(I96
I13
tp3859
tp3860
a(g3840
(I96
I14
tp3861
tp3862
a(g3840
(I96
I15
tp3863
tp3864
a(g3840
(I96
I16
tp3865
tp3866
a(g3840
(I96
I17
tp3867
tp3868
a(g3840
(I96
I18
tp3869
tp3870
a(g3840
(I96
I19
tp3871
tp3872
a(g3840
(I96
I20
tp3873
tp3874
a(g3840
(I96
I21
tp3875
tp3876
a(g3840
(I96
I22
tp3877
tp3878
a((I96
I4
tp3879
(I96
I5
tp3880
tp3881
a(g3879
(I96
I6
tp3882
tp3883
a(g3879
(I96
I7
tp3884
tp3885
a(g3879
(I96
I8
tp3886
tp3887
a(g3879
(I96
I9
tp3888
tp3889
a(g3879
(I96
I10
tp3890
tp3891
a(g3879
(I96
I11
tp3892
tp3893
a(g3879
(I96
I12
tp3894
tp3895
a(g3879
(I96
I13
tp3896
tp3897
a(g3879
(I96
I14
tp3898
tp3899
a(g3879
(I96
I15
tp3900
tp3901
a(g3879
(I96
I16
tp3902
tp3903
a(g3879
(I96
I17
tp3904
tp3905
a(g3879
(I96
I18
tp3906
tp3907
a(g3879
(I96
I19
tp3908
tp3909
a(g3879
(I96
I20
tp3910
tp3911
a(g3879
(I96
I21
tp3912
tp3913
a(g3879
(I96
I22
tp3914
tp3915
a((I96
I5
tp3916
(I96
I6
tp3917
tp3918
a(g3916
(I96
I7
tp3919
tp3920
a(g3916
(I96
I8
tp3921
tp3922
a(g3916
(I96
I9
tp3923
tp3924
a(g3916
(I96
I10
tp3925
tp3926
a(g3916
(I96
I11
tp3927
tp3928
a(g3916
(I96
I12
tp3929
tp3930
a(g3916
(I96
I13
tp3931
tp3932
a(g3916
(I96
I14
tp3933
tp3934
a(g3916
(I96
I15
tp3935
tp3936
a(g3916
(I96
I16
tp3937
tp3938
a(g3916
(I96
I17
tp3939
tp3940
a(g3916
(I96
I18
tp3941
tp3942
a(g3916
(I96
I19
tp3943
tp3944
a(g3916
(I96
I20
tp3945
tp3946
a(g3916
(I96
I21
tp3947
tp3948
a(g3916
(I96
I22
tp3949
tp3950
a((I96
I6
tp3951
(I96
I7
tp3952
tp3953
a(g3951
(I96
I8
tp3954
tp3955
a(g3951
(I96
I9
tp3956
tp3957
a(g3951
(I96
I10
tp3958
tp3959
a(g3951
(I96
I11
tp3960
tp3961
a(g3951
(I96
I12
tp3962
tp3963
a(g3951
(I96
I13
tp3964
tp3965
a(g3951
(I96
I14
tp3966
tp3967
a(g3951
(I96
I15
tp3968
tp3969
a(g3951
(I96
I16
tp3970
tp3971
a(g3951
(I96
I17
tp3972
tp3973
a(g3951
(I96
I18
tp3974
tp3975
a(g3951
(I96
I19
tp3976
tp3977
a(g3951
(I96
I20
tp3978
tp3979
a(g3951
(I96
I21
tp3980
tp3981
a(g3951
(I96
I22
tp3982
tp3983
a((I96
I7
tp3984
(I96
I8
tp3985
tp3986
a(g3984
(I96
I9
tp3987
tp3988
a(g3984
(I96
I10
tp3989
tp3990
a(g3984
(I96
I11
tp3991
tp3992
a(g3984
(I96
I12
tp3993
tp3994
a(g3984
(I96
I13
tp3995
tp3996
a(g3984
(I96
I14
tp3997
tp3998
a(g3984
(I96
I15
tp3999
tp4000
a(g3984
(I96
I16
tp4001
tp4002
a(g3984
(I96
I17
tp4003
tp4004
a(g3984
(I96
I18
tp4005
tp4006
a(g3984
(I96
I19
tp4007
tp4008
a(g3984
(I96
I20
tp4009
tp4010
a(g3984
(I96
I21
tp4011
tp4012
a(g3984
(I96
I22
tp4013
tp4014
a((I96
I8
tp4015
(I96
I9
tp4016
tp4017
a(g4015
(I96
I10
tp4018
tp4019
a(g4015
(I96
I11
tp4020
tp4021
a(g4015
(I96
I12
tp4022
tp4023
a(g4015
(I96
I13
tp4024
tp4025
a(g4015
(I96
I14
tp4026
tp4027
a(g4015
(I96
I15
tp4028
tp4029
a(g4015
(I96
I16
tp4030
tp4031
a(g4015
(I96
I17
tp4032
tp4033
a(g4015
(I96
I18
tp4034
tp4035
a(g4015
(I96
I19
tp4036
tp4037
a(g4015
(I96
I20
tp4038
tp4039
a(g4015
(I96
I21
tp4040
tp4041
a(g4015
(I96
I22
tp4042
tp4043
a((I96
I9
tp4044
(I96
I10
tp4045
tp4046
a(g4044
(I96
I11
tp4047
tp4048
a(g4044
(I96
I12
tp4049
tp4050
a(g4044
(I96
I13
tp4051
tp4052
a(g4044
(I96
I14
tp4053
tp4054
a(g4044
(I96
I15
tp4055
tp4056
a(g4044
(I96
I16
tp4057
tp4058
a(g4044
(I96
I17
tp4059
tp4060
a(g4044
(I96
I18
tp4061
tp4062
a(g4044
(I96
I19
tp4063
tp4064
a(g4044
(I96
I20
tp4065
tp4066
a(g4044
(I96
I21
tp4067
tp4068
a(g4044
(I96
I22
tp4069
tp4070
a((I96
I10
tp4071
(I96
I11
tp4072
tp4073
a(g4071
(I96
I12
tp4074
tp4075
a(g4071
(I96
I13
tp4076
tp4077
a(g4071
(I96
I14
tp4078
tp4079
a(g4071
(I96
I15
tp4080
tp4081
a(g4071
(I96
I16
tp4082
tp4083
a(g4071
(I96
I17
tp4084
tp4085
a(g4071
(I96
I18
tp4086
tp4087
a(g4071
(I96
I19
tp4088
tp4089
a(g4071
(I96
I20
tp4090
tp4091
a(g4071
(I96
I21
tp4092
tp4093
a(g4071
(I96
I22
tp4094
tp4095
a((I96
I11
tp4096
(I96
I12
tp4097
tp4098
a(g4096
(I96
I13
tp4099
tp4100
a(g4096
(I96
I14
tp4101
tp4102
a(g4096
(I96
I15
tp4103
tp4104
a(g4096
(I96
I16
tp4105
tp4106
a(g4096
(I96
I17
tp4107
tp4108
a(g4096
(I96
I18
tp4109
tp4110
a(g4096
(I96
I19
tp4111
tp4112
a(g4096
(I96
I20
tp4113
tp4114
a(g4096
(I96
I21
tp4115
tp4116
a(g4096
(I96
I22
tp4117
tp4118
a((I96
I12
tp4119
(I96
I13
tp4120
tp4121
a(g4119
(I96
I14
tp4122
tp4123
a(g4119
(I96
I15
tp4124
tp4125
a(g4119
(I96
I16
tp4126
tp4127
a(g4119
(I96
I17
tp4128
tp4129
a(g4119
(I96
I18
tp4130
tp4131
a(g4119
(I96
I19
tp4132
tp4133
a(g4119
(I96
I20
tp4134
tp4135
a(g4119
(I96
I21
tp4136
tp4137
a(g4119
(I96
I22
tp4138
tp4139
a((I96
I13
tp4140
(I96
I14
tp4141
tp4142
a(g4140
(I96
I15
tp4143
tp4144
a(g4140
(I96
I16
tp4145
tp4146
a(g4140
(I96
I17
tp4147
tp4148
a(g4140
(I96
I18
tp4149
tp4150
a(g4140
(I96
I19
tp4151
tp4152
a(g4140
(I96
I20
tp4153
tp4154
a(g4140
(I96
I21
tp4155
tp4156
a(g4140
(I96
I22
tp4157
tp4158
a((I96
I14
tp4159
(I96
I15
tp4160
tp4161
a(g4159
(I96
I16
tp4162
tp4163
a(g4159
(I96
I17
tp4164
tp4165
a(g4159
(I96
I18
tp4166
tp4167
a(g4159
(I96
I19
tp4168
tp4169
a(g4159
(I96
I20
tp4170
tp4171
a(g4159
(I96
I21
tp4172
tp4173
a(g4159
(I96
I22
tp4174
tp4175
a((I96
I15
tp4176
(I96
I16
tp4177
tp4178
a(g4176
(I96
I17
tp4179
tp4180
a(g4176
(I96
I18
tp4181
tp4182
a(g4176
(I96
I19
tp4183
tp4184
a(g4176
(I96
I20
tp4185
tp4186
a(g4176
(I96
I21
tp4187
tp4188
a(g4176
(I96
I22
tp4189
tp4190
a((I96
I16
tp4191
(I96
I17
tp4192
tp4193
a(g4191
(I96
I18
tp4194
tp4195
a(g4191
(I96
I19
tp4196
tp4197
a(g4191
(I96
I20
tp4198
tp4199
a(g4191
(I96
I21
tp4200
tp4201
a(g4191
(I96
I22
tp4202
tp4203
a((I96
I17
tp4204
(I96
I18
tp4205
tp4206
a(g4204
(I96
I19
tp4207
tp4208
a(g4204
(I96
I20
tp4209
tp4210
a(g4204
(I96
I21
tp4211
tp4212
a(g4204
(I96
I22
tp4213
tp4214
a((I96
I18
tp4215
(I96
I19
tp4216
tp4217
a(g4215
(I96
I20
tp4218
tp4219
a(g4215
(I96
I21
tp4220
tp4221
a(g4215
(I96
I22
tp4222
tp4223
a((I96
I19
tp4224
(I96
I20
tp4225
tp4226
a(g4224
(I96
I21
tp4227
tp4228
a(g4224
(I96
I22
tp4229
tp4230
a((I96
I20
tp4231
(I96
I21
tp4232
tp4233
a(g4231
(I96
I22
tp4234
tp4235
a((I96
I21
tp4236
(I96
I22
tp4237
tp4238
asS'three'
p4239
(lp4240
((I1
I2
tp4241
(I1
I3
tp4242
tp4243
a(g4241
(I1
I4
tp4244
tp4245
a(g4241
(I1
I5
tp4246
tp4247
a(g4241
(I1
I6
tp4248
tp4249
a(g4241
(I1
I7
tp4250
tp4251
a(g4241
(I1
I8
tp4252
tp4253
a((I1
I5
tp4254
(I1
I6
tp4255
tp4256
a(g4254
(I1
I7
tp4257
tp4258
a(g4254
(I1
I8
tp4259
tp4260
a((I2
I2
tp4261
(I2
I3
tp4262
tp4263
a(g4261
(I2
I4
tp4264
tp4265
a(g4261
(I2
I5
tp4266
tp4267
a(g4261
(I2
I6
tp4268
tp4269
a(g4261
(I2
I7
tp4270
tp4271
a(g4261
(I2
I8
tp4272
tp4273
a((I2
I5
tp4274
(I2
I6
tp4275
tp4276
a(g4274
(I2
I7
tp4277
tp4278
a(g4274
(I2
I8
tp4279
tp4280
a((I3
I2
tp4281
(I3
I3
tp4282
tp4283
a(g4281
(I3
I4
tp4284
tp4285
a(g4281
(I3
I5
tp4286
tp4287
a(g4281
(I3
I6
tp4288
tp4289
a(g4281
(I3
I7
tp4290
tp4291
a(g4281
(I3
I8
tp4292
tp4293
a((I3
I5
tp4294
(I3
I6
tp4295
tp4296
a(g4294
(I3
I7
tp4297
tp4298
a(g4294
(I3
I8
tp4299
tp4300
a((I4
I2
tp4301
(I4
I3
tp4302
tp4303
a(g4301
(I4
I4
tp4304
tp4305
a(g4301
(I4
I5
tp4306
tp4307
a(g4301
(I4
I6
tp4308
tp4309
a(g4301
(I4
I7
tp4310
tp4311
a(g4301
(I4
I8
tp4312
tp4313
a((I4
I5
tp4314
(I4
I6
tp4315
tp4316
a(g4314
(I4
I7
tp4317
tp4318
a(g4314
(I4
I8
tp4319
tp4320
a((I5
I2
tp4321
(I5
I3
tp4322
tp4323
a(g4321
(I5
I4
tp4324
tp4325
a(g4321
(I5
I5
tp4326
tp4327
a(g4321
(I5
I6
tp4328
tp4329
a(g4321
(I5
I7
tp4330
tp4331
a(g4321
(I5
I8
tp4332
tp4333
a((I5
I5
tp4334
(I5
I6
tp4335
tp4336
a(g4334
(I5
I7
tp4337
tp4338
a(g4334
(I5
I8
tp4339
tp4340
a((I6
I2
tp4341
(I6
I3
tp4342
tp4343
a(g4341
(I6
I4
tp4344
tp4345
a(g4341
(I6
I5
tp4346
tp4347
a(g4341
(I6
I6
tp4348
tp4349
a(g4341
(I6
I7
tp4350
tp4351
a(g4341
(I6
I8
tp4352
tp4353
a((I6
I5
tp4354
(I6
I6
tp4355
tp4356
a(g4354
(I6
I7
tp4357
tp4358
a(g4354
(I6
I8
tp4359
tp4360
a((I7
I2
tp4361
(I7
I3
tp4362
tp4363
a(g4361
(I7
I4
tp4364
tp4365
a(g4361
(I7
I5
tp4366
tp4367
a(g4361
(I7
I6
tp4368
tp4369
a(g4361
(I7
I7
tp4370
tp4371
a(g4361
(I7
I8
tp4372
tp4373
a((I7
I5
tp4374
(I7
I6
tp4375
tp4376
a(g4374
(I7
I7
tp4377
tp4378
a(g4374
(I7
I8
tp4379
tp4380
a((I11
I2
tp4381
(I11
I3
tp4382
tp4383
a(g4381
(I11
I4
tp4384
tp4385
a(g4381
(I11
I5
tp4386
tp4387
a(g4381
(I11
I6
tp4388
tp4389
a(g4381
(I11
I7
tp4390
tp4391
a(g4381
(I11
I8
tp4392
tp4393
a((I11
I5
tp4394
(I11
I6
tp4395
tp4396
a(g4394
(I11
I7
tp4397
tp4398
a(g4394
(I11
I8
tp4399
tp4400
a((I12
I2
tp4401
(I12
I3
tp4402
tp4403
a(g4401
(I12
I4
tp4404
tp4405
a(g4401
(I12
I5
tp4406
tp4407
a(g4401
(I12
I6
tp4408
tp4409
a(g4401
(I12
I7
tp4410
tp4411
a(g4401
(I12
I8
tp4412
tp4413
a((I12
I5
tp4414
(I12
I6
tp4415
tp4416
a(g4414
(I12
I7
tp4417
tp4418
a(g4414
(I12
I8
tp4419
tp4420
a((I13
I2
tp4421
(I13
I3
tp4422
tp4423
a(g4421
(I13
I4
tp4424
tp4425
a(g4421
(I13
I5
tp4426
tp4427
a(g4421
(I13
I6
tp4428
tp4429
a(g4421
(I13
I7
tp4430
tp4431
a(g4421
(I13
I8
tp4432
tp4433
a((I13
I5
tp4434
(I13
I6
tp4435
tp4436
a(g4434
(I13
I7
tp4437
tp4438
a(g4434
(I13
I8
tp4439
tp4440
a((I14
I2
tp4441
(I14
I3
tp4442
tp4443
a(g4441
(I14
I4
tp4444
tp4445
a(g4441
(I14
I5
tp4446
tp4447
a(g4441
(I14
I6
tp4448
tp4449
a(g4441
(I14
I7
tp4450
tp4451
a(g4441
(I14
I8
tp4452
tp4453
a((I14
I5
tp4454
(I14
I6
tp4455
tp4456
a(g4454
(I14
I7
tp4457
tp4458
a(g4454
(I14
I8
tp4459
tp4460
a((I15
I2
tp4461
(I15
I3
tp4462
tp4463
a(g4461
(I15
I4
tp4464
tp4465
a(g4461
(I15
I5
tp4466
tp4467
a(g4461
(I15
I6
tp4468
tp4469
a(g4461
(I15
I7
tp4470
tp4471
a(g4461
(I15
I8
tp4472
tp4473
a((I15
I5
tp4474
(I15
I6
tp4475
tp4476
a(g4474
(I15
I7
tp4477
tp4478
a(g4474
(I15
I8
tp4479
tp4480
a((I16
I2
tp4481
(I16
I3
tp4482
tp4483
a(g4481
(I16
I4
tp4484
tp4485
a(g4481
(I16
I5
tp4486
tp4487
a(g4481
(I16
I6
tp4488
tp4489
a(g4481
(I16
I7
tp4490
tp4491
a(g4481
(I16
I8
tp4492
tp4493
a((I16
I5
tp4494
(I16
I6
tp4495
tp4496
a(g4494
(I16
I7
tp4497
tp4498
a(g4494
(I16
I8
tp4499
tp4500
a((I20
I2
tp4501
(I20
I3
tp4502
tp4503
a(g4501
(I20
I4
tp4504
tp4505
a(g4501
(I20
I5
tp4506
tp4507
a(g4501
(I20
I6
tp4508
tp4509
a(g4501
(I20
I7
tp4510
tp4511
a(g4501
(I20
I8
tp4512
tp4513
a((I20
I5
tp4514
(I20
I6
tp4515
tp4516
a(g4514
(I20
I7
tp4517
tp4518
a(g4514
(I20
I8
tp4519
tp4520
a((I22
I0
tp4521
(I22
I1
tp4522
tp4523
a(g4521
(I22
I2
tp4524
tp4525
a(g4521
(I22
I3
tp4526
tp4527
a(g4521
(I22
I4
tp4528
tp4529
a(g4521
(I22
I5
tp4530
tp4531
a((I22
I1
tp4532
(I22
I2
tp4533
tp4534
a(g4532
(I22
I3
tp4535
tp4536
a(g4532
(I22
I4
tp4537
tp4538
a(g4532
(I22
I5
tp4539
tp4540
a((I22
I2
tp4541
(I22
I3
tp4542
tp4543
a(g4541
(I22
I4
tp4544
tp4545
a(g4541
(I22
I5
tp4546
tp4547
a((I22
I3
tp4548
(I22
I4
tp4549
tp4550
a(g4548
(I22
I5
tp4551
tp4552
a((I22
I4
tp4553
(I22
I5
tp4554
tp4555
a((I23
I0
tp4556
(I23
I1
tp4557
tp4558
a(g4556
(I23
I2
tp4559
tp4560
a(g4556
(I23
I3
tp4561
tp4562
a((I23
I1
tp4563
(I23
I2
tp4564
tp4565
a(g4563
(I23
I3
tp4566
tp4567
a((I23
I2
tp4568
(I23
I3
tp4569
tp4570
a((I24
I0
tp4571
(I24
I1
tp4572
tp4573
a(g4571
(I24
I2
tp4574
tp4575
a(g4571
(I24
I3
tp4576
tp4577
a((I24
I1
tp4578
(I24
I2
tp4579
tp4580
a(g4578
(I24
I3
tp4581
tp4582
a((I24
I2
tp4583
(I24
I3
tp4584
tp4585
a((I27
I2
tp4586
(I27
I3
tp4587
tp4588
a(g4586
(I27
I4
tp4589
tp4590
a(g4586
(I27
I5
tp4591
tp4592
a(g4586
(I27
I6
tp4593
tp4594
a(g4586
(I27
I7
tp4595
tp4596
a(g4586
(I27
I8
tp4597
tp4598
a((I27
I5
tp4599
(I27
I6
tp4600
tp4601
a(g4599
(I27
I7
tp4602
tp4603
a(g4599
(I27
I8
tp4604
tp4605
a((I28
I2
tp4606
(I28
I3
tp4607
tp4608
a(g4606
(I28
I4
tp4609
tp4610
a(g4606
(I28
I5
tp4611
tp4612
a(g4606
(I28
I6
tp4613
tp4614
a(g4606
(I28
I7
tp4615
tp4616
a(g4606
(I28
I8
tp4617
tp4618
a((I28
I5
tp4619
(I28
I6
tp4620
tp4621
a(g4619
(I28
I7
tp4622
tp4623
a(g4619
(I28
I8
tp4624
tp4625
a((I29
I2
tp4626
(I29
I3
tp4627
tp4628
a(g4626
(I29
I4
tp4629
tp4630
a(g4626
(I29
I5
tp4631
tp4632
a(g4626
(I29
I6
tp4633
tp4634
a(g4626
(I29
I7
tp4635
tp4636
a(g4626
(I29
I8
tp4637
tp4638
a((I29
I5
tp4639
(I29
I6
tp4640
tp4641
a(g4639
(I29
I7
tp4642
tp4643
a(g4639
(I29
I8
tp4644
tp4645
a((I30
I2
tp4646
(I30
I3
tp4647
tp4648
a(g4646
(I30
I4
tp4649
tp4650
a(g4646
(I30
I5
tp4651
tp4652
a(g4646
(I30
I6
tp4653
tp4654
a(g4646
(I30
I7
tp4655
tp4656
a(g4646
(I30
I8
tp4657
tp4658
a((I30
I5
tp4659
(I30
I6
tp4660
tp4661
a(g4659
(I30
I7
tp4662
tp4663
a(g4659
(I30
I8
tp4664
tp4665
a((I31
I2
tp4666
(I31
I3
tp4667
tp4668
a(g4666
(I31
I4
tp4669
tp4670
a(g4666
(I31
I5
tp4671
tp4672
a(g4666
(I31
I6
tp4673
tp4674
a(g4666
(I31
I7
tp4675
tp4676
a(g4666
(I31
I8
tp4677
tp4678
a((I31
I5
tp4679
(I31
I6
tp4680
tp4681
a(g4679
(I31
I7
tp4682
tp4683
a(g4679
(I31
I8
tp4684
tp4685
a((I34
I2
tp4686
(I34
I3
tp4687
tp4688
a(g4686
(I34
I4
tp4689
tp4690
a(g4686
(I34
I5
tp4691
tp4692
a(g4686
(I34
I6
tp4693
tp4694
a(g4686
(I34
I7
tp4695
tp4696
a(g4686
(I34
I8
tp4697
tp4698
a((I34
I5
tp4699
(I34
I6
tp4700
tp4701
a(g4699
(I34
I7
tp4702
tp4703
a(g4699
(I34
I8
tp4704
tp4705
a((I35
I2
tp4706
(I35
I3
tp4707
tp4708
a(g4706
(I35
I4
tp4709
tp4710
a(g4706
(I35
I5
tp4711
tp4712
a(g4706
(I35
I6
tp4713
tp4714
a(g4706
(I35
I7
tp4715
tp4716
a(g4706
(I35
I8
tp4717
tp4718
a((I35
I5
tp4719
(I35
I6
tp4720
tp4721
a(g4719
(I35
I7
tp4722
tp4723
a(g4719
(I35
I8
tp4724
tp4725
a((I36
I2
tp4726
(I36
I3
tp4727
tp4728
a(g4726
(I36
I4
tp4729
tp4730
a(g4726
(I36
I5
tp4731
tp4732
a(g4726
(I36
I6
tp4733
tp4734
a(g4726
(I36
I7
tp4735
tp4736
a(g4726
(I36
I8
tp4737
tp4738
a((I36
I5
tp4739
(I36
I6
tp4740
tp4741
a(g4739
(I36
I7
tp4742
tp4743
a(g4739
(I36
I8
tp4744
tp4745
a((I37
I2
tp4746
(I37
I3
tp4747
tp4748
a(g4746
(I37
I4
tp4749
tp4750
a(g4746
(I37
I5
tp4751
tp4752
a(g4746
(I37
I6
tp4753
tp4754
a(g4746
(I37
I7
tp4755
tp4756
a(g4746
(I37
I8
tp4757
tp4758
a((I37
I5
tp4759
(I37
I6
tp4760
tp4761
a(g4759
(I37
I7
tp4762
tp4763
a(g4759
(I37
I8
tp4764
tp4765
a((I38
I2
tp4766
(I38
I3
tp4767
tp4768
a(g4766
(I38
I4
tp4769
tp4770
a(g4766
(I38
I5
tp4771
tp4772
a(g4766
(I38
I6
tp4773
tp4774
a(g4766
(I38
I7
tp4775
tp4776
a(g4766
(I38
I8
tp4777
tp4778
a((I38
I5
tp4779
(I38
I6
tp4780
tp4781
a(g4779
(I38
I7
tp4782
tp4783
a(g4779
(I38
I8
tp4784
tp4785
a((I39
I2
tp4786
(I39
I3
tp4787
tp4788
a(g4786
(I39
I4
tp4789
tp4790
a(g4786
(I39
I5
tp4791
tp4792
a(g4786
(I39
I6
tp4793
tp4794
a(g4786
(I39
I7
tp4795
tp4796
a(g4786
(I39
I8
tp4797
tp4798
a((I39
I5
tp4799
(I39
I6
tp4800
tp4801
a(g4799
(I39
I7
tp4802
tp4803
a(g4799
(I39
I8
tp4804
tp4805
a((I43
I2
tp4806
(I43
I3
tp4807
tp4808
a(g4806
(I43
I4
tp4809
tp4810
a(g4806
(I43
I5
tp4811
tp4812
a(g4806
(I43
I6
tp4813
tp4814
a(g4806
(I43
I7
tp4815
tp4816
a(g4806
(I43
I8
tp4817
tp4818
a((I43
I5
tp4819
(I43
I6
tp4820
tp4821
a(g4819
(I43
I7
tp4822
tp4823
a(g4819
(I43
I8
tp4824
tp4825
a((I44
I2
tp4826
(I44
I3
tp4827
tp4828
a(g4826
(I44
I4
tp4829
tp4830
a(g4826
(I44
I5
tp4831
tp4832
a(g4826
(I44
I6
tp4833
tp4834
a(g4826
(I44
I7
tp4835
tp4836
a(g4826
(I44
I8
tp4837
tp4838
a((I44
I5
tp4839
(I44
I6
tp4840
tp4841
a(g4839
(I44
I7
tp4842
tp4843
a(g4839
(I44
I8
tp4844
tp4845
a((I46
I2
tp4846
(I46
I3
tp4847
tp4848
a(g4846
(I46
I4
tp4849
tp4850
a(g4846
(I46
I5
tp4851
tp4852
a(g4846
(I46
I6
tp4853
tp4854
a(g4846
(I46
I7
tp4855
tp4856
a(g4846
(I46
I8
tp4857
tp4858
a((I46
I5
tp4859
(I46
I6
tp4860
tp4861
a(g4859
(I46
I7
tp4862
tp4863
a(g4859
(I46
I8
tp4864
tp4865
a((I47
I2
tp4866
(I47
I3
tp4867
tp4868
a(g4866
(I47
I4
tp4869
tp4870
a(g4866
(I47
I5
tp4871
tp4872
a(g4866
(I47
I6
tp4873
tp4874
a(g4866
(I47
I7
tp4875
tp4876
a(g4866
(I47
I8
tp4877
tp4878
a((I47
I5
tp4879
(I47
I6
tp4880
tp4881
a(g4879
(I47
I7
tp4882
tp4883
a(g4879
(I47
I8
tp4884
tp4885
a((I48
I2
tp4886
(I48
I3
tp4887
tp4888
a(g4886
(I48
I4
tp4889
tp4890
a(g4886
(I48
I5
tp4891
tp4892
a(g4886
(I48
I6
tp4893
tp4894
a(g4886
(I48
I7
tp4895
tp4896
a(g4886
(I48
I8
tp4897
tp4898
a((I48
I5
tp4899
(I48
I6
tp4900
tp4901
a(g4899
(I48
I7
tp4902
tp4903
a(g4899
(I48
I8
tp4904
tp4905
a((I49
I2
tp4906
(I49
I3
tp4907
tp4908
a(g4906
(I49
I4
tp4909
tp4910
a(g4906
(I49
I5
tp4911
tp4912
a(g4906
(I49
I6
tp4913
tp4914
a(g4906
(I49
I7
tp4915
tp4916
a(g4906
(I49
I8
tp4917
tp4918
a((I49
I5
tp4919
(I49
I6
tp4920
tp4921
a(g4919
(I49
I7
tp4922
tp4923
a(g4919
(I49
I8
tp4924
tp4925
a((I50
I2
tp4926
(I50
I3
tp4927
tp4928
a(g4926
(I50
I4
tp4929
tp4930
a(g4926
(I50
I5
tp4931
tp4932
a(g4926
(I50
I6
tp4933
tp4934
a(g4926
(I50
I7
tp4935
tp4936
a(g4926
(I50
I8
tp4937
tp4938
a((I50
I5
tp4939
(I50
I6
tp4940
tp4941
a(g4939
(I50
I7
tp4942
tp4943
a(g4939
(I50
I8
tp4944
tp4945
a((I51
I2
tp4946
(I51
I3
tp4947
tp4948
a(g4946
(I51
I4
tp4949
tp4950
a(g4946
(I51
I5
tp4951
tp4952
a(g4946
(I51
I6
tp4953
tp4954
a(g4946
(I51
I7
tp4955
tp4956
a(g4946
(I51
I8
tp4957
tp4958
a((I51
I5
tp4959
(I51
I6
tp4960
tp4961
a(g4959
(I51
I7
tp4962
tp4963
a(g4959
(I51
I8
tp4964
tp4965
a((I52
I2
tp4966
(I52
I3
tp4967
tp4968
a(g4966
(I52
I4
tp4969
tp4970
a(g4966
(I52
I5
tp4971
tp4972
a(g4966
(I52
I6
tp4973
tp4974
a(g4966
(I52
I7
tp4975
tp4976
a(g4966
(I52
I8
tp4977
tp4978
a((I52
I5
tp4979
(I52
I6
tp4980
tp4981
a(g4979
(I52
I7
tp4982
tp4983
a(g4979
(I52
I8
tp4984
tp4985
a((I54
I2
tp4986
(I54
I3
tp4987
tp4988
a(g4986
(I54
I4
tp4989
tp4990
a(g4986
(I54
I5
tp4991
tp4992
a(g4986
(I54
I6
tp4993
tp4994
a(g4986
(I54
I7
tp4995
tp4996
a(g4986
(I54
I8
tp4997
tp4998
a((I54
I5
tp4999
(I54
I6
tp5000
tp5001
a(g4999
(I54
I7
tp5002
tp5003
a(g4999
(I54
I8
tp5004
tp5005
a((I55
I2
tp5006
(I55
I3
tp5007
tp5008
a(g5006
(I55
I4
tp5009
tp5010
a(g5006
(I55
I5
tp5011
tp5012
a(g5006
(I55
I6
tp5013
tp5014
a(g5006
(I55
I7
tp5015
tp5016
a(g5006
(I55
I8
tp5017
tp5018
a((I55
I5
tp5019
(I55
I6
tp5020
tp5021
a(g5019
(I55
I7
tp5022
tp5023
a(g5019
(I55
I8
tp5024
tp5025
a((I56
I2
tp5026
(I56
I3
tp5027
tp5028
a(g5026
(I56
I4
tp5029
tp5030
a(g5026
(I56
I5
tp5031
tp5032
a(g5026
(I56
I6
tp5033
tp5034
a(g5026
(I56
I7
tp5035
tp5036
a(g5026
(I56
I8
tp5037
tp5038
a((I56
I5
tp5039
(I56
I6
tp5040
tp5041
a(g5039
(I56
I7
tp5042
tp5043
a(g5039
(I56
I8
tp5044
tp5045
a((I59
I2
tp5046
(I59
I3
tp5047
tp5048
a(g5046
(I59
I4
tp5049
tp5050
a(g5046
(I59
I5
tp5051
tp5052
a(g5046
(I59
I6
tp5053
tp5054
a(g5046
(I59
I7
tp5055
tp5056
a(g5046
(I59
I8
tp5057
tp5058
a((I59
I5
tp5059
(I59
I6
tp5060
tp5061
a(g5059
(I59
I7
tp5062
tp5063
a(g5059
(I59
I8
tp5064
tp5065
a((I60
I2
tp5066
(I60
I3
tp5067
tp5068
a(g5066
(I60
I4
tp5069
tp5070
a(g5066
(I60
I5
tp5071
tp5072
a(g5066
(I60
I6
tp5073
tp5074
a(g5066
(I60
I7
tp5075
tp5076
a(g5066
(I60
I8
tp5077
tp5078
a((I60
I5
tp5079
(I60
I6
tp5080
tp5081
a(g5079
(I60
I7
tp5082
tp5083
a(g5079
(I60
I8
tp5084
tp5085
a((I61
I2
tp5086
(I61
I3
tp5087
tp5088
a(g5086
(I61
I4
tp5089
tp5090
a(g5086
(I61
I5
tp5091
tp5092
a(g5086
(I61
I6
tp5093
tp5094
a(g5086
(I61
I7
tp5095
tp5096
a(g5086
(I61
I8
tp5097
tp5098
a((I61
I5
tp5099
(I61
I6
tp5100
tp5101
a(g5099
(I61
I7
tp5102
tp5103
a(g5099
(I61
I8
tp5104
tp5105
a((I62
I2
tp5106
(I62
I3
tp5107
tp5108
a(g5106
(I62
I4
tp5109
tp5110
a(g5106
(I62
I5
tp5111
tp5112
a(g5106
(I62
I6
tp5113
tp5114
a(g5106
(I62
I7
tp5115
tp5116
a(g5106
(I62
I8
tp5117
tp5118
a((I62
I5
tp5119
(I62
I6
tp5120
tp5121
a(g5119
(I62
I7
tp5122
tp5123
a(g5119
(I62
I8
tp5124
tp5125
a((I63
I2
tp5126
(I63
I3
tp5127
tp5128
a(g5126
(I63
I4
tp5129
tp5130
a(g5126
(I63
I5
tp5131
tp5132
a(g5126
(I63
I6
tp5133
tp5134
a(g5126
(I63
I7
tp5135
tp5136
a(g5126
(I63
I8
tp5137
tp5138
a((I63
I5
tp5139
(I63
I6
tp5140
tp5141
a(g5139
(I63
I7
tp5142
tp5143
a(g5139
(I63
I8
tp5144
tp5145
a((I64
I2
tp5146
(I64
I3
tp5147
tp5148
a(g5146
(I64
I4
tp5149
tp5150
a(g5146
(I64
I5
tp5151
tp5152
a(g5146
(I64
I6
tp5153
tp5154
a(g5146
(I64
I7
tp5155
tp5156
a(g5146
(I64
I8
tp5157
tp5158
a((I64
I5
tp5159
(I64
I6
tp5160
tp5161
a(g5159
(I64
I7
tp5162
tp5163
a(g5159
(I64
I8
tp5164
tp5165
a((I67
I2
tp5166
(I67
I3
tp5167
tp5168
a(g5166
(I67
I4
tp5169
tp5170
a(g5166
(I67
I5
tp5171
tp5172
a(g5166
(I67
I6
tp5173
tp5174
a(g5166
(I67
I7
tp5175
tp5176
a(g5166
(I67
I8
tp5177
tp5178
a((I67
I5
tp5179
(I67
I6
tp5180
tp5181
a(g5179
(I67
I7
tp5182
tp5183
a(g5179
(I67
I8
tp5184
tp5185
a((I68
I2
tp5186
(I68
I3
tp5187
tp5188
a(g5186
(I68
I4
tp5189
tp5190
a(g5186
(I68
I5
tp5191
tp5192
a(g5186
(I68
I6
tp5193
tp5194
a(g5186
(I68
I7
tp5195
tp5196
a(g5186
(I68
I8
tp5197
tp5198
a((I68
I5
tp5199
(I68
I6
tp5200
tp5201
a(g5199
(I68
I7
tp5202
tp5203
a(g5199
(I68
I8
tp5204
tp5205
a((I69
I2
tp5206
(I69
I3
tp5207
tp5208
a(g5206
(I69
I4
tp5209
tp5210
a(g5206
(I69
I5
tp5211
tp5212
a(g5206
(I69
I6
tp5213
tp5214
a(g5206
(I69
I7
tp5215
tp5216
a(g5206
(I69
I8
tp5217
tp5218
a((I69
I5
tp5219
(I69
I6
tp5220
tp5221
a(g5219
(I69
I7
tp5222
tp5223
a(g5219
(I69
I8
tp5224
tp5225
a((I72
I0
tp5226
(I72
I1
tp5227
tp5228
a(g5226
(I72
I2
tp5229
tp5230
a(g5226
(I72
I3
tp5231
tp5232
a((I72
I1
tp5233
(I72
I2
tp5234
tp5235
a(g5233
(I72
I3
tp5236
tp5237
a((I72
I2
tp5238
(I72
I3
tp5239
tp5240
a((I75
I2
tp5241
(I75
I3
tp5242
tp5243
a(g5241
(I75
I4
tp5244
tp5245
a(g5241
(I75
I5
tp5246
tp5247
a(g5241
(I75
I6
tp5248
tp5249
a(g5241
(I75
I7
tp5250
tp5251
a(g5241
(I75
I8
tp5252
tp5253
a((I75
I5
tp5254
(I75
I6
tp5255
tp5256
a(g5254
(I75
I7
tp5257
tp5258
a(g5254
(I75
I8
tp5259
tp5260
a((I76
I2
tp5261
(I76
I3
tp5262
tp5263
a(g5261
(I76
I4
tp5264
tp5265
a(g5261
(I76
I5
tp5266
tp5267
a(g5261
(I76
I6
tp5268
tp5269
a(g5261
(I76
I7
tp5270
tp5271
a(g5261
(I76
I8
tp5272
tp5273
a((I76
I5
tp5274
(I76
I6
tp5275
tp5276
a(g5274
(I76
I7
tp5277
tp5278
a(g5274
(I76
I8
tp5279
tp5280
a((I77
I2
tp5281
(I77
I3
tp5282
tp5283
a(g5281
(I77
I4
tp5284
tp5285
a(g5281
(I77
I5
tp5286
tp5287
a(g5281
(I77
I6
tp5288
tp5289
a(g5281
(I77
I7
tp5290
tp5291
a(g5281
(I77
I8
tp5292
tp5293
a((I77
I5
tp5294
(I77
I6
tp5295
tp5296
a(g5294
(I77
I7
tp5297
tp5298
a(g5294
(I77
I8
tp5299
tp5300
a((I78
I2
tp5301
(I78
I3
tp5302
tp5303
a(g5301
(I78
I4
tp5304
tp5305
a(g5301
(I78
I5
tp5306
tp5307
a(g5301
(I78
I6
tp5308
tp5309
a(g5301
(I78
I7
tp5310
tp5311
a(g5301
(I78
I8
tp5312
tp5313
a((I78
I5
tp5314
(I78
I6
tp5315
tp5316
a(g5314
(I78
I7
tp5317
tp5318
a(g5314
(I78
I8
tp5319
tp5320
a((I79
I2
tp5321
(I79
I3
tp5322
tp5323
a(g5321
(I79
I4
tp5324
tp5325
a(g5321
(I79
I5
tp5326
tp5327
a(g5321
(I79
I6
tp5328
tp5329
a(g5321
(I79
I7
tp5330
tp5331
a(g5321
(I79
I8
tp5332
tp5333
a((I79
I5
tp5334
(I79
I6
tp5335
tp5336
a(g5334
(I79
I7
tp5337
tp5338
a(g5334
(I79
I8
tp5339
tp5340
a((I80
I2
tp5341
(I80
I3
tp5342
tp5343
a(g5341
(I80
I4
tp5344
tp5345
a(g5341
(I80
I5
tp5346
tp5347
a(g5341
(I80
I6
tp5348
tp5349
a(g5341
(I80
I7
tp5350
tp5351
a(g5341
(I80
I8
tp5352
tp5353
a((I80
I5
tp5354
(I80
I6
tp5355
tp5356
a(g5354
(I80
I7
tp5357
tp5358
a(g5354
(I80
I8
tp5359
tp5360
a((I81
I2
tp5361
(I81
I3
tp5362
tp5363
a(g5361
(I81
I4
tp5364
tp5365
a(g5361
(I81
I5
tp5366
tp5367
a(g5361
(I81
I6
tp5368
tp5369
a(g5361
(I81
I7
tp5370
tp5371
a(g5361
(I81
I8
tp5372
tp5373
a((I81
I5
tp5374
(I81
I6
tp5375
tp5376
a(g5374
(I81
I7
tp5377
tp5378
a(g5374
(I81
I8
tp5379
tp5380
a((I83
I2
tp5381
(I83
I3
tp5382
tp5383
a(g5381
(I83
I4
tp5384
tp5385
a(g5381
(I83
I5
tp5386
tp5387
a(g5381
(I83
I6
tp5388
tp5389
a(g5381
(I83
I7
tp5390
tp5391
a(g5381
(I83
I8
tp5392
tp5393
a((I83
I5
tp5394
(I83
I6
tp5395
tp5396
a(g5394
(I83
I7
tp5397
tp5398
a(g5394
(I83
I8
tp5399
tp5400
a((I84
I2
tp5401
(I84
I3
tp5402
tp5403
a(g5401
(I84
I4
tp5404
tp5405
a(g5401
(I84
I5
tp5406
tp5407
a(g5401
(I84
I6
tp5408
tp5409
a(g5401
(I84
I7
tp5410
tp5411
a(g5401
(I84
I8
tp5412
tp5413
a((I84
I5
tp5414
(I84
I6
tp5415
tp5416
a(g5414
(I84
I7
tp5417
tp5418
a(g5414
(I84
I8
tp5419
tp5420
a((I85
I2
tp5421
(I85
I3
tp5422
tp5423
a(g5421
(I85
I4
tp5424
tp5425
a(g5421
(I85
I5
tp5426
tp5427
a(g5421
(I85
I6
tp5428
tp5429
a(g5421
(I85
I7
tp5430
tp5431
a(g5421
(I85
I8
tp5432
tp5433
a((I85
I5
tp5434
(I85
I6
tp5435
tp5436
a(g5434
(I85
I7
tp5437
tp5438
a(g5434
(I85
I8
tp5439
tp5440
a((I86
I2
tp5441
(I86
I3
tp5442
tp5443
a(g5441
(I86
I4
tp5444
tp5445
a(g5441
(I86
I5
tp5446
tp5447
a(g5441
(I86
I6
tp5448
tp5449
a(g5441
(I86
I7
tp5450
tp5451
a(g5441
(I86
I8
tp5452
tp5453
a((I86
I5
tp5454
(I86
I6
tp5455
tp5456
a(g5454
(I86
I7
tp5457
tp5458
a(g5454
(I86
I8
tp5459
tp5460
a((I87
I2
tp5461
(I87
I3
tp5462
tp5463
a(g5461
(I87
I4
tp5464
tp5465
a(g5461
(I87
I5
tp5466
tp5467
a(g5461
(I87
I6
tp5468
tp5469
a(g5461
(I87
I7
tp5470
tp5471
a(g5461
(I87
I8
tp5472
tp5473
a((I87
I5
tp5474
(I87
I6
tp5475
tp5476
a(g5474
(I87
I7
tp5477
tp5478
a(g5474
(I87
I8
tp5479
tp5480
a((I89
I2
tp5481
(I89
I3
tp5482
tp5483
a(g5481
(I89
I4
tp5484
tp5485
a(g5481
(I89
I5
tp5486
tp5487
a(g5481
(I89
I6
tp5488
tp5489
a(g5481
(I89
I7
tp5490
tp5491
a(g5481
(I89
I8
tp5492
tp5493
a((I89
I5
tp5494
(I89
I6
tp5495
tp5496
a(g5494
(I89
I7
tp5497
tp5498
a(g5494
(I89
I8
tp5499
tp5500
a((I90
I2
tp5501
(I90
I3
tp5502
tp5503
a(g5501
(I90
I4
tp5504
tp5505
a(g5501
(I90
I5
tp5506
tp5507
a(g5501
(I90
I6
tp5508
tp5509
a(g5501
(I90
I7
tp5510
tp5511
a(g5501
(I90
I8
tp5512
tp5513
a((I90
I5
tp5514
(I90
I6
tp5515
tp5516
a(g5514
(I90
I7
tp5517
tp5518
a(g5514
(I90
I8
tp5519
tp5520
a((I91
I2
tp5521
(I91
I3
tp5522
tp5523
a(g5521
(I91
I4
tp5524
tp5525
a(g5521
(I91
I5
tp5526
tp5527
a(g5521
(I91
I6
tp5528
tp5529
a(g5521
(I91
I7
tp5530
tp5531
a(g5521
(I91
I8
tp5532
tp5533
a((I91
I5
tp5534
(I91
I6
tp5535
tp5536
a(g5534
(I91
I7
tp5537
tp5538
a(g5534
(I91
I8
tp5539
tp5540
a((I96
I0
tp5541
(I96
I1
tp5542
tp5543
a(g5541
(I96
I2
tp5544
tp5545
a(g5541
(I96
I3
tp5546
tp5547
a((I96
I1
tp5548
(I96
I2
tp5549
tp5550
a(g5548
(I96
I3
tp5551
tp5552
a((I96
I2
tp5553
(I96
I3
tp5554
tp5555
asS'one'
p5556
(lp5557
((I22
I0
tp5558
(I22
I1
tp5559
tp5560
a(g5558
(I22
I2
tp5561
tp5562
a(g5558
(I22
I3
tp5563
tp5564
a((I22
I1
tp5565
(I22
I2
tp5566
tp5567
a(g5565
(I22
I3
tp5568
tp5569
a((I22
I2
tp5570
(I22
I3
tp5571
tp5572
a((I23
I0
tp5573
(I23
I1
tp5574
tp5575
a((I24
I0
tp5576
(I24
I1
tp5577
tp5578
a((I72
I0
tp5579
(I72
I1
tp5580
tp5581
a((I96
I0
tp5582
(I96
I1
tp5583
tp5584
assS'prefix'
p5585
(dp5586
g214
(lp5587
(I0
I0
tp5588
a(I1
I0
tp5589
a(I1
I1
tp5590
a(I1
I2
tp5591
a(I1
I3
tp5592
a(I1
I4
tp5593
a(I1
I5
tp5594
a(I1
I6
tp5595
a(I1
I7
tp5596
a(I1
I8
tp5597
a(I1
I9
tp5598
a(I1
I10
tp5599
a(I1
I11
tp5600
a(I1
I12
tp5601
a(I1
I13
tp5602
a(I1
I14
tp5603
a(I1
I15
tp5604
a(I1
I16
tp5605
a(I1
I17
tp5606
a(I1
I18
tp5607
a(I1
I19
tp5608
a(I1
I20
tp5609
a(I1
I21
tp5610
a(I1
I22
tp5611
a(I1
I23
tp5612
a(I1
I24
tp5613
a(I1
I25
tp5614
a(I1
I26
tp5615
a(I1
I27
tp5616
a(I1
I28
tp5617
a(I1
I29
tp5618
a(I1
I30
tp5619
a(I1
I31
tp5620
a(I1
I32
tp5621
a(I1
I33
tp5622
a(I1
I34
tp5623
a(I1
I35
tp5624
a(I1
I36
tp5625
a(I1
I37
tp5626
a(I1
I38
tp5627
a(I1
I39
tp5628
a(I1
I40
tp5629
a(I1
I41
tp5630
a(I1
I42
tp5631
a(I1
I43
tp5632
a(I1
I44
tp5633
a(I1
I45
tp5634
a(I1
I46
tp5635
a(I1
I47
tp5636
a(I1
I48
tp5637
a(I1
I49
tp5638
a(I1
I50
tp5639
a(I1
I51
tp5640
a(I1
I52
tp5641
a(I1
I53
tp5642
a(I1
I54
tp5643
a(I1
I55
tp5644
a(I1
I56
tp5645
a(I1
I57
tp5646
a(I1
I58
tp5647
a(I1
I59
tp5648
a(I2
I0
tp5649
a(I2
I1
tp5650
a(I2
I2
tp5651
a(I2
I3
tp5652
a(I2
I4
tp5653
a(I2
I5
tp5654
a(I3
I0
tp5655
a(I3
I1
tp5656
a(I3
I2
tp5657
a(I3
I3
tp5658
a(I3
I4
tp5659
a(I3
I5
tp5660
a(I3
I6
tp5661
a(I3
I7
tp5662
a(I3
I8
tp5663
a(I3
I9
tp5664
a(I3
I10
tp5665
a(I3
I11
tp5666
a(I4
I0
tp5667
a(I4
I1
tp5668
a(I4
I2
tp5669
a(I4
I3
tp5670
a(I4
I4
tp5671
a(I4
I5
tp5672
a(I4
I6
tp5673
a(I4
I7
tp5674
a(I4
I8
tp5675
a(I4
I9
tp5676
a(I4
I10
tp5677
a(I4
I11
tp5678
a(I4
I12
tp5679
a(I4
I13
tp5680
a(I4
I14
tp5681
a(I4
I15
tp5682
a(I4
I16
tp5683
a(I4
I17
tp5684
a(I4
I18
tp5685
a(I4
I19
tp5686
a(I4
I20
tp5687
a(I4
I21
tp5688
a(I4
I22
tp5689
a(I4
I23
tp5690
a(I4
I24
tp5691
a(I4
I25
tp5692
a(I4
I26
tp5693
a(I4
I27
tp5694
a(I4
I28
tp5695
a(I4
I29
tp5696
a(I4
I30
tp5697
a(I4
I31
tp5698
a(I4
I32
tp5699
a(I4
I33
tp5700
a(I4
I34
tp5701
a(I4
I35
tp5702
a(I4
I36
tp5703
a(I4
I37
tp5704
a(I4
I38
tp5705
a(I4
I39
tp5706
a(I4
I40
tp5707
a(I4
I41
tp5708
a(I4
I42
tp5709
a(I4
I43
tp5710
a(I4
I44
tp5711
a(I4
I45
tp5712
a(I4
I46
tp5713
a(I4
I47
tp5714
a(I4
I48
tp5715
a(I4
I49
tp5716
a(I4
I50
tp5717
a(I4
I51
tp5718
a(I4
I52
tp5719
a(I4
I53
tp5720
a(I4
I54
tp5721
a(I4
I55
tp5722
a(I4
I56
tp5723
a(I4
I57
tp5724
a(I4
I58
tp5725
a(I4
I59
tp5726
a(I5
I0
tp5727
a(I5
I1
tp5728
a(I5
I2
tp5729
a(I5
I3
tp5730
a(I5
I4
tp5731
a(I5
I5
tp5732
a(I5
I6
tp5733
a(I5
I7
tp5734
a(I5
I8
tp5735
a(I5
I9
tp5736
a(I5
I10
tp5737
a(I5
I11
tp5738
a(I6
I0
tp5739
a(I6
I1
tp5740
a(I6
I2
tp5741
a(I6
I3
tp5742
a(I6
I4
tp5743
a(I6
I5
tp5744
a(I6
I6
tp5745
a(I6
I7
tp5746
a(I6
I8
tp5747
a(I6
I9
tp5748
a(I6
I10
tp5749
a(I6
I11
tp5750
a(I7
I0
tp5751
a(I7
I1
tp5752
a(I7
I2
tp5753
a(I7
I3
tp5754
a(I7
I4
tp5755
a(I7
I5
tp5756
a(I7
I6
tp5757
a(I7
I7
tp5758
a(I7
I8
tp5759
a(I7
I9
tp5760
a(I7
I10
tp5761
a(I7
I11
tp5762
a(I8
I0
tp5763
a(I9
I0
tp5764
a(I10
I0
tp5765
a(I11
I0
tp5766
a(I11
I1
tp5767
a(I11
I2
tp5768
a(I11
I3
tp5769
a(I11
I4
tp5770
a(I11
I5
tp5771
a(I12
I0
tp5772
a(I12
I1
tp5773
a(I12
I2
tp5774
a(I12
I3
tp5775
a(I12
I4
tp5776
a(I12
I5
tp5777
a(I13
I0
tp5778
a(I13
I1
tp5779
a(I13
I2
tp5780
a(I13
I3
tp5781
a(I13
I4
tp5782
a(I13
I5
tp5783
a(I14
I0
tp5784
a(I14
I1
tp5785
a(I14
I2
tp5786
a(I14
I3
tp5787
a(I14
I4
tp5788
a(I14
I5
tp5789
a(I14
I6
tp5790
a(I14
I7
tp5791
a(I14
I8
tp5792
a(I14
I9
tp5793
a(I14
I10
tp5794
a(I14
I11
tp5795
a(I15
I0
tp5796
a(I15
I1
tp5797
a(I15
I2
tp5798
a(I15
I3
tp5799
a(I15
I4
tp5800
a(I15
I5
tp5801
a(I15
I6
tp5802
a(I15
I7
tp5803
a(I15
I8
tp5804
a(I15
I9
tp5805
a(I15
I10
tp5806
a(I15
I11
tp5807
a(I16
I0
tp5808
a(I16
I1
tp5809
a(I16
I2
tp5810
a(I16
I3
tp5811
a(I16
I4
tp5812
a(I16
I5
tp5813
a(I17
I0
tp5814
a(I18
I0
tp5815
a(I19
I0
tp5816
a(I20
I0
tp5817
a(I20
I1
tp5818
a(I20
I2
tp5819
a(I20
I3
tp5820
a(I20
I4
tp5821
a(I20
I5
tp5822
a(I21
I0
tp5823
a(I22
I0
tp5824
a(I22
I1
tp5825
a(I22
I2
tp5826
a(I22
I3
tp5827
a(I22
I4
tp5828
a(I22
I5
tp5829
a(I22
I6
tp5830
a(I22
I7
tp5831
a(I23
I0
tp5832
a(I23
I1
tp5833
a(I23
I2
tp5834
a(I23
I3
tp5835
a(I24
I0
tp5836
a(I24
I1
tp5837
a(I24
I2
tp5838
a(I24
I3
tp5839
a(I24
I4
tp5840
a(I24
I5
tp5841
a(I24
I6
tp5842
a(I24
I7
tp5843
a(I24
I8
tp5844
a(I24
I9
tp5845
a(I24
I10
tp5846
a(I24
I11
tp5847
a(I24
I12
tp5848
a(I24
I13
tp5849
a(I24
I14
tp5850
a(I24
I15
tp5851
a(I24
I16
tp5852
a(I24
I17
tp5853
a(I24
I18
tp5854
a(I24
I19
tp5855
a(I24
I20
tp5856
a(I24
I21
tp5857
a(I24
I22
tp5858
a(I25
I0
tp5859
a(I26
I0
tp5860
a(I27
I0
tp5861
a(I27
I1
tp5862
a(I27
I2
tp5863
a(I27
I3
tp5864
a(I27
I4
tp5865
a(I27
I5
tp5866
a(I28
I0
tp5867
a(I28
I1
tp5868
a(I28
I2
tp5869
a(I28
I3
tp5870
a(I28
I4
tp5871
a(I28
I5
tp5872
a(I28
I6
tp5873
a(I28
I7
tp5874
a(I28
I8
tp5875
a(I28
I9
tp5876
a(I28
I10
tp5877
a(I28
I11
tp5878
a(I28
I12
tp5879
a(I28
I13
tp5880
a(I28
I14
tp5881
a(I28
I15
tp5882
a(I28
I16
tp5883
a(I28
I17
tp5884
a(I28
I18
tp5885
a(I28
I19
tp5886
a(I28
I20
tp5887
a(I28
I21
tp5888
a(I28
I22
tp5889
a(I28
I23
tp5890
a(I28
I24
tp5891
a(I28
I25
tp5892
a(I28
I26
tp5893
a(I28
I27
tp5894
a(I28
I28
tp5895
a(I28
I29
tp5896
a(I28
I30
tp5897
a(I28
I31
tp5898
a(I28
I32
tp5899
a(I28
I33
tp5900
a(I28
I34
tp5901
a(I28
I35
tp5902
a(I28
I36
tp5903
a(I28
I37
tp5904
a(I28
I38
tp5905
a(I28
I39
tp5906
a(I28
I40
tp5907
a(I28
I41
tp5908
a(I29
I0
tp5909
a(I29
I1
tp5910
a(I29
I2
tp5911
a(I29
I3
tp5912
a(I29
I4
tp5913
a(I29
I5
tp5914
a(I30
I0
tp5915
a(I30
I1
tp5916
a(I30
I2
tp5917
a(I30
I3
tp5918
a(I30
I4
tp5919
a(I30
I5
tp5920
a(I31
I0
tp5921
a(I31
I1
tp5922
a(I31
I2
tp5923
a(I31
I3
tp5924
a(I31
I4
tp5925
a(I31
I5
tp5926
a(I32
I0
tp5927
a(I33
I0
tp5928
a(I34
I0
tp5929
a(I34
I1
tp5930
a(I34
I2
tp5931
a(I34
I3
tp5932
a(I34
I4
tp5933
a(I34
I5
tp5934
a(I34
I6
tp5935
a(I34
I7
tp5936
a(I34
I8
tp5937
a(I34
I9
tp5938
a(I34
I10
tp5939
a(I34
I11
tp5940
a(I35
I0
tp5941
a(I35
I1
tp5942
a(I35
I2
tp5943
a(I35
I3
tp5944
a(I35
I4
tp5945
a(I35
I5
tp5946
a(I35
I6
tp5947
a(I35
I7
tp5948
a(I35
I8
tp5949
a(I35
I9
tp5950
a(I35
I10
tp5951
a(I35
I11
tp5952
a(I35
I12
tp5953
a(I35
I13
tp5954
a(I35
I14
tp5955
a(I35
I15
tp5956
a(I35
I16
tp5957
a(I35
I17
tp5958
a(I35
I18
tp5959
a(I35
I19
tp5960
a(I35
I20
tp5961
a(I35
I21
tp5962
a(I35
I22
tp5963
a(I35
I23
tp5964
a(I35
I24
tp5965
a(I35
I25
tp5966
a(I35
I26
tp5967
a(I35
I27
tp5968
a(I35
I28
tp5969
a(I35
I29
tp5970
a(I36
I0
tp5971
a(I36
I1
tp5972
a(I36
I2
tp5973
a(I36
I3
tp5974
a(I36
I4
tp5975
a(I36
I5
tp5976
a(I37
I0
tp5977
a(I37
I1
tp5978
a(I37
I2
tp5979
a(I37
I3
tp5980
a(I37
I4
tp5981
a(I37
I5
tp5982
a(I38
I0
tp5983
a(I38
I1
tp5984
a(I38
I2
tp5985
a(I38
I3
tp5986
a(I38
I4
tp5987
a(I38
I5
tp5988
a(I38
I6
tp5989
a(I38
I7
tp5990
a(I38
I8
tp5991
a(I38
I9
tp5992
a(I38
I10
tp5993
a(I38
I11
tp5994
a(I38
I12
tp5995
a(I38
I13
tp5996
a(I38
I14
tp5997
a(I38
I15
tp5998
a(I38
I16
tp5999
a(I38
I17
tp6000
a(I38
I18
tp6001
a(I38
I19
tp6002
a(I38
I20
tp6003
a(I38
I21
tp6004
a(I38
I22
tp6005
a(I38
I23
tp6006
a(I39
I0
tp6007
a(I39
I1
tp6008
a(I39
I2
tp6009
a(I39
I3
tp6010
a(I39
I4
tp6011
a(I39
I5
tp6012
a(I40
I0
tp6013
a(I41
I0
tp6014
a(I42
I0
tp6015
a(I43
I0
tp6016
a(I43
I1
tp6017
a(I43
I2
tp6018
a(I43
I3
tp6019
a(I43
I4
tp6020
a(I43
I5
tp6021
a(I44
I0
tp6022
a(I44
I1
tp6023
a(I44
I2
tp6024
a(I44
I3
tp6025
a(I44
I4
tp6026
a(I44
I5
tp6027
a(I44
I6
tp6028
a(I44
I7
tp6029
a(I44
I8
tp6030
a(I44
I9
tp6031
a(I44
I10
tp6032
a(I44
I11
tp6033
a(I44
I12
tp6034
a(I44
I13
tp6035
a(I44
I14
tp6036
a(I44
I15
tp6037
a(I44
I16
tp6038
a(I44
I17
tp6039
a(I44
I18
tp6040
a(I44
I19
tp6041
a(I44
I20
tp6042
a(I44
I21
tp6043
a(I44
I22
tp6044
a(I44
I23
tp6045
a(I44
I24
tp6046
a(I44
I25
tp6047
a(I44
I26
tp6048
a(I44
I27
tp6049
a(I44
I28
tp6050
a(I44
I29
tp6051
a(I44
I30
tp6052
a(I44
I31
tp6053
a(I44
I32
tp6054
a(I44
I33
tp6055
a(I44
I34
tp6056
a(I44
I35
tp6057
a(I44
I36
tp6058
a(I44
I37
tp6059
a(I44
I38
tp6060
a(I44
I39
tp6061
a(I44
I40
tp6062
a(I44
I41
tp6063
a(I45
I0
tp6064
a(I46
I0
tp6065
a(I46
I1
tp6066
a(I46
I2
tp6067
a(I46
I3
tp6068
a(I46
I4
tp6069
a(I46
I5
tp6070
a(I46
I6
tp6071
a(I46
I7
tp6072
a(I46
I8
tp6073
a(I46
I9
tp6074
a(I46
I10
tp6075
a(I46
I11
tp6076
a(I46
I12
tp6077
a(I46
I13
tp6078
a(I46
I14
tp6079
a(I46
I15
tp6080
a(I46
I16
tp6081
a(I46
I17
tp6082
a(I46
I18
tp6083
a(I46
I19
tp6084
a(I46
I20
tp6085
a(I46
I21
tp6086
a(I46
I22
tp6087
a(I46
I23
tp6088
a(I46
I24
tp6089
a(I46
I25
tp6090
a(I46
I26
tp6091
a(I46
I27
tp6092
a(I46
I28
tp6093
a(I46
I29
tp6094
a(I46
I30
tp6095
a(I46
I31
tp6096
a(I46
I32
tp6097
a(I46
I33
tp6098
a(I46
I34
tp6099
a(I46
I35
tp6100
a(I46
I36
tp6101
a(I46
I37
tp6102
a(I46
I38
tp6103
a(I46
I39
tp6104
a(I46
I40
tp6105
a(I46
I41
tp6106
a(I46
I42
tp6107
a(I46
I43
tp6108
a(I46
I44
tp6109
a(I46
I45
tp6110
a(I46
I46
tp6111
a(I46
I47
tp6112
a(I46
I48
tp6113
a(I46
I49
tp6114
a(I46
I50
tp6115
a(I46
I51
tp6116
a(I46
I52
tp6117
a(I46
I53
tp6118
a(I46
I54
tp6119
a(I46
I55
tp6120
a(I46
I56
tp6121
a(I46
I57
tp6122
a(I46
I58
tp6123
a(I46
I59
tp6124
a(I47
I0
tp6125
a(I47
I1
tp6126
a(I47
I2
tp6127
a(I47
I3
tp6128
a(I47
I4
tp6129
a(I47
I5
tp6130
a(I48
I0
tp6131
a(I48
I1
tp6132
a(I48
I2
tp6133
a(I48
I3
tp6134
a(I48
I4
tp6135
a(I48
I5
tp6136
a(I48
I6
tp6137
a(I48
I7
tp6138
a(I48
I8
tp6139
a(I48
I9
tp6140
a(I48
I10
tp6141
a(I48
I11
tp6142
a(I49
I0
tp6143
a(I49
I1
tp6144
a(I49
I2
tp6145
a(I49
I3
tp6146
a(I49
I4
tp6147
a(I49
I5
tp6148
a(I49
I6
tp6149
a(I49
I7
tp6150
a(I49
I8
tp6151
a(I49
I9
tp6152
a(I49
I10
tp6153
a(I49
I11
tp6154
a(I49
I12
tp6155
a(I49
I13
tp6156
a(I49
I14
tp6157
a(I49
I15
tp6158
a(I49
I16
tp6159
a(I49
I17
tp6160
a(I49
I18
tp6161
a(I49
I19
tp6162
a(I49
I20
tp6163
a(I49
I21
tp6164
a(I49
I22
tp6165
a(I49
I23
tp6166
a(I49
I24
tp6167
a(I49
I25
tp6168
a(I49
I26
tp6169
a(I49
I27
tp6170
a(I49
I28
tp6171
a(I49
I29
tp6172
a(I49
I30
tp6173
a(I49
I31
tp6174
a(I49
I32
tp6175
a(I49
I33
tp6176
a(I49
I34
tp6177
a(I49
I35
tp6178
a(I49
I36
tp6179
a(I49
I37
tp6180
a(I49
I38
tp6181
a(I49
I39
tp6182
a(I49
I40
tp6183
a(I49
I41
tp6184
a(I49
I42
tp6185
a(I49
I43
tp6186
a(I49
I44
tp6187
a(I49
I45
tp6188
a(I49
I46
tp6189
a(I49
I47
tp6190
a(I49
I48
tp6191
a(I49
I49
tp6192
a(I49
I50
tp6193
a(I49
I51
tp6194
a(I49
I52
tp6195
a(I49
I53
tp6196
a(I49
I54
tp6197
a(I49
I55
tp6198
a(I49
I56
tp6199
a(I49
I57
tp6200
a(I49
I58
tp6201
a(I49
I59
tp6202
a(I50
I0
tp6203
a(I50
I1
tp6204
a(I50
I2
tp6205
a(I50
I3
tp6206
a(I50
I4
tp6207
a(I50
I5
tp6208
a(I50
I6
tp6209
a(I50
I7
tp6210
a(I50
I8
tp6211
a(I50
I9
tp6212
a(I50
I10
tp6213
a(I50
I11
tp6214
a(I51
I0
tp6215
a(I51
I1
tp6216
a(I51
I2
tp6217
a(I51
I3
tp6218
a(I51
I4
tp6219
a(I51
I5
tp6220
a(I51
I6
tp6221
a(I51
I7
tp6222
a(I51
I8
tp6223
a(I51
I9
tp6224
a(I51
I10
tp6225
a(I51
I11
tp6226
a(I52
I0
tp6227
a(I52
I1
tp6228
a(I52
I2
tp6229
a(I52
I3
tp6230
a(I52
I4
tp6231
a(I52
I5
tp6232
a(I52
I6
tp6233
a(I52
I7
tp6234
a(I52
I8
tp6235
a(I52
I9
tp6236
a(I52
I10
tp6237
a(I52
I11
tp6238
a(I53
I0
tp6239
a(I54
I0
tp6240
a(I54
I1
tp6241
a(I54
I2
tp6242
a(I54
I3
tp6243
a(I54
I4
tp6244
a(I54
I5
tp6245
a(I55
I0
tp6246
a(I55
I1
tp6247
a(I55
I2
tp6248
a(I55
I3
tp6249
a(I55
I4
tp6250
a(I55
I5
tp6251
a(I56
I0
tp6252
a(I56
I1
tp6253
a(I56
I2
tp6254
a(I56
I3
tp6255
a(I56
I4
tp6256
a(I56
I5
tp6257
a(I57
I0
tp6258
a(I58
I0
tp6259
a(I59
I0
tp6260
a(I59
I1
tp6261
a(I59
I2
tp6262
a(I59
I3
tp6263
a(I59
I4
tp6264
a(I59
I5
tp6265
a(I59
I6
tp6266
a(I59
I7
tp6267
a(I59
I8
tp6268
a(I59
I9
tp6269
a(I59
I10
tp6270
a(I59
I11
tp6271
a(I60
I0
tp6272
a(I60
I1
tp6273
a(I60
I2
tp6274
a(I60
I3
tp6275
a(I60
I4
tp6276
a(I60
I5
tp6277
a(I60
I6
tp6278
a(I60
I7
tp6279
a(I60
I8
tp6280
a(I60
I9
tp6281
a(I60
I10
tp6282
a(I60
I11
tp6283
a(I60
I12
tp6284
a(I60
I13
tp6285
a(I60
I14
tp6286
a(I60
I15
tp6287
a(I60
I16
tp6288
a(I60
I17
tp6289
a(I60
I18
tp6290
a(I60
I19
tp6291
a(I60
I20
tp6292
a(I60
I21
tp6293
a(I60
I22
tp6294
a(I60
I23
tp6295
a(I60
I24
tp6296
a(I60
I25
tp6297
a(I60
I26
tp6298
a(I60
I27
tp6299
a(I60
I28
tp6300
a(I60
I29
tp6301
a(I61
I0
tp6302
a(I61
I1
tp6303
a(I61
I2
tp6304
a(I61
I3
tp6305
a(I61
I4
tp6306
a(I61
I5
tp6307
a(I62
I0
tp6308
a(I62
I1
tp6309
a(I62
I2
tp6310
a(I62
I3
tp6311
a(I62
I4
tp6312
a(I62
I5
tp6313
a(I63
I0
tp6314
a(I63
I1
tp6315
a(I63
I2
tp6316
a(I63
I3
tp6317
a(I63
I4
tp6318
a(I63
I5
tp6319
a(I63
I6
tp6320
a(I63
I7
tp6321
a(I63
I8
tp6322
a(I63
I9
tp6323
a(I63
I10
tp6324
a(I63
I11
tp6325
a(I63
I12
tp6326
a(I63
I13
tp6327
a(I63
I14
tp6328
a(I63
I15
tp6329
a(I63
I16
tp6330
a(I63
I17
tp6331
a(I63
I18
tp6332
a(I63
I19
tp6333
a(I63
I20
tp6334
a(I63
I21
tp6335
a(I63
I22
tp6336
a(I63
I23
tp6337
a(I64
I0
tp6338
a(I64
I1
tp6339
a(I64
I2
tp6340
a(I64
I3
tp6341
a(I64
I4
tp6342
a(I64
I5
tp6343
a(I65
I0
tp6344
a(I66
I0
tp6345
a(I67
I0
tp6346
a(I67
I1
tp6347
a(I67
I2
tp6348
a(I67
I3
tp6349
a(I67
I4
tp6350
a(I67
I5
tp6351
a(I67
I6
tp6352
a(I67
I7
tp6353
a(I67
I8
tp6354
a(I67
I9
tp6355
a(I67
I10
tp6356
a(I67
I11
tp6357
a(I68
I0
tp6358
a(I68
I1
tp6359
a(I68
I2
tp6360
a(I68
I3
tp6361
a(I68
I4
tp6362
a(I68
I5
tp6363
a(I68
I6
tp6364
a(I68
I7
tp6365
a(I68
I8
tp6366
a(I68
I9
tp6367
a(I68
I10
tp6368
a(I68
I11
tp6369
a(I69
I0
tp6370
a(I69
I1
tp6371
a(I69
I2
tp6372
a(I69
I3
tp6373
a(I69
I4
tp6374
a(I69
I5
tp6375
a(I69
I6
tp6376
a(I69
I7
tp6377
a(I69
I8
tp6378
a(I69
I9
tp6379
a(I69
I10
tp6380
a(I69
I11
tp6381
a(I70
I0
tp6382
a(I71
I0
tp6383
a(I72
I0
tp6384
a(I72
I1
tp6385
a(I72
I2
tp6386
a(I72
I3
tp6387
a(I72
I4
tp6388
a(I72
I5
tp6389
a(I72
I6
tp6390
a(I72
I7
tp6391
a(I72
I8
tp6392
a(I72
I9
tp6393
a(I72
I10
tp6394
a(I72
I11
tp6395
a(I72
I12
tp6396
a(I72
I13
tp6397
a(I72
I14
tp6398
a(I72
I15
tp6399
a(I72
I16
tp6400
a(I72
I17
tp6401
a(I72
I18
tp6402
a(I72
I19
tp6403
a(I72
I20
tp6404
a(I72
I21
tp6405
a(I72
I22
tp6406
a(I73
I0
tp6407
a(I74
I0
tp6408
a(I75
I0
tp6409
a(I75
I1
tp6410
a(I75
I2
tp6411
a(I75
I3
tp6412
a(I75
I4
tp6413
a(I75
I5
tp6414
a(I75
I6
tp6415
a(I75
I7
tp6416
a(I75
I8
tp6417
a(I75
I9
tp6418
a(I75
I10
tp6419
a(I75
I11
tp6420
a(I75
I12
tp6421
a(I75
I13
tp6422
a(I75
I14
tp6423
a(I75
I15
tp6424
a(I75
I16
tp6425
a(I75
I17
tp6426
a(I75
I18
tp6427
a(I75
I19
tp6428
a(I75
I20
tp6429
a(I75
I21
tp6430
a(I75
I22
tp6431
a(I75
I23
tp6432
a(I75
I24
tp6433
a(I75
I25
tp6434
a(I75
I26
tp6435
a(I75
I27
tp6436
a(I75
I28
tp6437
a(I75
I29
tp6438
a(I75
I30
tp6439
a(I75
I31
tp6440
a(I75
I32
tp6441
a(I75
I33
tp6442
a(I75
I34
tp6443
a(I75
I35
tp6444
a(I75
I36
tp6445
a(I75
I37
tp6446
a(I75
I38
tp6447
a(I75
I39
tp6448
a(I75
I40
tp6449
a(I75
I41
tp6450
a(I75
I42
tp6451
a(I75
I43
tp6452
a(I75
I44
tp6453
a(I75
I45
tp6454
a(I75
I46
tp6455
a(I75
I47
tp6456
a(I75
I48
tp6457
a(I75
I49
tp6458
a(I75
I50
tp6459
a(I75
I51
tp6460
a(I75
I52
tp6461
a(I75
I53
tp6462
a(I75
I54
tp6463
a(I75
I55
tp6464
a(I75
I56
tp6465
a(I75
I57
tp6466
a(I75
I58
tp6467
a(I75
I59
tp6468
a(I76
I0
tp6469
a(I76
I1
tp6470
a(I76
I2
tp6471
a(I76
I3
tp6472
a(I76
I4
tp6473
a(I76
I5
tp6474
a(I77
I0
tp6475
a(I77
I1
tp6476
a(I77
I2
tp6477
a(I77
I3
tp6478
a(I77
I4
tp6479
a(I77
I5
tp6480
a(I77
I6
tp6481
a(I77
I7
tp6482
a(I77
I8
tp6483
a(I77
I9
tp6484
a(I77
I10
tp6485
a(I77
I11
tp6486
a(I78
I0
tp6487
a(I78
I1
tp6488
a(I78
I2
tp6489
a(I78
I3
tp6490
a(I78
I4
tp6491
a(I78
I5
tp6492
a(I78
I6
tp6493
a(I78
I7
tp6494
a(I78
I8
tp6495
a(I78
I9
tp6496
a(I78
I10
tp6497
a(I78
I11
tp6498
a(I78
I12
tp6499
a(I78
I13
tp6500
a(I78
I14
tp6501
a(I78
I15
tp6502
a(I78
I16
tp6503
a(I78
I17
tp6504
a(I78
I18
tp6505
a(I78
I19
tp6506
a(I78
I20
tp6507
a(I78
I21
tp6508
a(I78
I22
tp6509
a(I78
I23
tp6510
a(I78
I24
tp6511
a(I78
I25
tp6512
a(I78
I26
tp6513
a(I78
I27
tp6514
a(I78
I28
tp6515
a(I78
I29
tp6516
a(I78
I30
tp6517
a(I78
I31
tp6518
a(I78
I32
tp6519
a(I78
I33
tp6520
a(I78
I34
tp6521
a(I78
I35
tp6522
a(I78
I36
tp6523
a(I78
I37
tp6524
a(I78
I38
tp6525
a(I78
I39
tp6526
a(I78
I40
tp6527
a(I78
I41
tp6528
a(I78
I42
tp6529
a(I78
I43
tp6530
a(I78
I44
tp6531
a(I78
I45
tp6532
a(I78
I46
tp6533
a(I78
I47
tp6534
a(I78
I48
tp6535
a(I78
I49
tp6536
a(I78
I50
tp6537
a(I78
I51
tp6538
a(I78
I52
tp6539
a(I78
I53
tp6540
a(I78
I54
tp6541
a(I78
I55
tp6542
a(I78
I56
tp6543
a(I78
I57
tp6544
a(I78
I58
tp6545
a(I78
I59
tp6546
a(I79
I0
tp6547
a(I79
I1
tp6548
a(I79
I2
tp6549
a(I79
I3
tp6550
a(I79
I4
tp6551
a(I79
I5
tp6552
a(I79
I6
tp6553
a(I79
I7
tp6554
a(I79
I8
tp6555
a(I79
I9
tp6556
a(I79
I10
tp6557
a(I79
I11
tp6558
a(I80
I0
tp6559
a(I80
I1
tp6560
a(I80
I2
tp6561
a(I80
I3
tp6562
a(I80
I4
tp6563
a(I80
I5
tp6564
a(I80
I6
tp6565
a(I80
I7
tp6566
a(I80
I8
tp6567
a(I80
I9
tp6568
a(I80
I10
tp6569
a(I80
I11
tp6570
a(I81
I0
tp6571
a(I81
I1
tp6572
a(I81
I2
tp6573
a(I81
I3
tp6574
a(I81
I4
tp6575
a(I81
I5
tp6576
a(I81
I6
tp6577
a(I81
I7
tp6578
a(I81
I8
tp6579
a(I81
I9
tp6580
a(I81
I10
tp6581
a(I81
I11
tp6582
a(I82
I0
tp6583
a(I83
I0
tp6584
a(I83
I1
tp6585
a(I83
I2
tp6586
a(I83
I3
tp6587
a(I83
I4
tp6588
a(I83
I5
tp6589
a(I84
I0
tp6590
a(I84
I1
tp6591
a(I84
I2
tp6592
a(I84
I3
tp6593
a(I84
I4
tp6594
a(I84
I5
tp6595
a(I84
I6
tp6596
a(I84
I7
tp6597
a(I84
I8
tp6598
a(I84
I9
tp6599
a(I84
I10
tp6600
a(I84
I11
tp6601
a(I84
I12
tp6602
a(I84
I13
tp6603
a(I84
I14
tp6604
a(I84
I15
tp6605
a(I84
I16
tp6606
a(I84
I17
tp6607
a(I84
I18
tp6608
a(I84
I19
tp6609
a(I84
I20
tp6610
a(I84
I21
tp6611
a(I84
I22
tp6612
a(I84
I23
tp6613
a(I84
I24
tp6614
a(I84
I25
tp6615
a(I84
I26
tp6616
a(I84
I27
tp6617
a(I84
I28
tp6618
a(I84
I29
tp6619
a(I84
I30
tp6620
a(I84
I31
tp6621
a(I84
I32
tp6622
a(I84
I33
tp6623
a(I84
I34
tp6624
a(I84
I35
tp6625
a(I84
I36
tp6626
a(I84
I37
tp6627
a(I84
I38
tp6628
a(I84
I39
tp6629
a(I84
I40
tp6630
a(I84
I41
tp6631
a(I85
I0
tp6632
a(I85
I1
tp6633
a(I85
I2
tp6634
a(I85
I3
tp6635
a(I85
I4
tp6636
a(I85
I5
tp6637
a(I86
I0
tp6638
a(I86
I1
tp6639
a(I86
I2
tp6640
a(I86
I3
tp6641
a(I86
I4
tp6642
a(I86
I5
tp6643
a(I87
I0
tp6644
a(I87
I1
tp6645
a(I87
I2
tp6646
a(I87
I3
tp6647
a(I87
I4
tp6648
a(I87
I5
tp6649
a(I88
I0
tp6650
a(I89
I0
tp6651
a(I89
I1
tp6652
a(I89
I2
tp6653
a(I89
I3
tp6654
a(I89
I4
tp6655
a(I89
I5
tp6656
a(I90
I0
tp6657
a(I90
I1
tp6658
a(I90
I2
tp6659
a(I90
I3
tp6660
a(I90
I4
tp6661
a(I90
I5
tp6662
a(I91
I0
tp6663
a(I91
I1
tp6664
a(I91
I2
tp6665
a(I91
I3
tp6666
a(I91
I4
tp6667
a(I91
I5
tp6668
a(I92
I0
tp6669
a(I93
I0
tp6670
a(I94
I0
tp6671
a(I95
I0
tp6672
a(I96
I0
tp6673
a(I96
I1
tp6674
a(I96
I2
tp6675
a(I96
I3
tp6676
a(I96
I4
tp6677
a(I96
I5
tp6678
a(I96
I6
tp6679
a(I96
I7
tp6680
a(I96
I8
tp6681
a(I96
I9
tp6682
a(I96
I10
tp6683
a(I96
I11
tp6684
a(I96
I12
tp6685
a(I96
I13
tp6686
a(I96
I14
tp6687
a(I96
I15
tp6688
a(I96
I16
tp6689
a(I96
I17
tp6690
a(I96
I18
tp6691
a(I96
I19
tp6692
a(I96
I20
tp6693
a(I96
I21
tp6694
a(I96
I22
tp6695
asg4239
(lp6696
(I0
I0
tp6697
a(I1
I0
tp6698
a(I1
I1
tp6699
a(I1
I2
tp6700
a(I1
I3
tp6701
a(I1
I4
tp6702
a(I1
I5
tp6703
a(I1
I6
tp6704
a(I1
I7
tp6705
a(I1
I8
tp6706
a(I1
I9
tp6707
a(I1
I10
tp6708
a(I1
I11
tp6709
a(I1
I12
tp6710
a(I1
I13
tp6711
a(I1
I14
tp6712
a(I1
I15
tp6713
a(I1
I16
tp6714
a(I1
I17
tp6715
a(I2
I0
tp6716
a(I2
I1
tp6717
a(I2
I2
tp6718
a(I2
I3
tp6719
a(I2
I4
tp6720
a(I2
I5
tp6721
a(I2
I6
tp6722
a(I2
I7
tp6723
a(I2
I8
tp6724
a(I2
I9
tp6725
a(I2
I10
tp6726
a(I2
I11
tp6727
a(I2
I12
tp6728
a(I2
I13
tp6729
a(I2
I14
tp6730
a(I2
I15
tp6731
a(I2
I16
tp6732
a(I2
I17
tp6733
a(I3
I0
tp6734
a(I3
I1
tp6735
a(I3
I2
tp6736
a(I3
I3
tp6737
a(I3
I4
tp6738
a(I3
I5
tp6739
a(I3
I6
tp6740
a(I3
I7
tp6741
a(I3
I8
tp6742
a(I3
I9
tp6743
a(I3
I10
tp6744
a(I3
I11
tp6745
a(I3
I12
tp6746
a(I3
I13
tp6747
a(I3
I14
tp6748
a(I3
I15
tp6749
a(I3
I16
tp6750
a(I3
I17
tp6751
a(I4
I0
tp6752
a(I4
I1
tp6753
a(I4
I2
tp6754
a(I4
I3
tp6755
a(I4
I4
tp6756
a(I4
I5
tp6757
a(I4
I6
tp6758
a(I4
I7
tp6759
a(I4
I8
tp6760
a(I4
I9
tp6761
a(I4
I10
tp6762
a(I4
I11
tp6763
a(I4
I12
tp6764
a(I4
I13
tp6765
a(I4
I14
tp6766
a(I4
I15
tp6767
a(I4
I16
tp6768
a(I4
I17
tp6769
a(I5
I0
tp6770
a(I5
I1
tp6771
a(I5
I2
tp6772
a(I5
I3
tp6773
a(I5
I4
tp6774
a(I5
I5
tp6775
a(I5
I6
tp6776
a(I5
I7
tp6777
a(I5
I8
tp6778
a(I5
I9
tp6779
a(I5
I10
tp6780
a(I5
I11
tp6781
a(I5
I12
tp6782
a(I5
I13
tp6783
a(I5
I14
tp6784
a(I5
I15
tp6785
a(I5
I16
tp6786
a(I5
I17
tp6787
a(I6
I0
tp6788
a(I6
I1
tp6789
a(I6
I2
tp6790
a(I6
I3
tp6791
a(I6
I4
tp6792
a(I6
I5
tp6793
a(I6
I6
tp6794
a(I6
I7
tp6795
a(I6
I8
tp6796
a(I6
I9
tp6797
a(I6
I10
tp6798
a(I6
I11
tp6799
a(I6
I12
tp6800
a(I6
I13
tp6801
a(I6
I14
tp6802
a(I6
I15
tp6803
a(I6
I16
tp6804
a(I6
I17
tp6805
a(I7
I0
tp6806
a(I7
I1
tp6807
a(I7
I2
tp6808
a(I7
I3
tp6809
a(I7
I4
tp6810
a(I7
I5
tp6811
a(I7
I6
tp6812
a(I7
I7
tp6813
a(I7
I8
tp6814
a(I7
I9
tp6815
a(I7
I10
tp6816
a(I7
I11
tp6817
a(I7
I12
tp6818
a(I7
I13
tp6819
a(I7
I14
tp6820
a(I7
I15
tp6821
a(I7
I16
tp6822
a(I7
I17
tp6823
a(I8
I0
tp6824
a(I9
I0
tp6825
a(I10
I0
tp6826
a(I11
I0
tp6827
a(I11
I1
tp6828
a(I11
I2
tp6829
a(I11
I3
tp6830
a(I11
I4
tp6831
a(I11
I5
tp6832
a(I11
I6
tp6833
a(I11
I7
tp6834
a(I11
I8
tp6835
a(I11
I9
tp6836
a(I11
I10
tp6837
a(I11
I11
tp6838
a(I11
I12
tp6839
a(I11
I13
tp6840
a(I11
I14
tp6841
a(I11
I15
tp6842
a(I11
I16
tp6843
a(I11
I17
tp6844
a(I12
I0
tp6845
a(I12
I1
tp6846
a(I12
I2
tp6847
a(I12
I3
tp6848
a(I12
I4
tp6849
a(I12
I5
tp6850
a(I12
I6
tp6851
a(I12
I7
tp6852
a(I12
I8
tp6853
a(I12
I9
tp6854
a(I12
I10
tp6855
a(I12
I11
tp6856
a(I12
I12
tp6857
a(I12
I13
tp6858
a(I12
I14
tp6859
a(I12
I15
tp6860
a(I12
I16
tp6861
a(I12
I17
tp6862
a(I13
I0
tp6863
a(I13
I1
tp6864
a(I13
I2
tp6865
a(I13
I3
tp6866
a(I13
I4
tp6867
a(I13
I5
tp6868
a(I13
I6
tp6869
a(I13
I7
tp6870
a(I13
I8
tp6871
a(I13
I9
tp6872
a(I13
I10
tp6873
a(I13
I11
tp6874
a(I13
I12
tp6875
a(I13
I13
tp6876
a(I13
I14
tp6877
a(I13
I15
tp6878
a(I13
I16
tp6879
a(I13
I17
tp6880
a(I14
I0
tp6881
a(I14
I1
tp6882
a(I14
I2
tp6883
a(I14
I3
tp6884
a(I14
I4
tp6885
a(I14
I5
tp6886
a(I14
I6
tp6887
a(I14
I7
tp6888
a(I14
I8
tp6889
a(I14
I9
tp6890
a(I14
I10
tp6891
a(I14
I11
tp6892
a(I14
I12
tp6893
a(I14
I13
tp6894
a(I14
I14
tp6895
a(I14
I15
tp6896
a(I14
I16
tp6897
a(I14
I17
tp6898
a(I15
I0
tp6899
a(I15
I1
tp6900
a(I15
I2
tp6901
a(I15
I3
tp6902
a(I15
I4
tp6903
a(I15
I5
tp6904
a(I15
I6
tp6905
a(I15
I7
tp6906
a(I15
I8
tp6907
a(I15
I9
tp6908
a(I15
I10
tp6909
a(I15
I11
tp6910
a(I15
I12
tp6911
a(I15
I13
tp6912
a(I15
I14
tp6913
a(I15
I15
tp6914
a(I15
I16
tp6915
a(I15
I17
tp6916
a(I16
I0
tp6917
a(I16
I1
tp6918
a(I16
I2
tp6919
a(I16
I3
tp6920
a(I16
I4
tp6921
a(I16
I5
tp6922
a(I16
I6
tp6923
a(I16
I7
tp6924
a(I16
I8
tp6925
a(I16
I9
tp6926
a(I16
I10
tp6927
a(I16
I11
tp6928
a(I16
I12
tp6929
a(I16
I13
tp6930
a(I16
I14
tp6931
a(I16
I15
tp6932
a(I16
I16
tp6933
a(I16
I17
tp6934
a(I17
I0
tp6935
a(I18
I0
tp6936
a(I19
I0
tp6937
a(I20
I0
tp6938
a(I20
I1
tp6939
a(I20
I2
tp6940
a(I20
I3
tp6941
a(I20
I4
tp6942
a(I20
I5
tp6943
a(I20
I6
tp6944
a(I20
I7
tp6945
a(I20
I8
tp6946
a(I20
I9
tp6947
a(I20
I10
tp6948
a(I20
I11
tp6949
a(I20
I12
tp6950
a(I20
I13
tp6951
a(I20
I14
tp6952
a(I20
I15
tp6953
a(I20
I16
tp6954
a(I20
I17
tp6955
a(I21
I0
tp6956
a(I22
I0
tp6957
a(I22
I1
tp6958
a(I22
I2
tp6959
a(I22
I3
tp6960
a(I22
I4
tp6961
a(I22
I5
tp6962
a(I22
I6
tp6963
a(I22
I7
tp6964
a(I22
I8
tp6965
a(I22
I9
tp6966
a(I23
I0
tp6967
a(I23
I1
tp6968
a(I23
I2
tp6969
a(I23
I3
tp6970
a(I24
I0
tp6971
a(I24
I1
tp6972
a(I24
I2
tp6973
a(I24
I3
tp6974
a(I25
I0
tp6975
a(I26
I0
tp6976
a(I27
I0
tp6977
a(I27
I1
tp6978
a(I27
I2
tp6979
a(I27
I3
tp6980
a(I27
I4
tp6981
a(I27
I5
tp6982
a(I27
I6
tp6983
a(I27
I7
tp6984
a(I27
I8
tp6985
a(I27
I9
tp6986
a(I27
I10
tp6987
a(I27
I11
tp6988
a(I27
I12
tp6989
a(I27
I13
tp6990
a(I27
I14
tp6991
a(I27
I15
tp6992
a(I27
I16
tp6993
a(I27
I17
tp6994
a(I28
I0
tp6995
a(I28
I1
tp6996
a(I28
I2
tp6997
a(I28
I3
tp6998
a(I28
I4
tp6999
a(I28
I5
tp7000
a(I28
I6
tp7001
a(I28
I7
tp7002
a(I28
I8
tp7003
a(I28
I9
tp7004
a(I28
I10
tp7005
a(I28
I11
tp7006
a(I28
I12
tp7007
a(I28
I13
tp7008
a(I28
I14
tp7009
a(I28
I15
tp7010
a(I28
I16
tp7011
a(I28
I17
tp7012
a(I29
I0
tp7013
a(I29
I1
tp7014
a(I29
I2
tp7015
a(I29
I3
tp7016
a(I29
I4
tp7017
a(I29
I5
tp7018
a(I29
I6
tp7019
a(I29
I7
tp7020
a(I29
I8
tp7021
a(I29
I9
tp7022
a(I29
I10
tp7023
a(I29
I11
tp7024
a(I29
I12
tp7025
a(I29
I13
tp7026
a(I29
I14
tp7027
a(I29
I15
tp7028
a(I29
I16
tp7029
a(I29
I17
tp7030
a(I30
I0
tp7031
a(I30
I1
tp7032
a(I30
I2
tp7033
a(I30
I3
tp7034
a(I30
I4
tp7035
a(I30
I5
tp7036
a(I30
I6
tp7037
a(I30
I7
tp7038
a(I30
I8
tp7039
a(I30
I9
tp7040
a(I30
I10
tp7041
a(I30
I11
tp7042
a(I30
I12
tp7043
a(I30
I13
tp7044
a(I30
I14
tp7045
a(I30
I15
tp7046
a(I30
I16
tp7047
a(I30
I17
tp7048
a(I31
I0
tp7049
a(I31
I1
tp7050
a(I31
I2
tp7051
a(I31
I3
tp7052
a(I31
I4
tp7053
a(I31
I5
tp7054
a(I31
I6
tp7055
a(I31
I7
tp7056
a(I31
I8
tp7057
a(I31
I9
tp7058
a(I31
I10
tp7059
a(I31
I11
tp7060
a(I31
I12
tp7061
a(I31
I13
tp7062
a(I31
I14
tp7063
a(I31
I15
tp7064
a(I31
I16
tp7065
a(I31
I17
tp7066
a(I32
I0
tp7067
a(I33
I0
tp7068
a(I34
I0
tp7069
a(I34
I1
tp7070
a(I34
I2
tp7071
a(I34
I3
tp7072
a(I34
I4
tp7073
a(I34
I5
tp7074
a(I34
I6
tp7075
a(I34
I7
tp7076
a(I34
I8
tp7077
a(I34
I9
tp7078
a(I34
I10
tp7079
a(I34
I11
tp7080
a(I34
I12
tp7081
a(I34
I13
tp7082
a(I34
I14
tp7083
a(I34
I15
tp7084
a(I34
I16
tp7085
a(I34
I17
tp7086
a(I35
I0
tp7087
a(I35
I1
tp7088
a(I35
I2
tp7089
a(I35
I3
tp7090
a(I35
I4
tp7091
a(I35
I5
tp7092
a(I35
I6
tp7093
a(I35
I7
tp7094
a(I35
I8
tp7095
a(I35
I9
tp7096
a(I35
I10
tp7097
a(I35
I11
tp7098
a(I35
I12
tp7099
a(I35
I13
tp7100
a(I35
I14
tp7101
a(I35
I15
tp7102
a(I35
I16
tp7103
a(I35
I17
tp7104
a(I36
I0
tp7105
a(I36
I1
tp7106
a(I36
I2
tp7107
a(I36
I3
tp7108
a(I36
I4
tp7109
a(I36
I5
tp7110
a(I36
I6
tp7111
a(I36
I7
tp7112
a(I36
I8
tp7113
a(I36
I9
tp7114
a(I36
I10
tp7115
a(I36
I11
tp7116
a(I36
I12
tp7117
a(I36
I13
tp7118
a(I36
I14
tp7119
a(I36
I15
tp7120
a(I36
I16
tp7121
a(I36
I17
tp7122
a(I37
I0
tp7123
a(I37
I1
tp7124
a(I37
I2
tp7125
a(I37
I3
tp7126
a(I37
I4
tp7127
a(I37
I5
tp7128
a(I37
I6
tp7129
a(I37
I7
tp7130
a(I37
I8
tp7131
a(I37
I9
tp7132
a(I37
I10
tp7133
a(I37
I11
tp7134
a(I37
I12
tp7135
a(I37
I13
tp7136
a(I37
I14
tp7137
a(I37
I15
tp7138
a(I37
I16
tp7139
a(I37
I17
tp7140
a(I38
I0
tp7141
a(I38
I1
tp7142
a(I38
I2
tp7143
a(I38
I3
tp7144
a(I38
I4
tp7145
a(I38
I5
tp7146
a(I38
I6
tp7147
a(I38
I7
tp7148
a(I38
I8
tp7149
a(I38
I9
tp7150
a(I38
I10
tp7151
a(I38
I11
tp7152
a(I38
I12
tp7153
a(I38
I13
tp7154
a(I38
I14
tp7155
a(I38
I15
tp7156
a(I38
I16
tp7157
a(I38
I17
tp7158
a(I39
I0
tp7159
a(I39
I1
tp7160
a(I39
I2
tp7161
a(I39
I3
tp7162
a(I39
I4
tp7163
a(I39
I5
tp7164
a(I39
I6
tp7165
a(I39
I7
tp7166
a(I39
I8
tp7167
a(I39
I9
tp7168
a(I39
I10
tp7169
a(I39
I11
tp7170
a(I39
I12
tp7171
a(I39
I13
tp7172
a(I39
I14
tp7173
a(I39
I15
tp7174
a(I39
I16
tp7175
a(I39
I17
tp7176
a(I40
I0
tp7177
a(I41
I0
tp7178
a(I42
I0
tp7179
a(I43
I0
tp7180
a(I43
I1
tp7181
a(I43
I2
tp7182
a(I43
I3
tp7183
a(I43
I4
tp7184
a(I43
I5
tp7185
a(I43
I6
tp7186
a(I43
I7
tp7187
a(I43
I8
tp7188
a(I43
I9
tp7189
a(I43
I10
tp7190
a(I43
I11
tp7191
a(I43
I12
tp7192
a(I43
I13
tp7193
a(I43
I14
tp7194
a(I43
I15
tp7195
a(I43
I16
tp7196
a(I43
I17
tp7197
a(I44
I0
tp7198
a(I44
I1
tp7199
a(I44
I2
tp7200
a(I44
I3
tp7201
a(I44
I4
tp7202
a(I44
I5
tp7203
a(I44
I6
tp7204
a(I44
I7
tp7205
a(I44
I8
tp7206
a(I44
I9
tp7207
a(I44
I10
tp7208
a(I44
I11
tp7209
a(I44
I12
tp7210
a(I44
I13
tp7211
a(I44
I14
tp7212
a(I44
I15
tp7213
a(I44
I16
tp7214
a(I44
I17
tp7215
a(I45
I0
tp7216
a(I46
I0
tp7217
a(I46
I1
tp7218
a(I46
I2
tp7219
a(I46
I3
tp7220
a(I46
I4
tp7221
a(I46
I5
tp7222
a(I46
I6
tp7223
a(I46
I7
tp7224
a(I46
I8
tp7225
a(I46
I9
tp7226
a(I46
I10
tp7227
a(I46
I11
tp7228
a(I46
I12
tp7229
a(I46
I13
tp7230
a(I46
I14
tp7231
a(I46
I15
tp7232
a(I46
I16
tp7233
a(I46
I17
tp7234
a(I47
I0
tp7235
a(I47
I1
tp7236
a(I47
I2
tp7237
a(I47
I3
tp7238
a(I47
I4
tp7239
a(I47
I5
tp7240
a(I47
I6
tp7241
a(I47
I7
tp7242
a(I47
I8
tp7243
a(I47
I9
tp7244
a(I47
I10
tp7245
a(I47
I11
tp7246
a(I47
I12
tp7247
a(I47
I13
tp7248
a(I47
I14
tp7249
a(I47
I15
tp7250
a(I47
I16
tp7251
a(I47
I17
tp7252
a(I48
I0
tp7253
a(I48
I1
tp7254
a(I48
I2
tp7255
a(I48
I3
tp7256
a(I48
I4
tp7257
a(I48
I5
tp7258
a(I48
I6
tp7259
a(I48
I7
tp7260
a(I48
I8
tp7261
a(I48
I9
tp7262
a(I48
I10
tp7263
a(I48
I11
tp7264
a(I48
I12
tp7265
a(I48
I13
tp7266
a(I48
I14
tp7267
a(I48
I15
tp7268
a(I48
I16
tp7269
a(I48
I17
tp7270
a(I49
I0
tp7271
a(I49
I1
tp7272
a(I49
I2
tp7273
a(I49
I3
tp7274
a(I49
I4
tp7275
a(I49
I5
tp7276
a(I49
I6
tp7277
a(I49
I7
tp7278
a(I49
I8
tp7279
a(I49
I9
tp7280
a(I49
I10
tp7281
a(I49
I11
tp7282
a(I49
I12
tp7283
a(I49
I13
tp7284
a(I49
I14
tp7285
a(I49
I15
tp7286
a(I49
I16
tp7287
a(I49
I17
tp7288
a(I50
I0
tp7289
a(I50
I1
tp7290
a(I50
I2
tp7291
a(I50
I3
tp7292
a(I50
I4
tp7293
a(I50
I5
tp7294
a(I50
I6
tp7295
a(I50
I7
tp7296
a(I50
I8
tp7297
a(I50
I9
tp7298
a(I50
I10
tp7299
a(I50
I11
tp7300
a(I50
I12
tp7301
a(I50
I13
tp7302
a(I50
I14
tp7303
a(I50
I15
tp7304
a(I50
I16
tp7305
a(I50
I17
tp7306
a(I51
I0
tp7307
a(I51
I1
tp7308
a(I51
I2
tp7309
a(I51
I3
tp7310
a(I51
I4
tp7311
a(I51
I5
tp7312
a(I51
I6
tp7313
a(I51
I7
tp7314
a(I51
I8
tp7315
a(I51
I9
tp7316
a(I51
I10
tp7317
a(I51
I11
tp7318
a(I51
I12
tp7319
a(I51
I13
tp7320
a(I51
I14
tp7321
a(I51
I15
tp7322
a(I51
I16
tp7323
a(I51
I17
tp7324
a(I52
I0
tp7325
a(I52
I1
tp7326
a(I52
I2
tp7327
a(I52
I3
tp7328
a(I52
I4
tp7329
a(I52
I5
tp7330
a(I52
I6
tp7331
a(I52
I7
tp7332
a(I52
I8
tp7333
a(I52
I9
tp7334
a(I52
I10
tp7335
a(I52
I11
tp7336
a(I52
I12
tp7337
a(I52
I13
tp7338
a(I52
I14
tp7339
a(I52
I15
tp7340
a(I52
I16
tp7341
a(I52
I17
tp7342
a(I53
I0
tp7343
a(I54
I0
tp7344
a(I54
I1
tp7345
a(I54
I2
tp7346
a(I54
I3
tp7347
a(I54
I4
tp7348
a(I54
I5
tp7349
a(I54
I6
tp7350
a(I54
I7
tp7351
a(I54
I8
tp7352
a(I54
I9
tp7353
a(I54
I10
tp7354
a(I54
I11
tp7355
a(I54
I12
tp7356
a(I54
I13
tp7357
a(I54
I14
tp7358
a(I54
I15
tp7359
a(I54
I16
tp7360
a(I54
I17
tp7361
a(I55
I0
tp7362
a(I55
I1
tp7363
a(I55
I2
tp7364
a(I55
I3
tp7365
a(I55
I4
tp7366
a(I55
I5
tp7367
a(I55
I6
tp7368
a(I55
I7
tp7369
a(I55
I8
tp7370
a(I55
I9
tp7371
a(I55
I10
tp7372
a(I55
I11
tp7373
a(I55
I12
tp7374
a(I55
I13
tp7375
a(I55
I14
tp7376
a(I55
I15
tp7377
a(I55
I16
tp7378
a(I55
I17
tp7379
a(I56
I0
tp7380
a(I56
I1
tp7381
a(I56
I2
tp7382
a(I56
I3
tp7383
a(I56
I4
tp7384
a(I56
I5
tp7385
a(I56
I6
tp7386
a(I56
I7
tp7387
a(I56
I8
tp7388
a(I56
I9
tp7389
a(I56
I10
tp7390
a(I56
I11
tp7391
a(I56
I12
tp7392
a(I56
I13
tp7393
a(I56
I14
tp7394
a(I56
I15
tp7395
a(I56
I16
tp7396
a(I56
I17
tp7397
a(I57
I0
tp7398
a(I58
I0
tp7399
a(I59
I0
tp7400
a(I59
I1
tp7401
a(I59
I2
tp7402
a(I59
I3
tp7403
a(I59
I4
tp7404
a(I59
I5
tp7405
a(I59
I6
tp7406
a(I59
I7
tp7407
a(I59
I8
tp7408
a(I59
I9
tp7409
a(I59
I10
tp7410
a(I59
I11
tp7411
a(I59
I12
tp7412
a(I59
I13
tp7413
a(I59
I14
tp7414
a(I59
I15
tp7415
a(I59
I16
tp7416
a(I59
I17
tp7417
a(I60
I0
tp7418
a(I60
I1
tp7419
a(I60
I2
tp7420
a(I60
I3
tp7421
a(I60
I4
tp7422
a(I60
I5
tp7423
a(I60
I6
tp7424
a(I60
I7
tp7425
a(I60
I8
tp7426
a(I60
I9
tp7427
a(I60
I10
tp7428
a(I60
I11
tp7429
a(I60
I12
tp7430
a(I60
I13
tp7431
a(I60
I14
tp7432
a(I60
I15
tp7433
a(I60
I16
tp7434
a(I60
I17
tp7435
a(I61
I0
tp7436
a(I61
I1
tp7437
a(I61
I2
tp7438
a(I61
I3
tp7439
a(I61
I4
tp7440
a(I61
I5
tp7441
a(I61
I6
tp7442
a(I61
I7
tp7443
a(I61
I8
tp7444
a(I61
I9
tp7445
a(I61
I10
tp7446
a(I61
I11
tp7447
a(I61
I12
tp7448
a(I61
I13
tp7449
a(I61
I14
tp7450
a(I61
I15
tp7451
a(I61
I16
tp7452
a(I61
I17
tp7453
a(I62
I0
tp7454
a(I62
I1
tp7455
a(I62
I2
tp7456
a(I62
I3
tp7457
a(I62
I4
tp7458
a(I62
I5
tp7459
a(I62
I6
tp7460
a(I62
I7
tp7461
a(I62
I8
tp7462
a(I62
I9
tp7463
a(I62
I10
tp7464
a(I62
I11
tp7465
a(I62
I12
tp7466
a(I62
I13
tp7467
a(I62
I14
tp7468
a(I62
I15
tp7469
a(I62
I16
tp7470
a(I62
I17
tp7471
a(I63
I0
tp7472
a(I63
I1
tp7473
a(I63
I2
tp7474
a(I63
I3
tp7475
a(I63
I4
tp7476
a(I63
I5
tp7477
a(I63
I6
tp7478
a(I63
I7
tp7479
a(I63
I8
tp7480
a(I63
I9
tp7481
a(I63
I10
tp7482
a(I63
I11
tp7483
a(I63
I12
tp7484
a(I63
I13
tp7485
a(I63
I14
tp7486
a(I63
I15
tp7487
a(I63
I16
tp7488
a(I63
I17
tp7489
a(I64
I0
tp7490
a(I64
I1
tp7491
a(I64
I2
tp7492
a(I64
I3
tp7493
a(I64
I4
tp7494
a(I64
I5
tp7495
a(I64
I6
tp7496
a(I64
I7
tp7497
a(I64
I8
tp7498
a(I64
I9
tp7499
a(I64
I10
tp7500
a(I64
I11
tp7501
a(I64
I12
tp7502
a(I64
I13
tp7503
a(I64
I14
tp7504
a(I64
I15
tp7505
a(I64
I16
tp7506
a(I64
I17
tp7507
a(I65
I0
tp7508
a(I66
I0
tp7509
a(I67
I0
tp7510
a(I67
I1
tp7511
a(I67
I2
tp7512
a(I67
I3
tp7513
a(I67
I4
tp7514
a(I67
I5
tp7515
a(I67
I6
tp7516
a(I67
I7
tp7517
a(I67
I8
tp7518
a(I67
I9
tp7519
a(I67
I10
tp7520
a(I67
I11
tp7521
a(I67
I12
tp7522
a(I67
I13
tp7523
a(I67
I14
tp7524
a(I67
I15
tp7525
a(I67
I16
tp7526
a(I67
I17
tp7527
a(I68
I0
tp7528
a(I68
I1
tp7529
a(I68
I2
tp7530
a(I68
I3
tp7531
a(I68
I4
tp7532
a(I68
I5
tp7533
a(I68
I6
tp7534
a(I68
I7
tp7535
a(I68
I8
tp7536
a(I68
I9
tp7537
a(I68
I10
tp7538
a(I68
I11
tp7539
a(I68
I12
tp7540
a(I68
I13
tp7541
a(I68
I14
tp7542
a(I68
I15
tp7543
a(I68
I16
tp7544
a(I68
I17
tp7545
a(I69
I0
tp7546
a(I69
I1
tp7547
a(I69
I2
tp7548
a(I69
I3
tp7549
a(I69
I4
tp7550
a(I69
I5
tp7551
a(I69
I6
tp7552
a(I69
I7
tp7553
a(I69
I8
tp7554
a(I69
I9
tp7555
a(I69
I10
tp7556
a(I69
I11
tp7557
a(I69
I12
tp7558
a(I69
I13
tp7559
a(I69
I14
tp7560
a(I69
I15
tp7561
a(I69
I16
tp7562
a(I69
I17
tp7563
a(I70
I0
tp7564
a(I71
I0
tp7565
a(I72
I0
tp7566
a(I72
I1
tp7567
a(I72
I2
tp7568
a(I72
I3
tp7569
a(I73
I0
tp7570
a(I74
I0
tp7571
a(I75
I0
tp7572
a(I75
I1
tp7573
a(I75
I2
tp7574
a(I75
I3
tp7575
a(I75
I4
tp7576
a(I75
I5
tp7577
a(I75
I6
tp7578
a(I75
I7
tp7579
a(I75
I8
tp7580
a(I75
I9
tp7581
a(I75
I10
tp7582
a(I75
I11
tp7583
a(I75
I12
tp7584
a(I75
I13
tp7585
a(I75
I14
tp7586
a(I75
I15
tp7587
a(I75
I16
tp7588
a(I75
I17
tp7589
a(I76
I0
tp7590
a(I76
I1
tp7591
a(I76
I2
tp7592
a(I76
I3
tp7593
a(I76
I4
tp7594
a(I76
I5
tp7595
a(I76
I6
tp7596
a(I76
I7
tp7597
a(I76
I8
tp7598
a(I76
I9
tp7599
a(I76
I10
tp7600
a(I76
I11
tp7601
a(I76
I12
tp7602
a(I76
I13
tp7603
a(I76
I14
tp7604
a(I76
I15
tp7605
a(I76
I16
tp7606
a(I76
I17
tp7607
a(I77
I0
tp7608
a(I77
I1
tp7609
a(I77
I2
tp7610
a(I77
I3
tp7611
a(I77
I4
tp7612
a(I77
I5
tp7613
a(I77
I6
tp7614
a(I77
I7
tp7615
a(I77
I8
tp7616
a(I77
I9
tp7617
a(I77
I10
tp7618
a(I77
I11
tp7619
a(I77
I12
tp7620
a(I77
I13
tp7621
a(I77
I14
tp7622
a(I77
I15
tp7623
a(I77
I16
tp7624
a(I77
I17
tp7625
a(I78
I0
tp7626
a(I78
I1
tp7627
a(I78
I2
tp7628
a(I78
I3
tp7629
a(I78
I4
tp7630
a(I78
I5
tp7631
a(I78
I6
tp7632
a(I78
I7
tp7633
a(I78
I8
tp7634
a(I78
I9
tp7635
a(I78
I10
tp7636
a(I78
I11
tp7637
a(I78
I12
tp7638
a(I78
I13
tp7639
a(I78
I14
tp7640
a(I78
I15
tp7641
a(I78
I16
tp7642
a(I78
I17
tp7643
a(I79
I0
tp7644
a(I79
I1
tp7645
a(I79
I2
tp7646
a(I79
I3
tp7647
a(I79
I4
tp7648
a(I79
I5
tp7649
a(I79
I6
tp7650
a(I79
I7
tp7651
a(I79
I8
tp7652
a(I79
I9
tp7653
a(I79
I10
tp7654
a(I79
I11
tp7655
a(I79
I12
tp7656
a(I79
I13
tp7657
a(I79
I14
tp7658
a(I79
I15
tp7659
a(I79
I16
tp7660
a(I79
I17
tp7661
a(I80
I0
tp7662
a(I80
I1
tp7663
a(I80
I2
tp7664
a(I80
I3
tp7665
a(I80
I4
tp7666
a(I80
I5
tp7667
a(I80
I6
tp7668
a(I80
I7
tp7669
a(I80
I8
tp7670
a(I80
I9
tp7671
a(I80
I10
tp7672
a(I80
I11
tp7673
a(I80
I12
tp7674
a(I80
I13
tp7675
a(I80
I14
tp7676
a(I80
I15
tp7677
a(I80
I16
tp7678
a(I80
I17
tp7679
a(I81
I0
tp7680
a(I81
I1
tp7681
a(I81
I2
tp7682
a(I81
I3
tp7683
a(I81
I4
tp7684
a(I81
I5
tp7685
a(I81
I6
tp7686
a(I81
I7
tp7687
a(I81
I8
tp7688
a(I81
I9
tp7689
a(I81
I10
tp7690
a(I81
I11
tp7691
a(I81
I12
tp7692
a(I81
I13
tp7693
a(I81
I14
tp7694
a(I81
I15
tp7695
a(I81
I16
tp7696
a(I81
I17
tp7697
a(I82
I0
tp7698
a(I83
I0
tp7699
a(I83
I1
tp7700
a(I83
I2
tp7701
a(I83
I3
tp7702
a(I83
I4
tp7703
a(I83
I5
tp7704
a(I83
I6
tp7705
a(I83
I7
tp7706
a(I83
I8
tp7707
a(I83
I9
tp7708
a(I83
I10
tp7709
a(I83
I11
tp7710
a(I83
I12
tp7711
a(I83
I13
tp7712
a(I83
I14
tp7713
a(I83
I15
tp7714
a(I83
I16
tp7715
a(I83
I17
tp7716
a(I84
I0
tp7717
a(I84
I1
tp7718
a(I84
I2
tp7719
a(I84
I3
tp7720
a(I84
I4
tp7721
a(I84
I5
tp7722
a(I84
I6
tp7723
a(I84
I7
tp7724
a(I84
I8
tp7725
a(I84
I9
tp7726
a(I84
I10
tp7727
a(I84
I11
tp7728
a(I84
I12
tp7729
a(I84
I13
tp7730
a(I84
I14
tp7731
a(I84
I15
tp7732
a(I84
I16
tp7733
a(I84
I17
tp7734
a(I85
I0
tp7735
a(I85
I1
tp7736
a(I85
I2
tp7737
a(I85
I3
tp7738
a(I85
I4
tp7739
a(I85
I5
tp7740
a(I85
I6
tp7741
a(I85
I7
tp7742
a(I85
I8
tp7743
a(I85
I9
tp7744
a(I85
I10
tp7745
a(I85
I11
tp7746
a(I85
I12
tp7747
a(I85
I13
tp7748
a(I85
I14
tp7749
a(I85
I15
tp7750
a(I85
I16
tp7751
a(I85
I17
tp7752
a(I86
I0
tp7753
a(I86
I1
tp7754
a(I86
I2
tp7755
a(I86
I3
tp7756
a(I86
I4
tp7757
a(I86
I5
tp7758
a(I86
I6
tp7759
a(I86
I7
tp7760
a(I86
I8
tp7761
a(I86
I9
tp7762
a(I86
I10
tp7763
a(I86
I11
tp7764
a(I86
I12
tp7765
a(I86
I13
tp7766
a(I86
I14
tp7767
a(I86
I15
tp7768
a(I86
I16
tp7769
a(I86
I17
tp7770
a(I87
I0
tp7771
a(I87
I1
tp7772
a(I87
I2
tp7773
a(I87
I3
tp7774
a(I87
I4
tp7775
a(I87
I5
tp7776
a(I87
I6
tp7777
a(I87
I7
tp7778
a(I87
I8
tp7779
a(I87
I9
tp7780
a(I87
I10
tp7781
a(I87
I11
tp7782
a(I87
I12
tp7783
a(I87
I13
tp7784
a(I87
I14
tp7785
a(I87
I15
tp7786
a(I87
I16
tp7787
a(I87
I17
tp7788
a(I88
I0
tp7789
a(I89
I0
tp7790
a(I89
I1
tp7791
a(I89
I2
tp7792
a(I89
I3
tp7793
a(I89
I4
tp7794
a(I89
I5
tp7795
a(I89
I6
tp7796
a(I89
I7
tp7797
a(I89
I8
tp7798
a(I89
I9
tp7799
a(I89
I10
tp7800
a(I89
I11
tp7801
a(I89
I12
tp7802
a(I89
I13
tp7803
a(I89
I14
tp7804
a(I89
I15
tp7805
a(I89
I16
tp7806
a(I89
I17
tp7807
a(I90
I0
tp7808
a(I90
I1
tp7809
a(I90
I2
tp7810
a(I90
I3
tp7811
a(I90
I4
tp7812
a(I90
I5
tp7813
a(I90
I6
tp7814
a(I90
I7
tp7815
a(I90
I8
tp7816
a(I90
I9
tp7817
a(I90
I10
tp7818
a(I90
I11
tp7819
a(I90
I12
tp7820
a(I90
I13
tp7821
a(I90
I14
tp7822
a(I90
I15
tp7823
a(I90
I16
tp7824
a(I90
I17
tp7825
a(I91
I0
tp7826
a(I91
I1
tp7827
a(I91
I2
tp7828
a(I91
I3
tp7829
a(I91
I4
tp7830
a(I91
I5
tp7831
a(I91
I6
tp7832
a(I91
I7
tp7833
a(I91
I8
tp7834
a(I91
I9
tp7835
a(I91
I10
tp7836
a(I91
I11
tp7837
a(I91
I12
tp7838
a(I91
I13
tp7839
a(I91
I14
tp7840
a(I91
I15
tp7841
a(I91
I16
tp7842
a(I91
I17
tp7843
a(I92
I0
tp7844
a(I93
I0
tp7845
a(I94
I0
tp7846
a(I95
I0
tp7847
a(I96
I0
tp7848
a(I96
I1
tp7849
a(I96
I2
tp7850
a(I96
I3
tp7851
asg5556
(lp7852
(I0
I0
tp7853
a(I1
I0
tp7854
a(I1
I1
tp7855
a(I1
I2
tp7856
a(I1
I3
tp7857
a(I1
I4
tp7858
a(I1
I5
tp7859
a(I2
I0
tp7860
a(I2
I1
tp7861
a(I2
I2
tp7862
a(I2
I3
tp7863
a(I2
I4
tp7864
a(I2
I5
tp7865
a(I3
I0
tp7866
a(I3
I1
tp7867
a(I3
I2
tp7868
a(I3
I3
tp7869
a(I3
I4
tp7870
a(I3
I5
tp7871
a(I4
I0
tp7872
a(I4
I1
tp7873
a(I4
I2
tp7874
a(I4
I3
tp7875
a(I4
I4
tp7876
a(I4
I5
tp7877
a(I5
I0
tp7878
a(I5
I1
tp7879
a(I5
I2
tp7880
a(I5
I3
tp7881
a(I5
I4
tp7882
a(I5
I5
tp7883
a(I6
I0
tp7884
a(I6
I1
tp7885
a(I6
I2
tp7886
a(I6
I3
tp7887
a(I6
I4
tp7888
a(I6
I5
tp7889
a(I7
I0
tp7890
a(I7
I1
tp7891
a(I7
I2
tp7892
a(I7
I3
tp7893
a(I7
I4
tp7894
a(I7
I5
tp7895
a(I8
I0
tp7896
a(I9
I0
tp7897
a(I10
I0
tp7898
a(I11
I0
tp7899
a(I11
I1
tp7900
a(I11
I2
tp7901
a(I11
I3
tp7902
a(I11
I4
tp7903
a(I11
I5
tp7904
a(I12
I0
tp7905
a(I12
I1
tp7906
a(I12
I2
tp7907
a(I12
I3
tp7908
a(I12
I4
tp7909
a(I12
I5
tp7910
a(I13
I0
tp7911
a(I13
I1
tp7912
a(I13
I2
tp7913
a(I13
I3
tp7914
a(I13
I4
tp7915
a(I13
I5
tp7916
a(I14
I0
tp7917
a(I14
I1
tp7918
a(I14
I2
tp7919
a(I14
I3
tp7920
a(I14
I4
tp7921
a(I14
I5
tp7922
a(I15
I0
tp7923
a(I15
I1
tp7924
a(I15
I2
tp7925
a(I15
I3
tp7926
a(I15
I4
tp7927
a(I15
I5
tp7928
a(I16
I0
tp7929
a(I16
I1
tp7930
a(I16
I2
tp7931
a(I16
I3
tp7932
a(I16
I4
tp7933
a(I16
I5
tp7934
a(I17
I0
tp7935
a(I18
I0
tp7936
a(I19
I0
tp7937
a(I20
I0
tp7938
a(I20
I1
tp7939
a(I20
I2
tp7940
a(I20
I3
tp7941
a(I20
I4
tp7942
a(I20
I5
tp7943
a(I21
I0
tp7944
a(I22
I0
tp7945
a(I22
I1
tp7946
a(I22
I2
tp7947
a(I22
I3
tp7948
a(I22
I4
tp7949
a(I22
I5
tp7950
a(I22
I6
tp7951
a(I22
I7
tp7952
a(I23
I0
tp7953
a(I23
I1
tp7954
a(I24
I0
tp7955
a(I24
I1
tp7956
a(I25
I0
tp7957
a(I26
I0
tp7958
a(I27
I0
tp7959
a(I27
I1
tp7960
a(I27
I2
tp7961
a(I27
I3
tp7962
a(I27
I4
tp7963
a(I27
I5
tp7964
a(I28
I0
tp7965
a(I28
I1
tp7966
a(I28
I2
tp7967
a(I28
I3
tp7968
a(I28
I4
tp7969
a(I28
I5
tp7970
a(I29
I0
tp7971
a(I29
I1
tp7972
a(I29
I2
tp7973
a(I29
I3
tp7974
a(I29
I4
tp7975
a(I29
I5
tp7976
a(I30
I0
tp7977
a(I30
I1
tp7978
a(I30
I2
tp7979
a(I30
I3
tp7980
a(I30
I4
tp7981
a(I30
I5
tp7982
a(I31
I0
tp7983
a(I31
I1
tp7984
a(I31
I2
tp7985
a(I31
I3
tp7986
a(I31
I4
tp7987
a(I31
I5
tp7988
a(I32
I0
tp7989
a(I33
I0
tp7990
a(I34
I0
tp7991
a(I34
I1
tp7992
a(I34
I2
tp7993
a(I34
I3
tp7994
a(I34
I4
tp7995
a(I34
I5
tp7996
a(I35
I0
tp7997
a(I35
I1
tp7998
a(I35
I2
tp7999
a(I35
I3
tp8000
a(I35
I4
tp8001
a(I35
I5
tp8002
a(I36
I0
tp8003
a(I36
I1
tp8004
a(I36
I2
tp8005
a(I36
I3
tp8006
a(I36
I4
tp8007
a(I36
I5
tp8008
a(I37
I0
tp8009
a(I37
I1
tp8010
a(I37
I2
tp8011
a(I37
I3
tp8012
a(I37
I4
tp8013
a(I37
I5
tp8014
a(I38
I0
tp8015
a(I38
I1
tp8016
a(I38
I2
tp8017
a(I38
I3
tp8018
a(I38
I4
tp8019
a(I38
I5
tp8020
a(I39
I0
tp8021
a(I39
I1
tp8022
a(I39
I2
tp8023
a(I39
I3
tp8024
a(I39
I4
tp8025
a(I39
I5
tp8026
a(I40
I0
tp8027
a(I41
I0
tp8028
a(I42
I0
tp8029
a(I43
I0
tp8030
a(I43
I1
tp8031
a(I43
I2
tp8032
a(I43
I3
tp8033
a(I43
I4
tp8034
a(I43
I5
tp8035
a(I44
I0
tp8036
a(I44
I1
tp8037
a(I44
I2
tp8038
a(I44
I3
tp8039
a(I44
I4
tp8040
a(I44
I5
tp8041
a(I45
I0
tp8042
a(I46
I0
tp8043
a(I46
I1
tp8044
a(I46
I2
tp8045
a(I46
I3
tp8046
a(I46
I4
tp8047
a(I46
I5
tp8048
a(I47
I0
tp8049
a(I47
I1
tp8050
a(I47
I2
tp8051
a(I47
I3
tp8052
a(I47
I4
tp8053
a(I47
I5
tp8054
a(I48
I0
tp8055
a(I48
I1
tp8056
a(I48
I2
tp8057
a(I48
I3
tp8058
a(I48
I4
tp8059
a(I48
I5
tp8060
a(I49
I0
tp8061
a(I49
I1
tp8062
a(I49
I2
tp8063
a(I49
I3
tp8064
a(I49
I4
tp8065
a(I49
I5
tp8066
a(I50
I0
tp8067
a(I50
I1
tp8068
a(I50
I2
tp8069
a(I50
I3
tp8070
a(I50
I4
tp8071
a(I50
I5
tp8072
a(I51
I0
tp8073
a(I51
I1
tp8074
a(I51
I2
tp8075
a(I51
I3
tp8076
a(I51
I4
tp8077
a(I51
I5
tp8078
a(I52
I0
tp8079
a(I52
I1
tp8080
a(I52
I2
tp8081
a(I52
I3
tp8082
a(I52
I4
tp8083
a(I52
I5
tp8084
a(I53
I0
tp8085
a(I54
I0
tp8086
a(I54
I1
tp8087
a(I54
I2
tp8088
a(I54
I3
tp8089
a(I54
I4
tp8090
a(I54
I5
tp8091
a(I55
I0
tp8092
a(I55
I1
tp8093
a(I55
I2
tp8094
a(I55
I3
tp8095
a(I55
I4
tp8096
a(I55
I5
tp8097
a(I56
I0
tp8098
a(I56
I1
tp8099
a(I56
I2
tp8100
a(I56
I3
tp8101
a(I56
I4
tp8102
a(I56
I5
tp8103
a(I57
I0
tp8104
a(I58
I0
tp8105
a(I59
I0
tp8106
a(I59
I1
tp8107
a(I59
I2
tp8108
a(I59
I3
tp8109
a(I59
I4
tp8110
a(I59
I5
tp8111
a(I60
I0
tp8112
a(I60
I1
tp8113
a(I60
I2
tp8114
a(I60
I3
tp8115
a(I60
I4
tp8116
a(I60
I5
tp8117
a(I61
I0
tp8118
a(I61
I1
tp8119
a(I61
I2
tp8120
a(I61
I3
tp8121
a(I61
I4
tp8122
a(I61
I5
tp8123
a(I62
I0
tp8124
a(I62
I1
tp8125
a(I62
I2
tp8126
a(I62
I3
tp8127
a(I62
I4
tp8128
a(I62
I5
tp8129
a(I63
I0
tp8130
a(I63
I1
tp8131
a(I63
I2
tp8132
a(I63
I3
tp8133
a(I63
I4
tp8134
a(I63
I5
tp8135
a(I64
I0
tp8136
a(I64
I1
tp8137
a(I64
I2
tp8138
a(I64
I3
tp8139
a(I64
I4
tp8140
a(I64
I5
tp8141
a(I65
I0
tp8142
a(I66
I0
tp8143
a(I67
I0
tp8144
a(I67
I1
tp8145
a(I67
I2
tp8146
a(I67
I3
tp8147
a(I67
I4
tp8148
a(I67
I5
tp8149
a(I68
I0
tp8150
a(I68
I1
tp8151
a(I68
I2
tp8152
a(I68
I3
tp8153
a(I68
I4
tp8154
a(I68
I5
tp8155
a(I69
I0
tp8156
a(I69
I1
tp8157
a(I69
I2
tp8158
a(I69
I3
tp8159
a(I69
I4
tp8160
a(I69
I5
tp8161
a(I70
I0
tp8162
a(I71
I0
tp8163
a(I72
I0
tp8164
a(I72
I1
tp8165
a(I73
I0
tp8166
a(I74
I0
tp8167
a(I75
I0
tp8168
a(I75
I1
tp8169
a(I75
I2
tp8170
a(I75
I3
tp8171
a(I75
I4
tp8172
a(I75
I5
tp8173
a(I76
I0
tp8174
a(I76
I1
tp8175
a(I76
I2
tp8176
a(I76
I3
tp8177
a(I76
I4
tp8178
a(I76
I5
tp8179
a(I77
I0
tp8180
a(I77
I1
tp8181
a(I77
I2
tp8182
a(I77
I3
tp8183
a(I77
I4
tp8184
a(I77
I5
tp8185
a(I78
I0
tp8186
a(I78
I1
tp8187
a(I78
I2
tp8188
a(I78
I3
tp8189
a(I78
I4
tp8190
a(I78
I5
tp8191
a(I79
I0
tp8192
a(I79
I1
tp8193
a(I79
I2
tp8194
a(I79
I3
tp8195
a(I79
I4
tp8196
a(I79
I5
tp8197
a(I80
I0
tp8198
a(I80
I1
tp8199
a(I80
I2
tp8200
a(I80
I3
tp8201
a(I80
I4
tp8202
a(I80
I5
tp8203
a(I81
I0
tp8204
a(I81
I1
tp8205
a(I81
I2
tp8206
a(I81
I3
tp8207
a(I81
I4
tp8208
a(I81
I5
tp8209
a(I82
I0
tp8210
a(I83
I0
tp8211
a(I83
I1
tp8212
a(I83
I2
tp8213
a(I83
I3
tp8214
a(I83
I4
tp8215
a(I83
I5
tp8216
a(I84
I0
tp8217
a(I84
I1
tp8218
a(I84
I2
tp8219
a(I84
I3
tp8220
a(I84
I4
tp8221
a(I84
I5
tp8222
a(I85
I0
tp8223
a(I85
I1
tp8224
a(I85
I2
tp8225
a(I85
I3
tp8226
a(I85
I4
tp8227
a(I85
I5
tp8228
a(I86
I0
tp8229
a(I86
I1
tp8230
a(I86
I2
tp8231
a(I86
I3
tp8232
a(I86
I4
tp8233
a(I86
I5
tp8234
a(I87
I0
tp8235
a(I87
I1
tp8236
a(I87
I2
tp8237
a(I87
I3
tp8238
a(I87
I4
tp8239
a(I87
I5
tp8240
a(I88
I0
tp8241
a(I89
I0
tp8242
a(I89
I1
tp8243
a(I89
I2
tp8244
a(I89
I3
tp8245
a(I89
I4
tp8246
a(I89
I5
tp8247
a(I90
I0
tp8248
a(I90
I1
tp8249
a(I90
I2
tp8250
a(I90
I3
tp8251
a(I90
I4
tp8252
a(I90
I5
tp8253
a(I91
I0
tp8254
a(I91
I1
tp8255
a(I91
I2
tp8256
a(I91
I3
tp8257
a(I91
I4
tp8258
a(I91
I5
tp8259
a(I92
I0
tp8260
a(I93
I0
tp8261
a(I94
I0
tp8262
a(I95
I0
tp8263
a(I96
I0
tp8264
a(I96
I1
tp8265
assbsS'checksums'
p8266
S'33849  2103\n'
p8267
s.