(dp0
S'content'
p1
(imystruct
Struct
p2
(dp3
S'omitmicro'
p4
(lp5
(I0
I1
tp6
a(I0
I2
tp7
a(I0
I3
tp8
a(I0
I4
tp9
a(I0
I5
tp10
a(I0
I6
tp11
a(I0
I7
tp12
a(I0
I9
tp13
a(I0
I10
tp14
a(I0
I11
tp15
a(I0
I12
tp16
a(I0
I13
tp17
a(I0
I14
tp18
a(I0
I15
tp19
a(I0
I16
tp20
a(I1
I2
tp21
a(I1
I3
tp22
a(I1
I4
tp23
a(I1
I5
tp24
a(I1
I6
tp25
a(I1
I7
tp26
a(I2
I3
tp27
a(I2
I4
tp28
a(I2
I5
tp29
a(I2
I6
tp30
a(I2
I7
tp31
a(I3
I4
tp32
a(I3
I5
tp33
a(I3
I6
tp34
a(I3
I7
tp35
a(I4
I5
tp36
a(I4
I6
tp37
a(I4
I7
tp38
a(I5
I6
tp39
a(I5
I7
tp40
a(I6
I7
tp41
a(I9
I10
tp42
a(I9
I11
tp43
a(I9
I12
tp44
a(I9
I13
tp45
a(I9
I14
tp46
a(I9
I15
tp47
a(I9
I16
tp48
a(I10
I11
tp49
a(I10
I12
tp50
a(I10
I13
tp51
a(I10
I14
tp52
a(I10
I15
tp53
a(I10
I16
tp54
a(I11
I12
tp55
a(I11
I13
tp56
a(I11
I14
tp57
a(I11
I15
tp58
a(I11
I16
tp59
a(I12
I13
tp60
a(I12
I14
tp61
a(I12
I15
tp62
a(I12
I16
tp63
a(I13
I14
tp64
a(I13
I15
tp65
a(I13
I16
tp66
a(I14
I15
tp67
a(I14
I16
tp68
a(I15
I16
tp69
a(I19
I20
tp70
a(I24
I25
tp71
a(I24
I26
tp72
a(I31
I32
tp73
a(I31
I33
tp74
a(I39
I40
tp75
a(I39
I41
tp76
a(I39
I42
tp77
a(I44
I45
tp78
a(I44
I46
tp79
a(I44
I47
tp80
a(I44
I48
tp81
a(I44
I49
tp82
a(I44
I50
tp83
a(I44
I51
tp84
a(I44
I52
tp85
a(I45
I46
tp86
a(I45
I47
tp87
a(I45
I48
tp88
a(I45
I49
tp89
a(I45
I50
tp90
a(I45
I51
tp91
a(I45
I52
tp92
a(I46
I47
tp93
a(I46
I48
tp94
a(I46
I49
tp95
a(I46
I50
tp96
a(I46
I51
tp97
a(I46
I52
tp98
a(I47
I48
tp99
a(I47
I49
tp100
a(I47
I50
tp101
a(I47
I51
tp102
a(I47
I52
tp103
a(I48
I49
tp104
a(I48
I50
tp105
a(I48
I51
tp106
a(I48
I52
tp107
a(I49
I50
tp108
a(I49
I51
tp109
a(I49
I52
tp110
a(I50
I51
tp111
a(I50
I52
tp112
a(I51
I52
tp113
a(I56
I57
tp114
a(I56
I58
tp115
a(I64
I65
tp116
a(I64
I66
tp117
a(I64
I67
tp118
a(I64
I68
tp119
a(I64
I69
tp120
a(I67
I68
tp121
a(I67
I69
tp122
a(I68
I69
tp123
a(I72
I73
tp124
a(I72
I74
tp125
a(I72
I75
tp126
a(I72
I76
tp127
a(I72
I77
tp128
a(I72
I78
tp129
a(I72
I79
tp130
a(I72
I80
tp131
a(I72
I81
tp132
a(I72
I83
tp133
a(I72
I84
tp134
a(I72
I85
tp135
a(I72
I86
tp136
a(I72
I87
tp137
a(I72
I89
tp138
a(I72
I90
tp139
a(I72
I91
tp140
a(I73
I74
tp141
a(I73
I75
tp142
a(I73
I76
tp143
a(I73
I77
tp144
a(I73
I78
tp145
a(I73
I79
tp146
a(I73
I80
tp147
a(I73
I81
tp148
a(I73
I83
tp149
a(I73
I84
tp150
a(I73
I85
tp151
a(I73
I86
tp152
a(I73
I87
tp153
a(I73
I89
tp154
a(I73
I90
tp155
a(I73
I91
tp156
a(I74
I75
tp157
a(I74
I76
tp158
a(I74
I77
tp159
a(I74
I78
tp160
a(I74
I79
tp161
a(I74
I80
tp162
a(I74
I81
tp163
a(I74
I83
tp164
a(I74
I84
tp165
a(I74
I85
tp166
a(I74
I86
tp167
a(I74
I87
tp168
a(I74
I89
tp169
a(I74
I90
tp170
a(I74
I91
tp171
a(I75
I76
tp172
a(I75
I77
tp173
a(I75
I78
tp174
a(I75
I79
tp175
a(I75
I80
tp176
a(I75
I81
tp177
a(I76
I77
tp178
a(I76
I78
tp179
a(I76
I79
tp180
a(I76
I80
tp181
a(I76
I81
tp182
a(I77
I78
tp183
a(I77
I79
tp184
a(I77
I80
tp185
a(I77
I81
tp186
a(I78
I79
tp187
a(I78
I80
tp188
a(I78
I81
tp189
a(I79
I80
tp190
a(I79
I81
tp191
a(I80
I81
tp192
a(I83
I84
tp193
a(I83
I85
tp194
a(I83
I86
tp195
a(I83
I87
tp196
a(I84
I85
tp197
a(I84
I86
tp198
a(I84
I87
tp199
a(I85
I86
tp200
a(I85
I87
tp201
a(I86
I87
tp202
a(I89
I90
tp203
a(I89
I91
tp204
a(I89
I93
tp205
a(I89
I94
tp206
a(I90
I91
tp207
a(I90
I93
tp208
a(I90
I94
tp209
a(I91
I93
tp210
a(I91
I94
tp211
asS'omit_one'
p212
(dp213
S'aligned'
p214
(lp215
sS'three'
p216
(lp217
sS'one'
p218
(lp219
ssS'prefix'
p220
(dp221
g214
(lp222
(I0
I0
tp223
a(I1
I2
tp224
a(I1
I5
tp225
a(I1
I8
tp226
a(I1
I11
tp227
a(I1
I14
tp228
a(I1
I17
tp229
a(I1
I20
tp230
a(I1
I23
tp231
a(I1
I26
tp232
a(I1
I29
tp233
a(I1
I32
tp234
a(I1
I35
tp235
a(I1
I38
tp236
a(I1
I41
tp237
a(I1
I44
tp238
a(I1
I47
tp239
a(I1
I50
tp240
a(I1
I53
tp241
a(I1
I56
tp242
a(I1
I59
tp243
a(I2
I2
tp244
a(I2
I5
tp245
a(I3
I2
tp246
a(I3
I5
tp247
a(I3
I8
tp248
a(I3
I11
tp249
a(I4
I2
tp250
a(I4
I5
tp251
a(I4
I8
tp252
a(I4
I11
tp253
a(I4
I14
tp254
a(I4
I17
tp255
a(I4
I20
tp256
a(I4
I23
tp257
a(I4
I26
tp258
a(I4
I29
tp259
a(I4
I32
tp260
a(I4
I35
tp261
a(I4
I38
tp262
a(I4
I41
tp263
a(I4
I44
tp264
a(I4
I47
tp265
a(I4
I50
tp266
a(I4
I53
tp267
a(I4
I56
tp268
a(I4
I59
tp269
a(I5
I2
tp270
a(I5
I5
tp271
a(I5
I8
tp272
a(I5
I11
tp273
a(I6
I2
tp274
a(I6
I5
tp275
a(I6
I8
tp276
a(I6
I11
tp277
a(I7
I2
tp278
a(I7
I5
tp279
a(I7
I8
tp280
a(I7
I11
tp281
a(I8
I0
tp282
a(I9
I0
tp283
a(I10
I0
tp284
a(I11
I2
tp285
a(I11
I5
tp286
a(I12
I2
tp287
a(I12
I5
tp288
a(I13
I2
tp289
a(I13
I5
tp290
a(I14
I2
tp291
a(I14
I5
tp292
a(I14
I8
tp293
a(I14
I11
tp294
a(I15
I2
tp295
a(I15
I5
tp296
a(I15
I8
tp297
a(I15
I11
tp298
a(I16
I2
tp299
a(I16
I5
tp300
a(I17
I0
tp301
a(I18
I0
tp302
a(I19
I0
tp303
a(I20
I2
tp304
a(I20
I5
tp305
a(I21
I0
tp306
a(I22
I7
tp307
a(I23
I3
tp308
a(I24
I22
tp309
a(I25
I0
tp310
a(I26
I0
tp311
a(I27
I2
tp312
a(I27
I5
tp313
a(I28
I2
tp314
a(I28
I5
tp315
a(I28
I8
tp316
a(I28
I11
tp317
a(I28
I14
tp318
a(I28
I17
tp319
a(I28
I20
tp320
a(I28
I23
tp321
a(I28
I26
tp322
a(I28
I29
tp323
a(I28
I32
tp324
a(I28
I35
tp325
a(I28
I38
tp326
a(I28
I41
tp327
a(I29
I2
tp328
a(I29
I5
tp329
a(I30
I2
tp330
a(I30
I5
tp331
a(I31
I2
tp332
a(I31
I5
tp333
a(I32
I0
tp334
a(I33
I0
tp335
a(I34
I2
tp336
a(I34
I5
tp337
a(I34
I8
tp338
a(I34
I11
tp339
a(I35
I2
tp340
a(I35
I5
tp341
a(I35
I8
tp342
a(I35
I11
tp343
a(I35
I14
tp344
a(I35
I17
tp345
a(I35
I20
tp346
a(I35
I23
tp347
a(I35
I26
tp348
a(I35
I29
tp349
a(I36
I2
tp350
a(I36
I5
tp351
a(I37
I2
tp352
a(I37
I5
tp353
a(I38
I2
tp354
a(I38
I5
tp355
a(I38
I8
tp356
a(I38
I11
tp357
a(I38
I14
tp358
a(I38
I17
tp359
a(I38
I20
tp360
a(I38
I23
tp361
a(I39
I2
tp362
a(I39
I5
tp363
a(I40
I0
tp364
a(I41
I0
tp365
a(I42
I0
tp366
a(I43
I2
tp367
a(I43
I5
tp368
a(I44
I2
tp369
a(I44
I5
tp370
a(I44
I8
tp371
a(I44
I11
tp372
a(I44
I14
tp373
a(I44
I17
tp374
a(I44
I20
tp375
a(I44
I23
tp376
a(I44
I26
tp377
a(I44
I29
tp378
a(I44
I32
tp379
a(I44
I35
tp380
a(I44
I38
tp381
a(I44
I41
tp382
a(I45
I0
tp383
a(I46
I2
tp384
a(I46
I5
tp385
a(I46
I8
tp386
a(I46
I11
tp387
a(I46
I14
tp388
a(I46
I17
tp389
a(I46
I20
tp390
a(I46
I23
tp391
a(I46
I26
tp392
a(I46
I29
tp393
a(I46
I32
tp394
a(I46
I35
tp395
a(I46
I38
tp396
a(I46
I41
tp397
a(I46
I44
tp398
a(I46
I47
tp399
a(I46
I50
tp400
a(I46
I53
tp401
a(I46
I56
tp402
a(I46
I59
tp403
a(I47
I2
tp404
a(I47
I5
tp405
a(I48
I2
tp406
a(I48
I5
tp407
a(I48
I8
tp408
a(I48
I11
tp409
a(I49
I2
tp410
a(I49
I5
tp411
a(I49
I8
tp412
a(I49
I11
tp413
a(I49
I14
tp414
a(I49
I17
tp415
a(I49
I20
tp416
a(I49
I23
tp417
a(I49
I26
tp418
a(I49
I29
tp419
a(I49
I32
tp420
a(I49
I35
tp421
a(I49
I38
tp422
a(I49
I41
tp423
a(I49
I44
tp424
a(I49
I47
tp425
a(I49
I50
tp426
a(I49
I53
tp427
a(I49
I56
tp428
a(I49
I59
tp429
a(I50
I2
tp430
a(I50
I5
tp431
a(I50
I8
tp432
a(I50
I11
tp433
a(I51
I2
tp434
a(I51
I5
tp435
a(I51
I8
tp436
a(I51
I11
tp437
a(I52
I2
tp438
a(I52
I5
tp439
a(I52
I8
tp440
a(I52
I11
tp441
a(I53
I0
tp442
a(I54
I2
tp443
a(I54
I5
tp444
a(I55
I2
tp445
a(I55
I5
tp446
a(I56
I2
tp447
a(I56
I5
tp448
a(I57
I0
tp449
a(I58
I0
tp450
a(I59
I2
tp451
a(I59
I5
tp452
a(I59
I8
tp453
a(I59
I11
tp454
a(I60
I2
tp455
a(I60
I5
tp456
a(I60
I8
tp457
a(I60
I11
tp458
a(I60
I14
tp459
a(I60
I17
tp460
a(I60
I20
tp461
a(I60
I23
tp462
a(I60
I26
tp463
a(I60
I29
tp464
a(I61
I2
tp465
a(I61
I5
tp466
a(I62
I2
tp467
a(I62
I5
tp468
a(I63
I2
tp469
a(I63
I5
tp470
a(I63
I8
tp471
a(I63
I11
tp472
a(I63
I14
tp473
a(I63
I17
tp474
a(I63
I20
tp475
a(I63
I23
tp476
a(I64
I2
tp477
a(I64
I5
tp478
a(I65
I0
tp479
a(I66
I0
tp480
a(I67
I2
tp481
a(I67
I5
tp482
a(I67
I8
tp483
a(I67
I11
tp484
a(I68
I2
tp485
a(I68
I5
tp486
a(I68
I8
tp487
a(I68
I11
tp488
a(I69
I2
tp489
a(I69
I5
tp490
a(I69
I8
tp491
a(I69
I11
tp492
a(I70
I0
tp493
a(I71
I0
tp494
a(I72
I22
tp495
a(I73
I0
tp496
a(I74
I0
tp497
a(I75
I2
tp498
a(I75
I5
tp499
a(I75
I8
tp500
a(I75
I11
tp501
a(I75
I14
tp502
a(I75
I17
tp503
a(I75
I20
tp504
a(I75
I23
tp505
a(I75
I26
tp506
a(I75
I29
tp507
a(I75
I32
tp508
a(I75
I35
tp509
a(I75
I38
tp510
a(I75
I41
tp511
a(I75
I44
tp512
a(I75
I47
tp513
a(I75
I50
tp514
a(I75
I53
tp515
a(I75
I56
tp516
a(I75
I59
tp517
a(I76
I2
tp518
a(I76
I5
tp519
a(I77
I2
tp520
a(I77
I5
tp521
a(I77
I8
tp522
a(I77
I11
tp523
a(I78
I2
tp524
a(I78
I5
tp525
a(I78
I8
tp526
a(I78
I11
tp527
a(I78
I14
tp528
a(I78
I17
tp529
a(I78
I20
tp530
a(I78
I23
tp531
a(I78
I26
tp532
a(I78
I29
tp533
a(I78
I32
tp534
a(I78
I35
tp535
a(I78
I38
tp536
a(I78
I41
tp537
a(I78
I44
tp538
a(I78
I47
tp539
a(I78
I50
tp540
a(I78
I53
tp541
a(I78
I56
tp542
a(I78
I59
tp543
a(I79
I2
tp544
a(I79
I5
tp545
a(I79
I8
tp546
a(I79
I11
tp547
a(I80
I2
tp548
a(I80
I5
tp549
a(I80
I8
tp550
a(I80
I11
tp551
a(I81
I2
tp552
a(I81
I5
tp553
a(I81
I8
tp554
a(I81
I11
tp555
a(I82
I0
tp556
a(I83
I2
tp557
a(I83
I5
tp558
a(I84
I2
tp559
a(I84
I5
tp560
a(I84
I8
tp561
a(I84
I11
tp562
a(I84
I14
tp563
a(I84
I17
tp564
a(I84
I20
tp565
a(I84
I23
tp566
a(I84
I26
tp567
a(I84
I29
tp568
a(I84
I32
tp569
a(I84
I35
tp570
a(I84
I38
tp571
a(I84
I41
tp572
a(I85
I2
tp573
a(I85
I5
tp574
a(I86
I2
tp575
a(I86
I5
tp576
a(I87
I2
tp577
a(I87
I5
tp578
a(I88
I0
tp579
a(I89
I2
tp580
a(I89
I5
tp581
a(I90
I2
tp582
a(I90
I5
tp583
a(I91
I2
tp584
a(I91
I5
tp585
a(I92
I0
tp586
a(I93
I0
tp587
a(I94
I0
tp588
a(I95
I0
tp589
a(I96
I22
tp590
asg216
(lp591
(I0
I0
tp592
a(I1
I17
tp593
a(I2
I17
tp594
a(I3
I17
tp595
a(I4
I17
tp596
a(I5
I17
tp597
a(I6
I17
tp598
a(I7
I17
tp599
a(I8
I0
tp600
a(I9
I0
tp601
a(I10
I0
tp602
a(I11
I17
tp603
a(I12
I17
tp604
a(I13
I17
tp605
a(I14
I17
tp606
a(I15
I17
tp607
a(I16
I17
tp608
a(I17
I0
tp609
a(I18
I0
tp610
a(I19
I0
tp611
a(I20
I17
tp612
a(I21
I0
tp613
a(I22
I9
tp614
a(I23
I3
tp615
a(I24
I3
tp616
a(I25
I0
tp617
a(I26
I0
tp618
a(I27
I17
tp619
a(I28
I17
tp620
a(I29
I17
tp621
a(I30
I17
tp622
a(I31
I17
tp623
a(I32
I0
tp624
a(I33
I0
tp625
a(I34
I17
tp626
a(I35
I17
tp627
a(I36
I17
tp628
a(I37
I17
tp629
a(I38
I17
tp630
a(I39
I17
tp631
a(I40
I0
tp632
a(I41
I0
tp633
a(I42
I0
tp634
a(I43
I17
tp635
a(I44
I17
tp636
a(I45
I0
tp637
a(I46
I17
tp638
a(I47
I17
tp639
a(I48
I17
tp640
a(I49
I17
tp641
a(I50
I17
tp642
a(I51
I17
tp643
a(I52
I17
tp644
a(I53
I0
tp645
a(I54
I17
tp646
a(I55
I17
tp647
a(I56
I17
tp648
a(I57
I0
tp649
a(I58
I0
tp650
a(I59
I17
tp651
a(I60
I17
tp652
a(I61
I17
tp653
a(I62
I17
tp654
a(I63
I17
tp655
a(I64
I17
tp656
a(I65
I0
tp657
a(I66
I0
tp658
a(I67
I17
tp659
a(I68
I17
tp660
a(I69
I17
tp661
a(I70
I0
tp662
a(I71
I0
tp663
a(I72
I3
tp664
a(I73
I0
tp665
a(I74
I0
tp666
a(I75
I17
tp667
a(I76
I17
tp668
a(I77
I17
tp669
a(I78
I17
tp670
a(I79
I17
tp671
a(I80
I17
tp672
a(I81
I17
tp673
a(I82
I0
tp674
a(I83
I17
tp675
a(I84
I17
tp676
a(I85
I17
tp677
a(I86
I17
tp678
a(I87
I17
tp679
a(I88
I0
tp680
a(I89
I17
tp681
a(I90
I17
tp682
a(I91
I17
tp683
a(I92
I0
tp684
a(I93
I0
tp685
a(I94
I0
tp686
a(I95
I0
tp687
a(I96
I3
tp688
asg218
(lp689
(I0
I0
tp690
a(I1
I5
tp691
a(I2
I5
tp692
a(I3
I5
tp693
a(I4
I5
tp694
a(I5
I5
tp695
a(I6
I5
tp696
a(I7
I5
tp697
a(I8
I0
tp698
a(I9
I0
tp699
a(I10
I0
tp700
a(I11
I5
tp701
a(I12
I5
tp702
a(I13
I5
tp703
a(I14
I5
tp704
a(I15
I5
tp705
a(I16
I5
tp706
a(I17
I0
tp707
a(I18
I0
tp708
a(I19
I0
tp709
a(I20
I5
tp710
a(I21
I0
tp711
a(I22
I7
tp712
a(I23
I1
tp713
a(I24
I1
tp714
a(I25
I0
tp715
a(I26
I0
tp716
a(I27
I5
tp717
a(I28
I5
tp718
a(I29
I5
tp719
a(I30
I5
tp720
a(I31
I5
tp721
a(I32
I0
tp722
a(I33
I0
tp723
a(I34
I5
tp724
a(I35
I5
tp725
a(I36
I5
tp726
a(I37
I5
tp727
a(I38
I5
tp728
a(I39
I5
tp729
a(I40
I0
tp730
a(I41
I0
tp731
a(I42
I0
tp732
a(I43
I5
tp733
a(I44
I5
tp734
a(I45
I0
tp735
a(I46
I5
tp736
a(I47
I5
tp737
a(I48
I5
tp738
a(I49
I5
tp739
a(I50
I5
tp740
a(I51
I5
tp741
a(I52
I5
tp742
a(I53
I0
tp743
a(I54
I5
tp744
a(I55
I5
tp745
a(I56
I5
tp746
a(I57
I0
tp747
a(I58
I0
tp748
a(I59
I5
tp749
a(I60
I5
tp750
a(I61
I5
tp751
a(I62
I5
tp752
a(I63
I5
tp753
a(I64
I5
tp754
a(I65
I0
tp755
a(I66
I0
tp756
a(I67
I5
tp757
a(I68
I5
tp758
a(I69
I5
tp759
a(I70
I0
tp760
a(I71
I0
tp761
a(I72
I1
tp762
a(I73
I0
tp763
a(I74
I0
tp764
a(I75
I5
tp765
a(I76
I5
tp766
a(I77
I5
tp767
a(I78
I5
tp768
a(I79
I5
tp769
a(I80
I5
tp770
a(I81
I5
tp771
a(I82
I0
tp772
a(I83
I5
tp773
a(I84
I5
tp774
a(I85
I5
tp775
a(I86
I5
tp776
a(I87
I5
tp777
a(I88
I0
tp778
a(I89
I5
tp779
a(I90
I5
tp780
a(I91
I5
tp781
a(I92
I0
tp782
a(I93
I0
tp783
a(I94
I0
tp784
a(I95
I0
tp785
a(I96
I1
tp786
assbsS'checksums'
p787
S'33849  2103\n'
p788
s.