ccollections
defaultdict
p1
(c__builtin__
dict
p2
tRp3
S'/lib/x86_64-linux-gnu/libpthread-2.15.so'
p4
(dp5
S'0x9b10'
p6
(S'pthread_getattr_np'
I192
S'pthread_getattr_np.c'
I156
tp7
sS'0x68c2'
p8
(S'__pthread_initialize_minimal_internal'
I32
S'nptl-init.c'
I308
tp9
sS'0xd419'
p10
(S'pthread_once'
I105
S'../nptl/sysdeps/unix/sysv/linux/x86_64/pthread_once.S'
I129
tp11
sS'0xbe76'
p12
(S'pthread_cond_wait@@GLIBC_2.3.2'
I438
S'../nptl/sysdeps/unix/sysv/linux/x86_64/pthread_cond_wait.S'
I291
tp13
sS'0x6a0a'
p14
(S'__pthread_initialize_minimal_internal'
I362
S'nptl-init.c'
I390
tp15
sS'0x7e9a'
p16
(S'start_thread'
I201
S'pthread_create.c'
I308
tp17
sS'0x9148'
p18
(S'pthread_join'
I151
S'pthread_join.c'
I89
tp19
sS'0x6a2f'
p20
(S'__pthread_initialize_minimal_internal'
I399
S'../sysdeps/unix/sysv/linux/bits/sigset.h'
I119
tp21
sS'0xbe92'
p22
(S'pthread_cond_wait@@GLIBC_2.3.2'
I466
S'../nptl/sysdeps/unix/sysv/linux/x86_64/pthread_cond_wait.S'
I303
tp23
sS'0xdfd0'
p24
(S'sem_wait'
I48
S'../nptl/sysdeps/unix/sysv/linux/x86_64/sem_wait.S'
I86
tp25
sS'0xbd84'
p26
(S'pthread_cond_wait@@GLIBC_2.3.2'
I196
S'../nptl/sysdeps/unix/sysv/linux/x86_64/pthread_cond_wait.S'
I162
tp27
sS'0xfcb9'
p28
(S'__restore_rt'
I9
NNtp29
sS'0xc0fe'
p30
(S'pthread_cond_timedwait@@GLIBC_2.3.2'
I318
S'../nptl/sysdeps/unix/sysv/linux/x86_64/pthread_cond_timedwait.S'
I215
tp31
sS'0xfcb0'
p32
(S'__restore_rt'
I0
NNtp33
sS'0x7e29'
p34
(S'start_thread'
I105
S'pthread_create.c'
I269
tp35
sS'0x7f59'
p36
(S'start_thread'
I392
S'pthread_create.c'
I404
tp37
sS'0x692c'
p38
(S'__pthread_initialize_minimal_internal'
I140
S'nptl-init.c'
I359
tp39
sS'0xef45'
p40
(S'__libc_fcntl'
I133
S'../sysdeps/unix/sysv/linux/fcntl.c'
I40
tp41
sS'0x7f37'
p42
(S'start_thread'
I375
S'pthread_create.c'
I434
tp43
sS'0xf40d'
p44
(S'fsync'
I0
S'../sysdeps/unix/syscall-template.S'
I82
tp45
sS'0xed2d'
p46
(S'read'
I0
S'../sysdeps/unix/syscall-template.S'
I82
tp47
sS'0x6955'
p48
(S'__pthread_initialize_minimal_internal'
I181
S'nptl-init.c'
I360
tp49
sS'0xeccd'
p50
(S'write'
I0
S'../sysdeps/unix/syscall-template.S'
I82
tp51
sS'0xe9fa'
p52
(S'__lll_unlock_wake'
I26
S'../nptl/sysdeps/unix/sysv/linux/x86_64/lowlevellock.S'
I368
tp53
sS'0xa065'
p54
(S'_L_lock_858'
I15
NNtp55
sS'0x52b9'
p56
(S'_init'
I9
NNtp57
sS'0xe25d'
p58
(S'sem_post'
I45
S'../nptl/sysdeps/unix/sysv/linux/x86_64/sem_post.S'
I58
tp59
sS'0x112b8'
p60
(S'_L_cond_lock_874'
I15
NNtp61
sS'0xf58d'
p62
(S'open64'
I0
S'../sysdeps/unix/syscall-template.S'
I82
tp63
sS'0x6ac5'
p64
(S'__pthread_initialize_minimal_internal'
I544
S'nptl-init.c'
I418
tp65
sS'0xe89c'
p66
(S'__lll_lock_wait'
I28
S'../nptl/sysdeps/unix/sysv/linux/x86_64/lowlevellock.S'
I132
tp67
sS'0xfdb5'
p68
(S'__libc_sigaction'
I203
S'../sysdeps/unix/sysv/linux/x86_64/sigaction.c'
I67
tp69
sS'0xc565'
p70
(S'pthread_cond_signal@@GLIBC_2.3.2'
I101
S'../nptl/sysdeps/unix/sysv/linux/x86_64/pthread_cond_signal.S'
I89
tp71
sS'0xff48'
p72
(S'__pthread_getaffinity_new'
I40
S'../nptl/sysdeps/unix/sysv/linux/pthread_getaffinity.c'
I38
tp73
sS'0xb104'
p74
(S'_L_unlock_644'
I15
NNtp75
ssS'/lib/x86_64-linux-gnu/libc-2.15.so'
p76
(dp77
S'0x12d0cd'
p78
(S'wait_on_socket'
I45
S'nscd_helper.c'
I56
tp79
sS'0xe6e50'
p80
(S'__openat_nocancel'
I0
S'../sysdeps/unix/sysv/linux/wordsize-64/../openat.c'
I96
tp81
sS'0x3b960'
p82
(S'__run_exit_handlers'
I240
S'exit.c'
I87
tp83
sS'0xbc06f'
p84
(S'__readdir_r'
I223
S'../sysdeps/unix/readdir_r.c'
I66
tp85
sS'0xc0f87'
p86
(S'getgid'
I7
S'../sysdeps/unix/syscall-template.S'
I64
tp87
sS'0xeed27'
p88
(S'ftruncate64'
I0
S'../sysdeps/unix/syscall-template.S'
I82
tp89
sS'0x7b32b'
p90
(S'_IO_file_read'
I27
S'fileops.c'
I1225
tp91
sS'0x5de09'
p92
(S'__GI_remove'
I9
S'../sysdeps/posix/remove.c'
I43
tp93
sS'0x3ab0a'
p94
(S'qsort_r'
I682
S'msort.c'
I190
tp95
sS'0xf5697'
p96
(S'socket'
I0
S'../sysdeps/unix/syscall-template.S'
I82
tp97
sS'0x585af'
p98
(S'_IO_vfscanf_internal'
I19028
S'vfscanf.c'
I1781
tp99
sS'0x102129'
p100
(S'__lll_unlock_wake_private'
I25
S'../nptl/sysdeps/unix/sysv/linux/x86_64/lowlevellock.S'
I338
tp101
sS'0xe69e5'
p102
(S'__GI___lxstat'
I8
S'../sysdeps/unix/sysv/linux/wordsize-64/lxstat.c'
I38
tp103
sS'0xf2a12'
p104
(S'next_line'
I214
S'../sysdeps/unix/sysv/linux/getsysstats.c'
I92
tp105
sS'0x12a7ce'
p106
(S'__nscd_getpwuid_r'
I94
S'nscd_getpw_r.c'
I67
tp107
sS'0xecbc5'
p108
(S'__GI___sbrk'
I69
S'sbrk.c'
I55
tp109
sS'0x6f06b'
p110
(S'_IO_fgets'
I155
S'iofgets.c'
I63
tp111
sS'0xb2119'
p112
(S'__tzfile_read'
I531
S'tzfile.c'
I205
tp113
sS'0xecbfe'
p114
(S'__GI___sbrk'
I121
S'sbrk.c'
I44
tp115
sS'0x7b4a0'
p116
(S'_IO_file_xsgetn'
I328
S'fileops.c'
I1458
tp117
sS'0x729cd'
p118
(S'_IO_getc'
I165
S'getc.c'
I41
tp119
sS'0xc2125'
p120
(S'__GI___sysconf'
I848
S'../sysdeps/posix/sysconf.c'
I634
tp121
sS'0xc0f77'
p122
(S'geteuid'
I7
S'../sysdeps/unix/syscall-template.S'
I64
tp123
sS'0xec667'
p124
(S'setrlimit64'
I0
S'../sysdeps/unix/syscall-template.S'
I82
tp125
sS'0xe7982'
p126
(S'__getcwd'
I120
S'../sysdeps/unix/sysv/linux/getcwd.c'
I111
tp127
sS'0x12db7c'
p128
(S'__nscd_get_map_ref'
I204
S'nscd_helper.c'
I455
tp129
sS'0x2dd51'
p130
(S'_nl_load_locale_from_archive'
I1073
S'loadarchive.c'
I207
tp131
sS'0xbf4f9'
p132
(S'__getpwuid_r'
I377
S'../nss/getXXbyYY_r.c'
I196
tp133
sS'0x810da'
p134
(S'_int_malloc'
I3546
S'malloc.c'
I2535
tp135
sS'0xf43fd'
p136
(S'clone'
I109
S'../sysdeps/unix/sysv/linux/x86_64/clone.S'
I114
tp137
sS'0xe6e0d'
p138
(S'open64'
I0
S'../sysdeps/unix/syscall-template.S'
I82
tp139
sS'0xb207f'
p140
(S'__tzfile_read'
I399
S'tzfile.c'
I183
tp141
sS'0xf2b93'
p142
(S'__get_nprocs'
I131
S'../sysdeps/unix/sysv/linux/getsysstats.c'
I157
tp143
sS'0xf2d96'
p144
(S'__get_nprocs_conf'
I22
S'../sysdeps/unix/sysv/linux/getsysstats.c'
I247
tp145
sS'0xc0f67'
p146
(S'getuid'
I7
S'../sysdeps/unix/syscall-template.S'
I64
tp147
sS'0x12d1f2'
p148
(S'open_socket'
I65
S'nscd_helper.c'
I173
tp149
sS'0xb1c3b'
p150
(S'__tzset'
I59
S'tzset.c'
I594
tp151
sS'0xf28a8'
p152
(S'phys_pages_info'
I72
S'../sysdeps/unix/sysv/linux/getsysstats.c'
I310
tp153
sS'0x830cb'
p154
(S'__GI___libc_malloc'
I427
S'malloc.c'
I2922
tp155
sS'0xf0897'
p156
(S'madvise'
I0
S'../sysdeps/unix/syscall-template.S'
I82
tp157
sS'0x7a629'
p158
(S'_IO_new_file_fopen'
I212
S'fileops.c'
I233
tp159
sS'0x45955'
p160
(S'__realpath'
I400
S'canonicalize.c'
I162
tp161
sS'0x12d81f'
p162
(S'__nscd_get_mapping'
I288
S'nscd_helper.c'
I332
tp163
sS'0x74abe'
p164
(S'__GI_fread_unlocked'
I78
S'iofread_u.c'
I46
tp165
sS'0xe6d87'
p166
(S'mkdir'
I0
S'../sysdeps/unix/syscall-template.S'
I82
tp167
sS'0x8524c'
p168
(S'_L_unlock_10596'
I15
NNtp169
sS'0xf287b'
p170
(S'phys_pages_info'
I43
S'../sysdeps/unix/sysv/linux/getsysstats.c'
I300
tp171
sS'0xc2135'
p172
(S'__GI___sysconf'
I864
S'../sysdeps/posix/sysconf.c'
I631
tp173
sS'0xf523d'
p174
(S'connect'
I0
S'../sysdeps/unix/syscall-template.S'
I82
tp175
sS'0xe8967'
p176
(S'unlink'
I0
S'../sysdeps/unix/syscall-template.S'
I82
tp177
sS'0x7faa5'
p178
(S'_int_free'
I1316
S'arena.c'
I633
tp179
sS'0x7c03e'
p180
(S'_IO_default_uflow'
I14
S'genops.c'
I441
tp181
sS'0xf2da8'
p182
(S'__get_nprocs_conf'
I32
S'../sysdeps/unix/sysv/linux/getsysstats.c'
I252
tp183
sS'0x12d761'
p184
(S'__nscd_get_mapping'
I113
S'nscd_helper.c'
I290
tp185
sS'0xe8a43'
p186
(S'__GI___poll'
I63
S'../sysdeps/unix/sysv/linux/poll.c'
I87
tp187
sS'0x7f13e'
p188
(S'arena_get2'
I238
S'arena.c'
I842
tp189
sS'0xc0458'
p190
(S'__GI__exit'
I48
S'../sysdeps/unix/sysv/linux/_exit.c'
I33
tp191
sS'0x74bb0'
p192
(S'__GI_fgets_unlocked'
I80
S'iofgets_u.c'
I61
tp193
sS'0xbbe15'
p194
(S'__opendirat'
I21
S'../sysdeps/unix/opendir.c'
I127
tp195
sS'0xc2145'
p196
(S'__GI___sysconf'
I880
S'../sysdeps/posix/sysconf.c'
I628
tp197
sS'0x12d2d9'
p198
(S'open_socket'
I294
S'nscd_helper.c'
I226
tp199
sS'0xe89c7'
p200
(S'rmdir'
I0
S'../sysdeps/unix/syscall-template.S'
I82
tp201
sS'0xbfb67'
p202
(S'uname'
I0
S'../sysdeps/unix/syscall-template.S'
I82
tp203
sS'0xf551c'
p204
(S'__libc_send'
I79
S'../sysdeps/unix/sysv/linux/x86_64/send.c'
I33
tp205
sS'0x5de47'
p206
(S'rename'
I0
S'../sysdeps/unix/syscall-template.S'
I82
tp207
sS'0x12d801'
p208
(S'__nscd_get_mapping'
I268
S'nscd_helper.c'
I326
tp209
sS'0x84fd2'
p210
(S'_L_unlock_3769'
I16
NNtp211
sS'0xbbf01'
p212
(S'__readdir'
I129
S'../sysdeps/unix/readdir.c'
I67
tp213
sS'0x12a3a5'
p214
(S'nscd_getpw_r'
I80
S'nscd_getpw_r.c'
I97
tp215
sS'0xecb1a'
p216
(S'__brk'
I3
S'../sysdeps/unix/sysv/linux/x86_64/brk.c'
I32
tp217
sS'0xe6fe0'
p218
(S'read'
I0
S'../sysdeps/unix/syscall-template.S'
I82
tp219
sS'0x7adec'
p220
(S'_IO_new_file_fopen'
I2199
S'fileops.c'
I230
tp221
sS'0xe6ffd'
p222
(S'read'
I0
S'../sysdeps/unix/syscall-template.S'
I82
tp223
sS'0x856e9'
p224
(S'__GI___default_morecore'
I9
S'morecore.c'
I51
tp225
sS'0x7aff8'
p226
(S'_IO_new_file_underflow'
I296
S'fileops.c'
I621
tp227
sS'0xf2bbc'
p228
(S'__get_nprocs'
I172
S'../sysdeps/unix/sysv/linux/getsysstats.c'
I160
tp229
sS'0xc0477'
p230
(S'__execve'
I0
S'../sysdeps/unix/sysv/linux/execve.c'
I60
tp231
sS'0xe6df0'
p232
(S'open64'
I0
S'../sysdeps/unix/syscall-template.S'
I82
tp233
sS'0x12d28c'
p234
(S'open_socket'
I231
S'nscd_helper.c'
I207
tp235
sS'0xb19a7'
p236
(S'tzset_internal'
I183
S'tzset.c'
I440
tp237
sS'0x7018a'
p238
(S'_IO_getline_info'
I170
S'iogetline.c'
I75
tp239
sS'0x1020fb'
p240
(S'__lll_lock_wait_private'
I27
S'../nptl/sysdeps/unix/sysv/linux/x86_64/lowlevellock.S'
I93
tp241
sS'0x2176d'
p242
(S'__libc_start_main'
I237
S'libc-start.c'
I258
tp243
sS'0x5d2b7'
p244
(S'__fscanf'
I135
S'fscanf.c'
I36
tp245
sS'0x84fb6'
p246
(S'_L_lock_3641'
I16
NNtp247
sS'0xec637'
p248
(S'getrlimit64'
I0
S'../sysdeps/unix/syscall-template.S'
I82
tp249
sS'0x2c4da'
p250
(S'__GI_setlocale'
I266
S'setlocale.c'
I381
tp251
sS'0xcaab7'
p252
(S'sched_yield'
I0
S'../sysdeps/unix/syscall-template.S'
I82
tp253
sS'0x5de29'
p254
(S'__GI_remove'
I41
S'../sysdeps/posix/remove.c'
I43
tp255
sS'0x45a5b'
p256
(S'__realpath'
I667
S'canonicalize.c'
I177
tp257
sS'0x6f266'
p258
(S'__fopen_internal'
I117
S'../sysdeps/wordsize-64/../../libio/iofopen.c'
I93
tp259
sS'0xf43c1'
p260
(S'clone'
I49
S'../sysdeps/unix/sysv/linux/x86_64/clone.S'
I84
tp261
sS'0xe8907'
p262
(S'readlink'
I0
S'../sysdeps/unix/syscall-template.S'
I82
tp263
sS'0xbc305'
p264
(S'__getdents'
I19
S'../sysdeps/unix/sysv/linux/getdents.c'
I105
tp265
sS'0xf547d'
p266
(S'recvmsg'
I0
S'../sysdeps/unix/syscall-template.S'
I82
tp267
sS'0x82f95'
p268
(S'__GI___libc_malloc'
I117
S'malloc.c'
I2925
tp269
sS'0xc0f97'
p270
(S'getegid'
I7
S'../sysdeps/unix/syscall-template.S'
I64
tp271
sS'0x2cdf3'
p272
(S'_nl_find_locale'
I195
S'findlocale.c'
I109
tp273
sS'0xe7097'
p274
(S'access'
I0
S'../sysdeps/unix/syscall-template.S'
I82
tp275
sS'0x59fb6'
p276
(S'_IO_vfscanf_internal'
I25685
S'vfscanf.c'
I620
tp277
sS'0x21774'
p278
(S'__libc_start_main'
I244
S'libc-start.c'
I106
tp279
ssS'/usr/lib/jvm/java-6-openjdk-amd64/jre/lib/amd64/server/libjvm.so'
p280
(dp281
S'0x749705'
p282
(S'_ZN7Threads9create_vmEP14JavaVMInitArgsPb'
I725
NNtp283
sS'0x4a5db6'
p284
(S'_ZN18InterpreterRuntime11monitorexitEP10JavaThreadP15BasicObjectLock'
I118
NNtp285
sS'0x4ac88a'
p286
(S'_Z11before_exitP10JavaThread'
I138
NNtp287
sS'0x31b8a8'
p288
(S'_ZN12PhaseChaitin17Register_AllocateEv'
I456
NNtp289
sS'0x745932'
p290
(S'_ZN13WatcherThread4stopEv'
I114
NNtp291
sS'0x6a5eac'
p292
(S'_ZN10Reflection19get_exception_typesE12methodHandleP6Thread'
I12
NNtp293
sS'0x74b294'
p294
(S'_ZN7Threads10destroy_vmEv'
I212
NNtp295
sS'0x6bc10a'
p296
(S'_ZN20SafepointSynchronize5beginEv'
I1130
NNtp297
sS'0x4a327a'
p298
(S'_ZN18InterpreterRuntime13quicken_io_ccEP10JavaThread'
I474
NNtp299
sS'0x74ad27'
p300
(S'_ZN10JavaThread4exitEbNS_8ExitTypeE'
I1879
NNtp301
sS'0x71b5a0'
p302
(S'_ZN16SystemDictionary19initialize_wk_klassENS_4WKIDEiP6Thread'
I160
NNtp303
sS'0x74946e'
p304
(S'_ZN7Threads9create_vmEP14JavaVMInitArgsPb'
I62
NNtp305
sS'0x4adfef'
p306
(S'_ZN9JavaCalls11call_staticEP9JavaValue11KlassHandle12symbolHandleS3_6HandleS4_P6Thread'
I79
NNtp307
sS'0x381216'
p308
(S'_ZN13CompileBroker21init_compiler_threadsEii'
I502
NNtp309
sS'0x680910'
p310
(S'_ZN10PerfMemory10initializeEv'
I64
NNtp311
sS'0x64f38e'
p312
(S'_ZN2os5Linux23install_signal_handlersEv'
I222
NNtp313
sS'0x681eef'
p314
(S'_ZN10PerfMemory20create_memory_regionEm'
I1423
NNtp315
sS'0x6227ae'
p316
(S'_ZN7Monitor5IWaitEP6Threadl'
I126
NNtp317
sS'0x64ac71'
p318
(S'_ZL10java_startP6Thread'
I241
NNtp319
sS'0x4c0289'
p320
(S'jni_FindClass'
I489
NNtp321
sS'0x4ae187'
p322
(S'_ZN9JavaCalls12call_specialEP9JavaValue6Handle11KlassHandle12symbolHandleS4_S2_S2_P6Thread'
I103
NNtp323
sS'0x374082'
p324
(S'_ZN19NonTieredCompPolicy5eventE12methodHandleS0_ii9CompLevelP6Thread'
I258
NNtp325
sS'0x744e01'
p326
(S'_ZN13WatcherThread3runEv'
I193
NNtp327
sS'0x37ee57'
p328
(S'_ZN13CompileBroker19compile_method_baseE12methodHandleiiS0_iPKcP6Thread'
I199
NNtp329
sS'0x435a8f'
p330
(S'_ZN13GCTaskManager10initializeEv'
I575
NNtp331
sS'0x7492ff'
p332
(S'_ZN10JavaThread21invoke_shutdown_hooksEv'
I159
NNtp333
sS'0x3b455d'
p334
(S'_ZN19constantPoolOopDesc12klass_ref_atEiP6Thread'
I93
NNtp335
sS'0x62301a'
p336
(S'_ZN7Monitor4waitEblb'
I602
NNtp337
sS'0x749a74'
p338
(S'_ZN7Threads9create_vmEP14JavaVMInitArgsPb'
I1604
NNtp339
sS'0x37f401'
p340
(S'_ZN13CompileBroker14compile_methodE12methodHandleiiS0_iPKcP6Thread'
I1153
NNtp341
sS'0x645cca'
p342
(S'_ZN2os12start_threadEP6Thread'
I58
NNtp343
sS'0x352721'
p344
(S'_ZN17ClassPathZipEntry11open_streamEPKc'
I305
NNtp345
sS'0x622f85'
p346
(S'_ZN7Monitor4waitEblb'
I453
NNtp347
sS'0x4e4376'
p348
(S'_ZL12thread_entryP10JavaThreadP6Thread'
I134
NNtp349
sS'0x681b3c'
p350
(S'_ZN10PerfMemory20create_memory_regionEm'
I476
NNtp351
sS'0x71b574'
p352
(S'_ZN16SystemDictionary19initialize_wk_klassENS_4WKIDEiP6Thread'
I116
NNtp353
sS'0x4c4256'
p354
(S'jni_CallStaticBooleanMethodV'
I214
NNtp355
sS'0x6403d0'
p356
(S'_ZN13ObjectMonitor4waitElbP6Thread'
I512
NNtp357
sS'0x37a611'
p358
(S'_ZN7Compile8OptimizeEv'
I817
NNtp359
sS'0x472de5'
p360
(S'_Z12init_globalsv'
I149
NNtp361
sS'0x6a6e22'
p362
(S'_ZN10Reflection9new_fieldEP15fieldDescriptorbP6Thread'
I370
NNtp363
sS'0x37e057'
p364
(S'_ZN12CompileQueue3getEv'
I279
NNtp365
sS'0x4cccb1'
p366
(S'JNI_CreateJavaVM'
I97
NNtp367
sS'0x6224bd'
p368
(S'_ZN7Monitor5ILockEP6Thread'
I413
NNtp369
sS'0x646df7'
p370
(S'_ZN2os28block_on_serialize_page_trapEv'
I23
NNtp371
sS'0x7876fc'
p372
(S'_ZN8VMThread3runEv'
I76
NNtp373
sS'0x37bd8a'
p374
(S'_ZN7CompileC2EP5ciEnvP10C2CompilerP8ciMethodibb'
I2858
NNtp375
sS'0x47be77'
p376
(S'_ZN13instanceKlass15initialize_implE19instanceKlassHandleP6Thread'
I391
NNtp377
sS'0x787492'
p378
(S'_ZN8VMThread4loopEv'
I482
NNtp379
sS'0x648e41'
p380
(S'_ZN2os5Linux10clock_initEv'
I129
NNtp381
sS'0x64f361'
p382
(S'_ZN2os5Linux23install_signal_handlersEv'
I177
NNtp383
sS'0x4cd905'
p384
(S'_ZN20ThreadInVMfromNativeC2EP10JavaThread'
I85
NNtp385
sS'0x75e749'
p386
(S'_Z18universe_post_initv'
I1385
NNtp387
sS'0x74b26e'
p388
(S'_ZN7Threads10destroy_vmEv'
I174
NNtp389
sS'0x75f7cf'
p390
(S'_Z14universe2_initv'
I31
NNtp391
sS'0x74acda'
p392
(S'_ZN10JavaThread4exitEbNS_8ExitTypeE'
I1802
NNtp393
sS'0x4ed289'
p394
(S'JVM_StartThread'
I169
NNtp395
sS'0x2347d5'
p396
(S'_ZN11ResourceObjnwEmNS_15allocation_typeE'
I85
NNtp397
sS'0x749746'
p398
(S'_ZN7Threads9create_vmEP14JavaVMInitArgsPb'
I790
NNtp399
sS'0x4367c8'
p400
(S'_ZN12GCTaskThread3runEv'
I328
NNtp401
sS'0x4a25dc'
p402
(S'_ZN18InterpreterRuntime4_newEP10JavaThreadP19constantPoolOopDesci'
I540
NNtp403
sS'0x744289'
p404
(S'_ZL16initialize_class12symbolHandleP6Thread'
I25
NNtp405
sS'0x776787'
p406
(S'_ZN13ClassVerifier13verify_methodE12methodHandleP6Thread'
I3831
NNtp407
sS'0x622e5e'
p408
(S'_ZN7Monitor4waitEblb'
I158
NNtp409
sS'0x744d21'
p410
(S'_ZN6Thread26record_stack_base_and_sizeEv'
I17
NNtp411
sS'0x64897c'
p412
(S'_ZN2os5Linux21capture_initial_stackEm'
I156
NNtp413
sS'0x748beb'
p414
(S'_ZN14CompilerThreadC2EP12CompileQueueP16CompilerCounters'
I43
NNtp415
sS'0x3803f3'
p416
(S'_ZN13CompileBroker25invoke_compiler_on_methodEP11CompileTask'
I675
NNtp417
sS'0x6bc96b'
p418
(S'_ZN20SafepointSynchronize5blockEP10JavaThread'
I475
NNtp419
sS'0x4b97c9'
p420
(S'attach_current_thread.isra.108.part.109'
I89
NNtp421
sS'0x749a8f'
p422
(S'_ZN7Threads9create_vmEP14JavaVMInitArgsPb'
I1631
NNtp423
sS'0x744d2d'
p424
(S'_ZN6Thread26record_stack_base_and_sizeEv'
I29
NNtp425
sS'0x4355ba'
p426
(S'_ZN13GCTaskManager8get_taskEj'
I58
NNtp427
sS'0x4a2426'
p428
(S'_ZN18InterpreterRuntime4_newEP10JavaThreadP19constantPoolOopDesci'
I102
NNtp429
sS'0x681b6e'
p430
(S'_ZN10PerfMemory20create_memory_regionEm'
I526
NNtp431
sS'0x23a0d6'
p432
(S'_ZN12SysClassPath15expand_endorsedEv'
I230
NNtp433
sS'0x779e74'
p434
(S'_ZN13StackMapFrame9pop_stackE16VerificationTypeP6Thread'
I116
NNtp435
sS'0x76ff4b'
p436
(S'_ZNK16VerificationType28is_reference_assignable_fromERKS_19instanceKlassHandleP6Thread'
I315
NNtp437
sS'0x6bbeea'
p438
(S'_ZN20SafepointSynchronize5beginEv'
I586
NNtp439
sS'0x4f29f0'
p440
(S'_Z28find_class_from_class_loaderP7JNIEnv_12symbolHandleh6HandleS2_hP6Thread'
I144
NNtp441
sS'0x62597a'
p442
(S'_ZN12NativeLookup12lookup_styleE12methodHandlePcPKcibRbP6Thread'
I410
NNtp443
sS'0x625c2c'
p444
(S'_ZN12NativeLookup12lookup_entryE12methodHandleRbP6Thread'
I108
NNtp445
sS'0x649d21'
p446
(S'_ZN2os8dll_loadEPKcPci'
I65
NNtp447
sS'0x787722'
p448
(S'_ZN8VMThread3runEv'
I114
NNtp449
sS'0x40c277'
p450
(S'_ZN10Exceptions10_throw_msgEP6ThreadPKci12symbolHandleS3_6HandleS5_'
I87
NNtp451
sS'0x75e78b'
p452
(S'_Z18universe_post_initv'
I1451
NNtp453
sS'0x3527e0'
p454
(S'_ZN17ClassPathZipEntry11open_streamEPKc'
I496
NNtp455
sS'0x71a03e'
p456
(S'_ZN16SystemDictionary21resolve_super_or_failE12symbolHandleS0_6HandleS1_bP6Thread'
I654
NNtp457
sS'0x74947b'
p458
(S'_ZN7Threads9create_vmEP14JavaVMInitArgsPb'
I75
NNtp459
sS'0x78761d'
p460
(S'_ZN8VMThread4loopEv'
I877
NNtp461
sS'0x4ae51f'
p462
(S'_ZN9JavaCalls12call_virtualEP9JavaValue6Handle11KlassHandle12symbolHandleS4_P6Thread'
I79
NNtp463
sS'0x4f6c7a'
p464
(S'JVM_RegisterSignal'
I170
NNtp465
sS'0x380a4c'
p466
(S'_ZN13CompileBroker20compiler_thread_loopEv'
I364
NNtp467
sS'0x4f6d7a'
p468
(S'JVM_RegisterSignal'
I426
NNtp469
sS'0x640745'
p470
(S'_ZN13ObjectMonitor4waitElbP6Thread'
I1397
NNtp471
sS'0x35563f'
p472
(S'_ZN11ClassLoader10initializeEv'
I1439
NNtp473
sS'0x787618'
p474
(S'_ZN8VMThread4loopEv'
I872
NNtp475
sS'0x71b810'
p476
(S'_ZN16SystemDictionary28initialize_preloaded_classesEP6Thread'
I384
NNtp477
sS'0x4ecb84'
p478
(S'JVM_Read'
I52
NNtp479
sS'0x4b7551'
p480
(S'_ZN34java_security_AccessControlContext6createE14objArrayHandleb6HandleP6Thread'
I65
NNtp481
sS'0x6a79c7'
p482
(S'_ZN10Reflection6invokeE19instanceKlassHandle12methodHandle6Handleb14objArrayHandle9BasicTypeS3_bP6Thread'
I1607
NNtp483
sS'0x353c2b'
p484
(S'_ZN11ClassLoader18get_canonical_pathEPcS0_i'
I75
NNtp485
sS'0x4adf8a'
p486
(S'_ZN9JavaCalls11call_staticEP9JavaValue11KlassHandle12symbolHandleS3_P17JavaCallArgumentsP6Thread'
I138
NNtp487
sS'0x650e3d'
p488
(S'_ZN2os18current_stack_baseEv'
I61
NNtp489
sS'0x647df2'
p490
(S'_ZN2os5Linux22initialize_system_infoEv'
I34
NNtp491
sS'0x436523'
p492
(S'_ZN12GCTaskThreadC2EP13GCTaskManagerjj'
I115
NNtp493
sS'0x5a1aa8'
p494
(S'_ZN12LinkResolver13resolve_fieldER15FieldAccessInfo18constantPoolHandleiN9Bytecodes4CodeEbbP6Thread'
I2568
NNtp495
sS'0x4ae4cb'
p496
(S'_ZN9JavaCalls12call_virtualEP9JavaValue6Handle11KlassHandle12symbolHandleS4_S2_P6Thread'
I91
NNtp497
sS'0x6bbf94'
p498
(S'_ZN20SafepointSynchronize5beginEv'
I756
NNtp499
sS'0x71b4f4'
p500
(S'_ZN16SystemDictionary15resolve_or_failE12symbolHandlebP6Thread'
I20
NNtp501
sS'0x373e5d'
p502
(S'_ZN16SimpleCompPolicy24method_back_branch_eventE12methodHandleiP6Thread'
I157
NNtp503
sS'0x47aad9'
p504
(S'_ZN13instanceKlass15link_class_implE19instanceKlassHandlebP6Thread'
I1321
NNtp505
sS'0x43669c'
p506
(S'_ZN12GCTaskThread3runEv'
I28
NNtp507
sS'0x35303e'
p508
(S'_ZN11ClassLoader16load_zip_libraryEv'
I94
NNtp509
sS'0x4ed346'
p510
(S'JVM_StartThread'
I358
NNtp511
sS'0x6e22ea'
p512
(S'_ZNK13StackMapTable14match_stackmapEP13StackMapFrameiibbP6Thread'
I314
NNtp513
sS'0x27a5bd'
p514
(S'_ZN23EnableBiasedLockingTask4taskEv'
I77
NNtp515
sS'0x64f352'
p516
(S'_ZN2os5Linux23install_signal_handlersEv'
I162
NNtp517
sS'0x64fa19'
p518
(S'_ZN2os6init_2Ev'
I649
NNtp519
sS'0x749de0'
p520
(S'_ZN7Threads9create_vmEP14JavaVMInitArgsPb'
I2480
NNtp521
sS'0x773334'
p522
(S'_ZN13ClassVerifier25verify_field_instructionsEP17RawBytecodeStreamP13StackMapFrame18constantPoolHandleP6Thread'
I1428
NNtp523
sS'0x5bcb21'
p524
(S'_ZN14PhaseIdealLoop18build_and_optimizeEbb'
I881
NNtp525
sS'0x4ae10a'
p526
(S'_ZN9JavaCalls12call_specialEP9JavaValue11KlassHandle12symbolHandleS3_P17JavaCallArgumentsP6Thread'
I122
NNtp527
sS'0x681b59'
p528
(S'_ZN10PerfMemory20create_memory_regionEm'
I505
NNtp529
sS'0x4c8357'
p530
(S'jni_NewObject'
I407
NNtp531
sS'0x75d78a'
p532
(S'_Z13universe_initv'
I106
NNtp533
sS'0x644fa0'
p534
(S'_ZL19signal_thread_entryP10JavaThreadP6Thread'
I64
NNtp535
sS'0x681a2c'
p536
(S'_ZN10PerfMemory20create_memory_regionEm'
I204
NNtp537
sS'0x647fd6'
p538
(S'_ZN2os5Linux16signal_sets_initEv'
I230
NNtp539
sS'0x775d59'
p540
(S'_ZN13ClassVerifier13verify_methodE12methodHandleP6Thread'
I1225
NNtp541
sS'0x645a7e'
p542
(S'_ZN2os19native_java_libraryEv'
I478
NNtp543
sS'0x4a2711'
p544
(S'_ZN18InterpreterRuntime8newarrayEP10JavaThread9BasicTypei'
I161
NNtp545
sS'0x235383'
p546
(S'_ZN16ChunkPoolCleaner4taskEv'
I403
NNtp547
sS'0x7742fa'
p548
(S'_ZN13ClassVerifier26verify_invoke_instructionsEP17RawBytecodeStreamjP13StackMapFramePb16VerificationType18constantPoolHandleP6Thread'
I2010
NNtp549
sS'0x5a110b'
p550
(S'_ZN12LinkResolver13resolve_fieldER15FieldAccessInfo18constantPoolHandleiN9Bytecodes4CodeEbbP6Thread'
I107
NNtp551
sS'0x64f17d'
p552
(S'_ZN2os5Linux18set_signal_handlerEib'
I61
NNtp553
sS'0x3546c8'
p554
(S'_ZN18LazyClassPathEntry11open_streamEPKc'
I72
NNtp555
sS'0x74b32f'
p556
(S'_ZN10JavaThread17thread_main_innerEv'
I31
NNtp557
sS'0x719480'
p558
(S'_ZN16SystemDictionary30resolve_instance_class_or_nullE12symbolHandle6HandleS1_P6Thread'
I1984
NNtp559
sS'0x774952'
p560
(S'_ZN13ClassVerifier26verify_invoke_instructionsEP17RawBytecodeStreamjP13StackMapFramePb16VerificationType18constantPoolHandleP6Thread'
I3634
NNtp561
sS'0x4b9de0'
p562
(S'_ZL20jni_invoke_nonstaticP7JNIEnv_P9JavaValueP8_jobject11JNICallTypeP10_jmethodIDP18JNI_ArgumentPusherP6Thread.constprop.146'
I560
NNtp563
sS'0x647fc8'
p564
(S'_ZN2os5Linux16signal_sets_initEv'
I216
NNtp565
sS'0x64ca20'
p566
(S'_ZN2os4openEPKcii'
I144
NNtp567
sS'0x63d6b6'
p568
(S'_ZN13ObjectMonitor10ExitEpilogEP6ThreadP12ObjectWaiter'
I70
NNtp569
sS'0x59f22a'
p570
(S'_ZN12LinkResolver13resolve_klassER11KlassHandle18constantPoolHandleiP6Thread'
I42
NNtp571
sS'0x74b2c1'
p572
(S'_ZN7Threads10destroy_vmEv'
I257
NNtp573
sS'0x4aaccc'
p574
(S'_ZN18InterpreterRuntime19prepare_native_callEP10JavaThreadP13methodOopDesc'
I124
NNtp575
sS'0x71b701'
p576
(S'_ZN16SystemDictionary28initialize_preloaded_classesEP6Thread'
I113
NNtp577
sS'0x4ae08e'
p578
(S'_ZN9JavaCalls11call_staticEP9JavaValue11KlassHandle12symbolHandleS3_P6Thread'
I62
NNtp579
sS'0x4c84c9'
p580
(S'jni_NewObjectV'
I281
NNtp581
sS'0x4adf60'
p582
(S'_ZN9JavaCalls11call_staticEP9JavaValue11KlassHandle12symbolHandleS3_P17JavaCallArgumentsP6Thread'
I96
NNtp583
sS'0x4aa04a'
p584
(S'_ZN18InterpreterRuntime32frequency_counter_overflow_innerEP10JavaThreadPh'
I298
NNtp585
sS'0x4359eb'
p586
(S'_ZN13GCTaskManager10initializeEv'
I411
NNtp587
sS'0x6227f8'
p588
(S'_ZN7Monitor5IWaitEP6Threadl'
I200
NNtp589
sS'0x4e7589'
p590
(S'JVM_DoPrivileged'
I1513
NNtp591
sS'0x71b3d0'
p592
(S'_ZN16SystemDictionary15resolve_or_nullE12symbolHandleP6Thread'
I16
NNtp593
sS'0x7768c5'
p594
(S'_ZN13ClassVerifier13verify_methodE12methodHandleP6Thread'
I4149
NNtp595
sS'0x6e17fc'
p596
(S'_ZNK13StackMapFrame16is_assignable_toEPKS_P6Thread'
I140
NNtp597
sS'0x234ceb'
p598
(S'_ZN5Chunk4chopEv'
I27
NNtp599
sS'0x4e8b28'
p600
(S'JVM_GetClassDeclaredFields'
I664
NNtp601
sS'0x745916'
p602
(S'_ZN13WatcherThread4stopEv'
I86
NNtp603
sS'0x37b0bd'
p604
(S'_ZN7Compile8OptimizeEv'
I3549
NNtp605
sS'0x5c7609'
p606
(S'_ZN17LowMemoryDetector10initializeEv'
I761
NNtp607
sS'0x64f085'
p608
(S'_ZN2os4initEv'
I133
NNtp609
sS'0x4a5bb9'
p610
(S'_ZN18InterpreterRuntime12monitorenterEP10JavaThreadP15BasicObjectLock'
I153
NNtp611
sS'0x767e67'
p612
(S'Unsafe_EnsureClassInitialized'
I103
NNtp613
sS'0x5a1bcb'
p614
(S'_ZN12LinkResolver13resolve_fieldER15FieldAccessInfo18constantPoolHandleiN9Bytecodes4CodeEbP6Thread'
I27
NNtp615
sS'0x354d48'
p616
(S'_ZN11ClassLoader16setup_meta_indexEv'
I312
NNtp617
sS'0x719ceb'
p618
(S'_ZN16SystemDictionary27resolve_array_class_or_nullE12symbolHandle6HandleS1_P6Thread'
I219
NNtp619
sS'0x5a1dd6'
p620
(S'_ZN12LinkResolver19resolve_static_callER8CallInfoR11KlassHandle12symbolHandleS4_S2_bbP6Thread'
I262
NNtp621
sS'0x6168e1'
p622
(S'_ZN13methodOopDesc32resolved_checked_exceptions_implEPS_P6Thread'
I513
NNtp623
sS'0x775ab9'
p624
(S'_ZN13ClassVerifier13verify_methodE12methodHandleP6Thread'
I553
NNtp625
sS'0x472d9a'
p626
(S'_Z12init_globalsv'
I74
NNtp627
sS'0x4ecaf4'
p628
(S'JVM_Open'
I52
NNtp629
sS'0x64fa40'
p630
(S'_ZN2os6init_2Ev'
I688
NNtp631
sS'0x74972e'
p632
(S'_ZN7Threads9create_vmEP14JavaVMInitArgsPb'
I766
NNtp633
sS'0x6e16ea'
p634
(S'_ZNK13StackMapFrame16is_assignable_toEP16VerificationTypeS1_iP6Thread'
I346
NNtp635
sS'0x23df4b'
p636
(S'_ZN9Arguments18parse_vm_init_argsEPK14JavaVMInitArgs'
I235
NNtp637
sS'0x23dc1a'
p638
(S'_ZN9Arguments21finalize_vm_init_argsEP12SysClassPathb'
I42
NNtp639
sS'0x7494ef'
p640
(S'_ZN7Threads9create_vmEP14JavaVMInitArgsPb'
I191
NNtp641
sS'0x622ef6'
p642
(S'_ZN7Monitor4waitEblb'
I310
NNtp643
sS'0x5c759d'
p644
(S'_ZN17LowMemoryDetector10initializeEv'
I653
NNtp645
sS'0x37ae22'
p646
(S'_ZN7Compile8OptimizeEv'
I2882
NNtp647
sS'0x3fda20'
p648
(S'_ZN14PhaseIdealLoop10DominatorsEv'
I1072
NNtp649
sS'0x681bca'
p650
(S'_ZN10PerfMemory20create_memory_regionEm'
I618
NNtp651
sS'0x4a1cb5'
p652
(S'_ZN18InterpreterRuntime3ldcEP10JavaThreadb'
I789
NNtp653
sS'0x4e71ef'
p654
(S'JVM_DoPrivileged'
I591
NNtp655
sS'0x4aa3d6'
p656
(S'_ZN18InterpreterRuntime26frequency_counter_overflowEP10JavaThreadPh'
I22
NNtp657
sS'0x7465b8'
p658
(S'_ZN10JavaThread44check_safepoint_and_suspend_for_native_transEPS_'
I536
NNtp659
sS'0x6489b3'
p660
(S'_ZN2os5Linux21capture_initial_stackEm'
I211
NNtp661
sS'0x472ecc'
p662
(S'_Z12exit_globalsv'
I44
NNtp663
sS'0x647e0a'
p664
(S'_ZN2os5Linux22initialize_system_infoEv'
I58
NNtp665
sS'0x47a794'
p666
(S'_ZN13instanceKlass15link_class_implE19instanceKlassHandlebP6Thread'
I484
NNtp667
sS'0x4f4371'
p668
(S'JVM_NewInstanceFromConstructor'
I113
NNtp669
sS'0x622f40'
p670
(S'_ZN7Monitor4waitEblb'
I384
NNtp671
sS'0x681aec'
p672
(S'_ZN10PerfMemory20create_memory_regionEm'
I396
NNtp673
sS'0x5a3aca'
p674
(S'_ZN12LinkResolver20resolve_invokestaticER8CallInfo18constantPoolHandleiP6Thread'
I138
NNtp675
sS'0x6e2377'
p676
(S'_ZNK13StackMapTable14match_stackmapEP13StackMapFrameibbP6Thread'
I87
NNtp677
sS'0x645ab5'
p678
(S'_ZN2os19native_java_libraryEv'
I533
NNtp679
sS'0x776b6c'
p680
(S'_ZN13ClassVerifier13verify_methodE12methodHandleP6Thread'
I4828
NNtp681
sS'0x27975b'
p682
(S'_ZN13BiasedLocking17revoke_and_rebiasE6HandlebP6Thread'
I443
NNtp683
sS'0x622b6b'
p684
(S'_ZN7Monitor28lock_without_safepoint_checkEP6Thread'
I27
NNtp685
sS'0x71b413'
p686
(S'_ZN16SystemDictionary15resolve_or_failE12symbolHandle6HandleS1_bP6Thread'
I51
NNtp687
sS'0x71ae38'
p688
(S'_ZN16SystemDictionary19load_instance_classE12symbolHandle6HandleP6Thread'
I1032
NNtp689
sS'0x6bc87c'
p690
(S'_ZN20SafepointSynchronize5blockEP10JavaThread'
I236
NNtp691
sS'0x7877f8'
p692
(S'_ZN8VMThread3runEv'
I328
NNtp693
sS'0x7495ab'
p694
(S'_ZN7Threads9create_vmEP14JavaVMInitArgsPb'
I379
NNtp695
sS'0x354b63'
p696
(S'_ZN11ClassLoader14load_classfileE12symbolHandleP6Thread'
I499
NNtp697
sS'0x47bd28'
p698
(S'_ZN13instanceKlass15initialize_implE19instanceKlassHandleP6Thread'
I56
NNtp699
sS'0x7724cd'
p700
(S'_ZN13ClassVerifier30verify_exception_handler_tableEjPcRiS1_P6Thread'
I1693
NNtp701
sS'0x472e15'
p702
(S'_Z12init_globalsv'
I197
NNtp703
sS'0x7876cd'
p704
(S'_ZN8VMThread3runEv'
I29
NNtp705
sS'0x380545'
p706
(S'_ZN13CompileBroker25invoke_compiler_on_methodEP11CompileTask'
I1013
NNtp707
sS'0x74961a'
p708
(S'_ZN7Threads9create_vmEP14JavaVMInitArgsPb'
I490
NNtp709
sS'0x71b737'
p710
(S'_ZN16SystemDictionary28initialize_preloaded_classesEP6Thread'
I167
NNtp711
sS'0x353fe4'
p712
(S'_ZN11ClassLoader23create_class_path_entryEPc4statPP14ClassPathEntryb'
I228
NNtp713
sS'0x355625'
p714
(S'_ZN11ClassLoader10initializeEv'
I1413
NNtp715
sS'0x4acecd'
p716
(S'_ZN11JDK_Version10initializeEv'
I13
NNtp717
sS'0x7870e2'
p718
(S'_ZN8VMThread23wait_for_vm_thread_exitEv'
I114
NNtp719
sS'0x647b0b'
p720
(S'_ZL21check_pending_signalsb'
I171
NNtp721
sS'0x74b368'
p722
(S'_ZN10JavaThread17thread_main_innerEv'
I88
NNtp723
sS'0x6819ea'
p724
(S'_ZN10PerfMemory20create_memory_regionEm'
I138
NNtp725
sS'0x744d59'
p726
(S'_ZN13WatcherThread3runEv'
I25
NNtp727
sS'0x4e5a1e'
p728
(S'JVM_MonitorWait'
I286
NNtp729
sS'0x37dff1'
p730
(S'_ZN12CompileQueue3getEv'
I177
NNtp731
sS'0x4e55ef'
p732
(S'JVM_ActiveProcessorCount'
I47
NNtp733
sS'0x64f343'
p734
(S'_ZN2os5Linux23install_signal_handlersEv'
I147
NNtp735
sS'0x714c2b'
p736
(S'_ZN18ObjectSynchronizer4waitE6HandlelP6Thread'
I91
NNtp737
sS'0x775779'
p738
(S'_ZN13ClassVerifier19verify_return_valueE16VerificationTypeS0_tP6Thread'
I201
NNtp739
sS'0x47bce5'
p740
(S'_ZN13instanceKlass22call_class_initializerEP6Thread'
I37
NNtp741
sS'0x64f91b'
p742
(S'_ZN2os6init_2Ev'
I395
NNtp743
sS'0x749492'
p744
(S'_ZN7Threads9create_vmEP14JavaVMInitArgsPb'
I98
NNtp745
sS'0x71f5f7'
p746
(S'_ZN12PeriodicTask14real_time_tickEm'
I103
NNtp747
sS'0x4e61e9'
p748
(S'JVM_DefineClassWithSource'
I169
NNtp749
sS'0x4a5283'
p750
(S'_ZN18InterpreterRuntime15resolve_get_putEP10JavaThreadN9Bytecodes4CodeE'
I563
NNtp751
sS'0x6bc534'
p752
(S'_ZN20SafepointSynchronize3endEv'
I212
NNtp753
sS'0x650ded'
p754
(S'_ZN2os18current_stack_sizeEv'
I45
NNtp755
sS'0x6a6268'
p756
(S'_ZN10Reflection10new_methodE12methodHandlebbP6Thread'
I344
NNtp757
sS'0x4f29a1'
p758
(S'_Z28find_class_from_class_loaderP7JNIEnv_12symbolHandleh6HandleS2_hP6Thread'
I65
NNtp759
sS'0x64debb'
p760
(S'_ZN2os13PlatformEvent4parkEv'
I155
NNtp761
sS'0x4f311e'
p762
(S'JVM_FindClassFromClassLoader'
I286
NNtp763
sS'0x47ac23'
p764
(S'_ZN13instanceKlass10link_classEP6Thread'
I51
NNtp765
sS'0x305691'
p766
(S'_ZN10C2Compiler14compile_methodEP5ciEnvP8ciMethodi'
I465
NNtp767
sS'0x64578c'
p768
(S'_ZN2os11signal_initEv'
I732
NNtp769
sS'0x645735'
p770
(S'_ZN2os11signal_initEv'
I645
NNtp771
sS'0x680a2b'
p772
(S'_ZN10PerfMemory7destroyEv'
I27
NNtp773
sS'0x787a5d'
p774
(S'_ZN8VMThread7executeEP12VM_Operation'
I461
NNtp775
sS'0x373f28'
p776
(S'_ZN16SimpleCompPolicy23method_invocation_eventE12methodHandleP6Thread'
I152
NNtp777
sS'0x7732d5'
p778
(S'_ZN13ClassVerifier25verify_field_instructionsEP17RawBytecodeStreamP13StackMapFrame18constantPoolHandleP6Thread'
I1333
NNtp779
sS'0x74c5f4'
p780
(S'_ZN6Thread10muxAcquireEPVlPKc'
I420
NNtp781
sS'0x744e2f'
p782
(S'_ZN13WatcherThread3runEv'
I239
NNtp783
sS'0x715934'
p784
(S'_ZN16SystemDictionary26compute_java_system_loaderEP6Thread'
I196
NNtp785
sS'0x64c16e'
p786
(S'_ZN2os22active_processor_countEv'
I14
NNtp787
sS'0x746c21'
p788
(S'_ZN10JavaThread40check_special_condition_for_native_transEPS_'
I17
NNtp789
sS'0x6a5f94'
p790
(S'_ZN10Reflection8new_typeE12symbolHandle11KlassHandleP6Thread'
I228
NNtp791
sS'0x622958'
p792
(S'_ZN7Monitor5IWaitEP6Threadl'
I552
NNtp793
sS'0x652a0f'
p794
(S'_Z12ostream_initv'
I63
NNtp795
sS'0x350528'
p796
(S'_ZN15ClassFileParser14parseClassFileE12symbolHandle6HandleS1_11KlassHandleP13GrowableArrayIS1_ERS0_bP6Thread'
I4488
NNtp797
sS'0x64ca38'
p798
(S'_ZN2os4openEPKcii'
I168
NNtp799
sS'0x4ae3f3'
p800
(S'_ZN9JavaCalls12call_virtualEP9JavaValue11KlassHandle12symbolHandleS3_P17JavaCallArgumentsP6Thread'
I419
NNtp801
sS'0x776483'
p802
(S'_ZN13ClassVerifier13verify_methodE12methodHandleP6Thread'
I3059
NNtp803
sS'0x4b8e93'
p804
(S'_ZL17jni_invoke_staticP7JNIEnv_P9JavaValueP8_jobject11JNICallTypeP10_jmethodIDP18JNI_ArgumentPusherP6Thread.isra.128.constprop.144'
I451
NNtp805
sS'0x770077'
p806
(S'_ZNK16VerificationType28is_reference_assignable_fromERKS_19instanceKlassHandleP6Thread'
I615
NNtp807
sS'0x40c095'
p808
(S'_ZN10Exceptions13new_exceptionEP6Thread12symbolHandlePKc6HandleS5_S5_NS_22ExceptionMsgToUtf8ModeE'
I405
NNtp809
sS'0x47bcaa'
p810
(S'_ZN13instanceKlass27call_class_initializer_implE19instanceKlassHandleP6Thread'
I138
NNtp811
sS'0x31bab2'
p812
(S'_ZN12PhaseChaitin17Register_AllocateEv'
I978
NNtp813
sS'0x379abf'
p814
(S'_ZN7Compile8Code_GenEv.part.263'
I671
NNtp815
sS'0x4aeabf'
p816
(S'_ZN9JavaCalls11call_helperEP9JavaValueP12methodHandleP17JavaCallArgumentsP6Thread'
I671
NNtp817
sS'0x77946f'
p818
(S'_ZN13ClassVerifier12verify_classEP6Thread'
I319
NNtp819
sS'0x31b94f'
p820
(S'_ZN12PhaseChaitin17Register_AllocateEv'
I623
NNtp821
sS'0x64f899'
p822
(S'_ZN2os6init_2Ev'
I265
NNtp823
sS'0x40bb69'
p824
(S'_ZN10Exceptions13new_exceptionEP6Thread12symbolHandleS2_P17JavaCallArguments6HandleS5_S5_'
I73
NNtp825
sS'0x3740aa'
p826
(S'_ZN19NonTieredCompPolicy5eventE12methodHandleS0_ii9CompLevelP6Thread'
I298
NNtp827
sS'0x234d14'
p828
(S'_ZN5Chunk9next_chopEv'
I20
NNtp829
sS'0x71b6bb'
p830
(S'_ZN16SystemDictionary28initialize_preloaded_classesEP6Thread'
I43
NNtp831
sS'0x4b8b87'
p832
(S'jni_DestroyJavaVM'
I87
NNtp833
sS'0x749d5f'
p834
(S'_ZN7Threads9create_vmEP14JavaVMInitArgsPb'
I2351
NNtp835
sS'0x354621'
p836
(S'_ZN18LazyClassPathEntry13resolve_entryEv'
I81
NNtp837
sS'0x5c82da'
p838
(S'_ZN17LowMemoryDetector32low_memory_detector_thread_entryEP10JavaThreadP6Thread'
I170
NNtp839
sS'0x71b609'
p840
(S'_ZN16SystemDictionary27initialize_wk_klasses_untilENS_4WKIDERS0_P6Thread'
I89
NNtp841
sS'0x472d85'
p842
(S'_Z12init_globalsv'
I53
NNtp843
sS'0x4c7523'
p844
(S'jni_CallObjectMethod'
I371
NNtp845
sS'0x4ecbf4'
p846
(S'JVM_Write'
I52
NNtp847
sS'0x4bb46f'
p848
(S'jni_SetByteArrayRegion'
I95
NNtp849
sS'0x749cab'
p850
(S'_ZN7Threads9create_vmEP14JavaVMInitArgsPb'
I2171
NNtp851
sS'0x71ad84'
p852
(S'_ZN16SystemDictionary19load_instance_classE12symbolHandle6HandleP6Thread'
I852
NNtp853
sS'0x64f099'
p854
(S'_ZN2os4initEv'
I153
NNtp855
sS'0x64e08e'
p856
(S'_ZN2os13PlatformEvent4parkEl'
I286
NNtp857
sS'0x37bd43'
p858
(S'_ZN7CompileC2EP5ciEnvP10C2CompilerP8ciMethodibb'
I2787
NNtp859
sS'0x354c53'
p860
(S'_ZN11ClassLoader16setup_meta_indexEv'
I67
NNtp861
sS'0x64f89e'
p862
(S'_ZN2os6init_2Ev'
I270
NNtp863
sS'0x354ae3'
p864
(S'_ZN11ClassLoader14load_classfileE12symbolHandleP6Thread'
I371
NNtp865
sS'0x4be915'
p866
(S'jni_ToReflectedMethod'
I309
NNtp867
sS'0x6457a6'
p868
(S'_ZN2os11signal_initEv'
I758
NNtp869
sS'0x74b3a4'
p870
(S'_ZN10JavaThread3runEv'
I36
NNtp871
sS'0x5a387e'
p872
(S'_ZN12LinkResolver12resolve_poolER11KlassHandleR12symbolHandleS3_S1_18constantPoolHandleiP6Thread'
I62
NNtp873
sS'0x715002'
p874
(S'_ZN18ObjectSynchronizer10fast_enterE6HandleP9BasicLockbP6Thread'
I66
NNtp875
sS'0x650cf4'
p876
(S'_ZL20current_stack_regionPPhPm.part.71'
I52
NNtp877
sS'0x62619e'
p878
(S'_ZN12NativeLookup6lookupE12methodHandleRbP6Thread'
I94
NNtp879
sS'0x682140'
p880
(S'_ZN10PerfMemory20delete_memory_regionEv'
I192
NNtp881
sS'0x6bc86c'
p882
(S'_ZN20SafepointSynchronize5blockEP10JavaThread'
I220
NNtp883
sS'0x776732'
p884
(S'_ZN13ClassVerifier13verify_methodE12methodHandleP6Thread'
I3746
NNtp885
sS'0x354082'
p886
(S'_ZN11ClassLoader23create_class_path_entryEPc4statPP14ClassPathEntryb'
I386
NNtp887
sS'0x78745e'
p888
(S'_ZN8VMThread4loopEv'
I430
NNtp889
sS'0x7189b7'
p890
(S'_ZN16SystemDictionary19resolve_from_streamE12symbolHandle6HandleS1_P15ClassFileStreambP6Thread'
I231
NNtp891
sS'0x64a23e'
p892
(S'_ZN2os6signalEiPv'
I78
NNtp893
sS'0x3055a0'
p894
(S'_ZN10C2Compiler14compile_methodEP5ciEnvP8ciMethodi'
I224
NNtp895
sS'0x380d3b'
p896
(S'_ZN13CompileBroker20compiler_thread_loopEv'
I1115
NNtp897
sS'0x771d06'
p898
(S'_ZN13ClassVerifier21verify_stackmap_tableEttP13StackMapFrameP13StackMapTablebP6Thread'
I214
NNtp899
sS'0x4f5f25'
p900
(S'JVM_GetStackAccessControlContext'
I661
NNtp901
sS'0x681b0c'
p902
(S'_ZN10PerfMemory20create_memory_regionEm'
I428
NNtp903
sS'0x4c2a03'
p904
(S'jni_CallStaticVoidMethod'
I355
NNtp905
sS'0x622a5d'
p906
(S'_ZN7Monitor4lockEP6Thread'
I221
NNtp907
sS'0x4bf3cd'
p908
(S'jni_RegisterNatives'
I1901
NNtp909
sS'0x350487'
p910
(S'_ZN15ClassFileParser14parseClassFileE12symbolHandle6HandleS1_11KlassHandleP13GrowableArrayIS1_ERS0_bP6Thread'
I4327
NNtp911
sS'0x4a6906'
p912
(S'_ZN18InterpreterRuntime14resolve_invokeEP10JavaThreadN9Bytecodes4CodeE'
I646
NNtp913
sS'0x74583e'
p914
(S'_ZN13WatcherThreadC2Ev'
I46
NNtp915
sS'0x78752b'
p916
(S'_ZN8VMThread4loopEv'
I635
NNtp917
sS'0x74b2e0'
p918
(S'_ZN7Threads10destroy_vmEv'
I288
NNtp919
sS'0x749d18'
p920
(S'_ZN7Threads9create_vmEP14JavaVMInitArgsPb'
I2280
NNtp921
sS'0x64b1c9'
p922
(S'_ZN2os10NakedYieldEv'
I9
NNtp923
sS'0x34dea3'
p924
(S'_ZN15ClassFileParser16parse_interfacesE18constantPoolHandlei6HandleS1_12symbolHandleP6Thread'
I435
NNtp925
sS'0x64f87d'
p926
(S'_ZN2os6init_2Ev'
I237
NNtp927
sS'0x234e94'
p928
(S'_ZN5Arena17destruct_contentsEv'
I20
NNtp929
sS'0x649452'
p930
(S'_ZN2os8jvm_pathEPci.part.74'
I82
NNtp931
sS'0x6e2414'
p932
(S'_ZNK13StackMapTable17check_jump_targetEP13StackMapFrameiP6Thread'
I52
NNtp933
sS'0x6485f1'
p934
(S'_ZN2os13create_threadEP6ThreadNS_10ThreadTypeEm'
I433
NNtp935
sS'0x7767de'
p936
(S'_ZN13ClassVerifier13verify_methodE12methodHandleP6Thread'
I3918
NNtp937
sS'0x744e87'
p938
(S'_ZN13WatcherThread3runEv'
I327
NNtp939
sS'0x234c44'
p940
(S'_ZN5ChunkdlEPv'
I52
NNtp941
sS'0x787b64'
p942
(S'_ZN8VMThread7executeEP12VM_Operation'
I724
NNtp943
sS'0x775e82'
p944
(S'_ZN13ClassVerifier13verify_methodE12methodHandleP6Thread'
I1522
NNtp945
sS'0x681e3a'
p946
(S'_ZN10PerfMemory20create_memory_regionEm'
I1242
NNtp947
sS'0x6260a6'
p948
(S'_ZN12NativeLookup11lookup_baseE12methodHandleRbP6Thread'
I70
NNtp949
sS'0x4edba5'
p950
(S'JVM_Sleep'
I741
NNtp951
sS'0x776c05'
p952
(S'_ZN13ClassVerifier13verify_methodE12methodHandleP6Thread'
I4981
NNtp953
sS'0x749d68'
p954
(S'_ZN7Threads9create_vmEP14JavaVMInitArgsPb'
I2360
NNtp955
sS'0x40becb'
p956
(S'_ZN10Exceptions11_throw_argsEP6ThreadPKci12symbolHandleS4_P17JavaCallArguments'
I91
NNtp957
sS'0x4b8c1a'
p958
(S'jni_DestroyJavaVM'
I234
NNtp959
sS'0x37a886'
p960
(S'_ZN7Compile8OptimizeEv'
I1446
NNtp961
sS'0x77145f'
p962
(S'_ZN13ClassVerifier32verify_exception_handler_targetsEtbP13StackMapFrameP13StackMapTableP6Thread'
I543
NNtp963
sS'0x779700'
p964
(S'_ZN8Verifier6verifyE19instanceKlassHandleNS_4ModeEbP6Thread'
I272
NNtp965
sS'0x64891c'
p966
(S'_ZN2os5Linux21capture_initial_stackEm'
I60
NNtp967
sS'0x74957b'
p968
(S'_ZN7Threads9create_vmEP14JavaVMInitArgsPb'
I331
NNtp969
sS'0x64e330'
p970
(S'_ZN2os5sleepEP6Threadlb'
I368
NNtp971
sS'0x647fba'
p972
(S'_ZN2os5Linux16signal_sets_initEv'
I202
NNtp973
sS'0x37e4fe'
p974
(S'_ZN13CompileBroker20make_compiler_threadEPKcP12CompileQueueP16CompilerCountersP6Thread'
I638
NNtp975
sS'0x47c2f9'
p976
(S'_ZN13instanceKlass10initializeEP6Thread'
I73
NNtp977
sS'0x37e44d'
p978
(S'_ZN13CompileBroker20make_compiler_threadEPKcP12CompileQueueP16CompilerCountersP6Thread'
I461
NNtp979
sS'0x6e17db'
p980
(S'_ZNK13StackMapFrame16is_assignable_toEPKS_P6Thread'
I107
NNtp981
sS'0x648de5'
p982
(S'_ZN2os5Linux10clock_initEv'
I37
NNtp983
sS'0x64f370'
p984
(S'_ZN2os5Linux23install_signal_handlersEv'
I192
NNtp985
sS'0x23e2a5'
p986
(S'_ZN9Arguments5parseEPK14JavaVMInitArgs'
I693
NNtp987
sS'0x71b794'
p988
(S'_ZN16SystemDictionary28initialize_preloaded_classesEP6Thread'
I260
NNtp989
sS'0x64f25c'
p990
(S'_ZN2os5Linux18set_signal_handlerEib'
I284
NNtp991
sS'0x75ee10'
p992
(S'_ZN8Universe7genesisEP6Thread'
I272
NNtp993
sS'0x4e4fa0'
p994
(S'_ZL23jvm_define_class_commonP7JNIEnv_PKcP8_jobjectPKaiS4_S2_hP6Thread'
I544
NNtp995
sS'0x5d7de4'
p996
(S'_ZN10Management10initializeEP6Thread'
I36
NNtp997
sS'0x4bfa9a'
p998
(S'jni_NewByteArray'
I74
NNtp999
sS'0x7870ab'
p1000
(S'_ZN8VMThread23wait_for_vm_thread_exitEv'
I59
NNtp1001
sS'0x64f37f'
p1002
(S'_ZN2os5Linux23install_signal_handlersEv'
I207
NNtp1003
sS'0x236f91'
p1004
(S'_ZN12SysClassPath16add_jars_to_pathEPcPKc'
I33
NNtp1005
sS'0x6503e3'
p1006
(S'JVM_handle_linux_signal'
I1251
NNtp1007
sS'0x6496d7'
p1008
(S'_ZN2os29init_system_properties_valuesEv'
I55
NNtp1009
sS'0x76978b'
p1010
(S'JVM_RegisterUnsafeMethods'
I283
NNtp1011
sS'0x37e4f1'
p1012
(S'_ZN13CompileBroker20make_compiler_threadEPKcP12CompileQueueP16CompilerCountersP6Thread'
I625
NNtp1013
sS'0x6aa1e6'
p1014
(S'_ZN10Reflection18invoke_constructorEP7oopDesc14objArrayHandleP6Thread'
I678
NNtp1015
sS'0x74a116'
p1016
(S'_ZN7Threads9create_vmEP14JavaVMInitArgsPb'
I3302
NNtp1017
sS'0x75ee1f'
p1018
(S'_ZN8Universe7genesisEP6Thread'
I287
NNtp1019
sS'0x4a280e'
p1020
(S'_ZN18InterpreterRuntime9anewarrayEP10JavaThreadP19constantPoolOopDescii'
I110
NNtp1021
sS'0x5a3a90'
p1022
(S'_ZN12LinkResolver20resolve_invokestaticER8CallInfo18constantPoolHandleiP6Thread'
I80
NNtp1023
sS'0x749e16'
p1024
(S'_ZN7Threads9create_vmEP14JavaVMInitArgsPb'
I2534
NNtp1025
sS'0x64c9d9'
p1026
(S'_ZN2os4openEPKcii'
I73
NNtp1027
sS'0x37ef47'
p1028
(S'_ZN13CompileBroker19compile_method_baseE12methodHandleiiS0_iPKcP6Thread'
I439
NNtp1029
sS'0x75d44a'
p1030
(S'_ZN8Universe15initialize_heapEv'
I218
NNtp1031
sS'0x749b08'
p1032
(S'_ZN7Threads9create_vmEP14JavaVMInitArgsPb'
I1752
NNtp1033
sS'0x6bc950'
p1034
(S'_ZN20SafepointSynchronize5blockEP10JavaThread'
I448
NNtp1035
sS'0x40c44a'
p1036
(S'_ZN10Exceptions10_throw_msgEP6ThreadPKciP13symbolOopDescS3_'
I106
NNtp1037
sS'0x6489c4'
p1038
(S'_ZN2os5Linux21capture_initial_stackEm'
I228
NNtp1039
sS'0x381470'
p1040
(S'_ZN13CompileBroker16compilation_initEv'
I176
NNtp1041
sS'0x749a0c'
p1042
(S'_ZN7Threads9create_vmEP14JavaVMInitArgsPb'
I1500
NNtp1043
sS'0x3b3498'
p1044
(S'_ZN19constantPoolOopDesc13klass_at_implE18constantPoolHandleiP6Thread'
I616
NNtp1045
sS'0x749bf0'
p1046
(S'_ZN7Threads9create_vmEP14JavaVMInitArgsPb'
I1984
NNtp1047
sS'0x64ac92'
p1048
(S'_ZL10java_startP6Thread'
I274
NNtp1049
sS'0x66166b'
p1050
(S'_ZN20ParallelScavengeHeap10initializeEv'
I1723
NNtp1051
sS'0x749480'
p1052
(S'_ZN7Threads9create_vmEP14JavaVMInitArgsPb'
I80
NNtp1053
sS'0x4adef5'
p1054
(S'_ZN9JavaCalls4callEP9JavaValue12methodHandleP17JavaCallArgumentsP6Thread'
I37
NNtp1055
sS'0x47c145'
p1056
(S'_ZN13instanceKlass15initialize_implE19instanceKlassHandleP6Thread'
I1109
NNtp1057
sS'0x749485'
p1058
(S'_ZN7Threads9create_vmEP14JavaVMInitArgsPb'
I85
NNtp1059
sS'0x647ed9'
p1060
(S'_ZN2os5Linux14is_sig_ignoredEi'
I25
NNtp1061
ssS'/usr/local/bin/strace'
p1062
(dp1063
S'0x402a65'
p1064
(S'_start'
I41
NNtp1065
sS'0x40298a'
p1066
(S'main'
I10
S'strace.c'
I2397
tp1067
sS'0x412e90'
p1068
(S'startup_child'
I944
S'strace.c'
I1203
tp1069
sS'0x40296c'
p1070
(S'exec_or_die'
I268
S'strace.c'
I1118
tp1071
sS'0x41385f'
p1072
(S'init'
I2458
S'strace.c'
I1882
tp1073
ssS'/lib/x86_64-linux-gnu/ld-2.15.so'
p1074
(dp1075
S'0x88db'
p1076
(S'_dl_map_object'
I1019
S'dl-load.c'
I2428
tp1077
sS'0x18327'
p1078
(S'access'
I0
S'../sysdeps/unix/syscall-template.S'
I82
tp1079
sS'0x7dc8'
p1080
(S'expand_dynamic_string_token'
I334
S'dl-load.c'
I438
tp1081
sS'0x350d'
p1082
(S'dl_main'
I3629
S'rtld.c'
I1828
tp1083
sS'0xf176'
p1084
(S'_dl_catch_error'
I102
S'dl-error.c'
I179
tp1085
sS'0x5365'
p1086
(S'_dl_start'
I848
S'rtld.c'
I338
tp1087
sS'0x944d'
p1088
(S'_dl_load_cache_lookup'
I477
S'dl-cache.c'
I205
tp1089
sS'0x16e7a'
p1090
(S'__brk'
I3
S'../sysdeps/unix/sysv/linux/x86_64/brk.c'
I32
tp1091
sS'0x1331a'
p1092
(S'_dl_open'
I181
S'dl-open.c'
I639
tp1093
sS'0x3f79'
p1094
(S'dl_main'
I6286
S'rtld.c'
I729
tp1095
sS'0x8a7a'
p1096
(S'_dl_map_object'
I1434
S'dl-load.c'
I2387
tp1097
sS'0x182c7'
p1098
(S'read'
I0
S'../sysdeps/unix/syscall-template.S'
I82
tp1099
sS'0x892d'
p1100
(S'_dl_map_object'
I1101
S'dl-load.c'
I2471
tp1101
sS'0x8b96'
p1102
(S'_dl_map_object'
I1718
S'dl-load.c'
I2406
tp1103
sS'0x101bc'
p1104
(S'_dl_sysdep_read_whole_file'
I44
S'dl-misc.c'
I52
tp1105
sS'0x92ce'
p1106
(S'_dl_load_cache_lookup'
I94
S'dl-cache.c'
I265
tp1107
sS'0xcfe2'
p1108
(S'openaux'
I33
S'dl-deps.c'
I65
tp1109
sS'0x8363'
p1110
(S'_dl_init_paths'
I963
S'dl-load.c'
I816
tp1111
sS'0x3354'
p1112
(S'dl_main'
I3188
S'rtld.c'
I1436
tp1113
sS'0x15f7c'
p1114
(S'_dl_important_hwcaps'
I368
S'../elf/dl-sysdep.c'
I420
tp1115
sS'0x12761'
p1116
(S'_dl_get_origin'
I33
S'../sysdeps/unix/sysv/linux/dl-origin.c'
I45
tp1117
sS'0x6363'
p1118
(S'open_path'
I390
S'dl-load.c'
I2175
tp1119
sS'0x18267'
p1120
(S'open64'
I0
S'../sysdeps/unix/syscall-template.S'
I82
tp1121
sS'0x5d59'
p1122
(S'open_verify'
I217
S'dl-load.c'
I1933
tp1123
sS'0x5d2f'
p1124
(S'open_verify'
I175
S'dl-load.c'
I1915
tp1125
sS'0x862d'
p1126
(S'_dl_map_object'
I333
S'dl-load.c'
I2509
tp1127
sS'0x15ac9'
p1128
(S'_dl_sysdep_start'
I345
S'../sysdeps/x86_64/dl-machine.h'
I224
tp1129
sS'0x138a9'
p1130
(S'dl_open_worker'
I425
S'dl-open.c'
I266
tp1131
sS'0x1005'
p1132
(S'init_tls'
I239
S'rtld.c'
I787
tp1133
sS'0x7e4f'
p1134
(S'decompose_rpath'
I47
S'dl-load.c'
I637
tp1135
sS'0x16b8'
p1136
(S'_dl_start_user'
I0
NNtp1137
sS'0x15b24'
p1138
(S'_dl_sysdep_start'
I436
S'../elf/dl-sysdep.c'
I246
tp1139
sS'0xd6be'
p1140
(S'_dl_map_object_deps'
I558
S'dl-deps.c'
I260
tp1141
sS'0x34cb'
p1142
(S'dl_main'
I3546
S'rtld.c'
I1732
tp1143
sS'0x879a'
p1144
(S'_dl_map_object'
I698
S'dl-load.c'
I2413
tp1145
sS'0x1384b'
p1146
(S'dl_open_worker'
I294
S'dl-open.c'
I225
tp1147
sS'0x7fd6'
p1148
(S'_dl_init_paths'
I54
S'dl-load.c'
I732
tp1149
ssS'/usr/lib/jvm/java-6-openjdk-amd64/jre/lib/amd64/jli/libjli.so'
p1150
(dp1151
S'0x2d59'
p1152
(S'JLI_MemAlloc'
I9
NNtp1153
ssS'/lib/x86_64-linux-gnu/libdl-2.15.so'
p1154
(dp1155
S'0x152f'
p1156
(S'_dlerror_run'
I93
S'dlerror.c'
I164
tp1157
sS'0xf26'
p1158
(S'dlopen_doit'
I102
S'dlopen.c'
I71
tp1159
sS'0xfc1'
p1160
(S'__dlopen'
I44
S'dlopen.c'
I88
tp1161
sS'0x14ea'
p1162
(S'_dlerror_run'
I58
S'dlerror.c'
I133
tp1163
ssS'/usr/lib/jvm/java-6-openjdk-amd64/jre/bin/java'
p1164
(dp1165
S'0x4035d5'
p1166
(S'JavaMain'
I1189
NNtp1167
sS'0x4031ae'
p1168
(S'JavaMain'
I126
NNtp1169
sS'0x403b5c'
p1170
(S'JavaMain'
I2604
NNtp1171
sS'0x403c50'
p1172
(S'JavaMain'
I2848
NNtp1173
sS'0x403f23'
p1174
(S'JavaMain'
I3571
NNtp1175
ssS'/lib/x86_64-linux-gnu/librt-2.15.so'
p1176
(dp1177
S'0x40ee'
p1178
(S'clock_getres'
I20
S'../sysdeps/posix/clock_getres.c'
I87
tp1179
ssS'/usr/lib/jvm/java-6-openjdk-amd64/jre/lib/amd64/libzip.so'
p1180
(dp1181
S'0x5121'
p1182
(S'ZIP_Read'
I113
NNtp1183
sS'0x363c'
p1184
(S'Java_java_util_zip_ZipFile_read'
I172
NNtp1185
sS'0x3377'
p1186
(S'Java_java_util_zip_ZipFile_open'
I199
NNtp1187
sS'0x3362'
p1188
(S'Java_java_util_zip_ZipFile_open'
I178
NNtp1189
sS'0x5142'
p1190
(S'ZIP_Read'
I146
NNtp1191
sS'0x360a'
p1192
(S'Java_java_util_zip_ZipFile_read'
I122
NNtp1193
sS'0x54a5'
p1194
(S'ZIP_ReadEntry'
I149
NNtp1195
sS'0x3351'
p1196
(S'Java_java_util_zip_ZipFile_open'
I161
NNtp1197
ssS'/usr/lib/jvm/java-6-openjdk-amd64/jre/lib/amd64/libjava.so'
p1198
(dp1199
S'0x17090'
p1200
(S'JNU_GetStringPlatformChars'
I416
NNtp1201
sS'0x175f9'
p1202
(S'JNU_NewStringPlatform'
I137
NNtp1203
sS'0x1c0ed'
p1204
(S'Java_java_io_UnixFileSystem_canonicalize0'
I125
NNtp1205
sS'0x11b86'
p1206
(S'Java_java_io_FileDescriptor_sync'
I38
NNtp1207
sS'0x17754'
p1208
(S'JNU_NewStringPlatform'
I484
NNtp1209
sS'0x10a61'
p1210
(S'Java_java_lang_Class_forName0'
I225
NNtp1211
sS'0x11401'
p1212
(S'Java_java_lang_ClassLoader_findBootstrapClass'
I209
NNtp1213
sS'0x1388d'
p1214
(S'Java_java_lang_System_initProperties'
I61
NNtp1215
sS'0x16bce'
p1216
(S'JNU_NewObjectByName'
I254
NNtp1217
sS'0x10eca'
p1218
(S'Java_java_lang_ClassLoader_defineClass1'
I666
NNtp1219
sS'0x1c76b'
p1220
(S'Java_java_io_UnixFileSystem_delete0'
I91
NNtp1221
sS'0x1cb8a'
p1222
(S'Java_java_io_UnixFileSystem_rename0'
I170
NNtp1223
sS'0x1c696'
p1224
(S'Java_java_io_UnixFileSystem_createFileExclusively'
I102
NNtp1225
sS'0x1caa0'
p1226
(S'Java_java_io_UnixFileSystem_createDirectory'
I96
NNtp1227
sS'0x17654'
p1228
(S'JNU_NewStringPlatform'
I228
NNtp1229
sS'0x1c0da'
p1230
(S'Java_java_io_UnixFileSystem_canonicalize0'
I106
NNtp1231
sS'0x165b8'
p1232
(S'JNU_CallStaticMethodByName'
I168
NNtp1233
sS'0x1c897'
p1234
(S'Java_java_io_UnixFileSystem_list'
I231
NNtp1235
sS'0x1c19c'
p1236
(S'Java_java_io_UnixFileSystem_getBooleanAttributes0'
I76
NNtp1237
sS'0x1c810'
p1238
(S'Java_java_io_UnixFileSystem_list'
I96
NNtp1239
sS'0x166ad'
p1240
(S'JNU_CallStaticMethodByName'
I413
NNtp1241
sS'0x1d468'
p1242
(S'Java_java_util_TimeZone_getSystemTimeZoneID'
I88
NNtp1243
sS'0x14ba9'
p1244
(S'Java_java_lang_System_initProperties'
I4953
NNtp1245
sS'0x16b61'
p1246
(S'JNU_NewObjectByName'
I145
NNtp1247
ss.