(dp0
S'content'
p1
(imystruct
Struct
p2
(dp3
S'omitmicro'
p4
(lp5
(I1
I2
tp6
a(I1
I3
tp7
a(I1
I4
tp8
a(I1
I5
tp9
a(I1
I6
tp10
a(I1
I7
tp11
a(I1
I8
tp12
a(I2
I3
tp13
a(I2
I4
tp14
a(I2
I5
tp15
a(I2
I6
tp16
a(I2
I7
tp17
a(I2
I8
tp18
a(I3
I4
tp19
a(I3
I5
tp20
a(I3
I6
tp21
a(I3
I7
tp22
a(I3
I8
tp23
a(I4
I5
tp24
a(I4
I6
tp25
a(I4
I7
tp26
a(I4
I8
tp27
a(I5
I6
tp28
a(I5
I7
tp29
a(I5
I8
tp30
a(I6
I7
tp31
a(I6
I8
tp32
a(I7
I8
tp33
a(I13
I14
tp34
a(I16
I17
tp35
asS'omit_one'
p36
(dp37
S'aligned'
p38
(lp39
sS'three'
p40
(lp41
sS'one'
p42
(lp43
ssS'prefix'
p44
(dp45
g38
(lp46
(I0
I0
tp47
a(I1
I0
tp48
a(I2
I2
tp49
a(I2
I5
tp50
a(I3
I2
tp51
a(I3
I5
tp52
a(I4
I2
tp53
a(I4
I5
tp54
a(I5
I2
tp55
a(I5
I5
tp56
a(I6
I2
tp57
a(I6
I5
tp58
a(I7
I2
tp59
a(I7
I5
tp60
a(I8
I2
tp61
a(I8
I5
tp62
a(I9
I0
tp63
a(I10
I0
tp64
a(I11
I0
tp65
a(I12
I0
tp66
a(I13
I0
tp67
a(I14
I0
tp68
a(I15
I0
tp69
a(I16
I1
tp70
a(I17
I0
tp71
asg40
(lp72
(I0
I0
tp73
a(I1
I0
tp74
a(I2
I17
tp75
a(I3
I11
tp76
a(I4
I17
tp77
a(I5
I11
tp78
a(I6
I11
tp79
a(I7
I17
tp80
a(I8
I11
tp81
a(I9
I0
tp82
a(I10
I0
tp83
a(I11
I2
tp84
a(I12
I0
tp85
a(I13
I2
tp86
a(I14
I2
tp87
a(I15
I0
tp88
a(I16
I3
tp89
a(I17
I0
tp90
asg42
(lp91
(I0
I0
tp92
a(I1
I0
tp93
a(I2
I5
tp94
a(I3
I5
tp95
a(I4
I5
tp96
a(I5
I5
tp97
a(I6
I5
tp98
a(I7
I5
tp99
a(I8
I5
tp100
a(I9
I0
tp101
a(I10
I0
tp102
a(I11
I0
tp103
a(I12
I0
tp104
a(I13
I0
tp105
a(I14
I0
tp106
a(I15
I0
tp107
a(I16
I1
tp108
a(I17
I0
tp109
assbsS'checksums'
p110
S'06000   347\n'
p111
s.