(dp0
S'content'
p1
(imystruct
Struct
p2
(dp3
S'omitmicro'
p4
(lp5
(I13
I14
tp6
a(I16
I17
tp7
asS'omit_one'
p8
(dp9
S'aligned'
p10
(lp11
sS'three'
p12
(lp13
sS'one'
p14
(lp15
ssS'prefix'
p16
(dp17
g10
(lp18
(I0
I0
tp19
a(I1
I0
tp20
a(I2
I2
tp21
a(I2
I5
tp22
a(I3
I2
tp23
a(I3
I5
tp24
a(I4
I2
tp25
a(I4
I5
tp26
a(I5
I2
tp27
a(I5
I5
tp28
a(I6
I2
tp29
a(I6
I5
tp30
a(I7
I2
tp31
a(I7
I5
tp32
a(I8
I2
tp33
a(I8
I5
tp34
a(I9
I0
tp35
a(I10
I0
tp36
a(I11
I0
tp37
a(I12
I0
tp38
a(I13
I0
tp39
a(I14
I0
tp40
a(I15
I0
tp41
a(I16
I1
tp42
a(I17
I0
tp43
asg12
(lp44
(I0
I0
tp45
a(I1
I0
tp46
a(I2
I17
tp47
a(I3
I11
tp48
a(I4
I17
tp49
a(I5
I11
tp50
a(I6
I11
tp51
a(I7
I17
tp52
a(I8
I11
tp53
a(I9
I0
tp54
a(I10
I0
tp55
a(I11
I2
tp56
a(I12
I0
tp57
a(I13
I2
tp58
a(I14
I2
tp59
a(I15
I0
tp60
a(I16
I3
tp61
a(I17
I0
tp62
asg14
(lp63
(I0
I0
tp64
a(I1
I0
tp65
a(I2
I5
tp66
a(I3
I5
tp67
a(I4
I5
tp68
a(I5
I5
tp69
a(I6
I5
tp70
a(I7
I5
tp71
a(I8
I5
tp72
a(I9
I0
tp73
a(I10
I0
tp74
a(I11
I0
tp75
a(I12
I0
tp76
a(I13
I0
tp77
a(I14
I0
tp78
a(I15
I0
tp79
a(I16
I1
tp80
a(I17
I0
tp81
assbsS'checksums'
p82
S'06000   347\n'
p83
s.