(dp0
S'content'
p1
(imystruct
Struct
p2
(dp3
S'omitmicro'
p4
(lp5
(I1
I2
tp6
a(I1
I3
tp7
a(I1
I4
tp8
a(I1
I5
tp9
a(I1
I6
tp10
a(I1
I7
tp11
a(I1
I8
tp12
a(I13
I14
tp13
a(I16
I17
tp14
asS'omit_one'
p15
(dp16
S'aligned'
p17
(lp18
sS'three'
p19
(lp20
sS'one'
p21
(lp22
ssS'prefix'
p23
(dp24
g17
(lp25
(I0
I0
tp26
a(I1
I0
tp27
a(I2
I2
tp28
a(I2
I5
tp29
a(I3
I2
tp30
a(I3
I5
tp31
a(I4
I2
tp32
a(I4
I5
tp33
a(I5
I2
tp34
a(I5
I5
tp35
a(I6
I2
tp36
a(I6
I5
tp37
a(I7
I2
tp38
a(I7
I5
tp39
a(I8
I2
tp40
a(I8
I5
tp41
a(I9
I0
tp42
a(I10
I0
tp43
a(I11
I0
tp44
a(I12
I0
tp45
a(I13
I0
tp46
a(I14
I0
tp47
a(I15
I0
tp48
a(I16
I1
tp49
a(I17
I0
tp50
asg19
(lp51
(I0
I0
tp52
a(I1
I0
tp53
a(I2
I17
tp54
a(I3
I11
tp55
a(I4
I17
tp56
a(I5
I11
tp57
a(I6
I11
tp58
a(I7
I17
tp59
a(I8
I11
tp60
a(I9
I0
tp61
a(I10
I0
tp62
a(I11
I2
tp63
a(I12
I0
tp64
a(I13
I2
tp65
a(I14
I2
tp66
a(I15
I0
tp67
a(I16
I3
tp68
a(I17
I0
tp69
asg21
(lp70
(I0
I0
tp71
a(I1
I0
tp72
a(I2
I5
tp73
a(I3
I5
tp74
a(I4
I5
tp75
a(I5
I5
tp76
a(I6
I5
tp77
a(I7
I5
tp78
a(I8
I5
tp79
a(I9
I0
tp80
a(I10
I0
tp81
a(I11
I0
tp82
a(I12
I0
tp83
a(I13
I0
tp84
a(I14
I0
tp85
a(I15
I0
tp86
a(I16
I1
tp87
a(I17
I0
tp88
assbsS'checksums'
p89
S'06000   347\n'
p90
s.