(dp0
S'content'
p1
(imystruct
Struct
p2
(dp3
S'omitmicro'
p4
(lp5
(I16
I17
tp6
asS'omit_one'
p7
(dp8
S'aligned'
p9
(lp10
sS'three'
p11
(lp12
sS'one'
p13
(lp14
ssS'prefix'
p15
(dp16
g9
(lp17
(I0
I0
tp18
a(I1
I0
tp19
a(I2
I2
tp20
a(I2
I5
tp21
a(I3
I2
tp22
a(I3
I5
tp23
a(I4
I2
tp24
a(I4
I5
tp25
a(I5
I2
tp26
a(I5
I5
tp27
a(I6
I2
tp28
a(I6
I5
tp29
a(I7
I2
tp30
a(I7
I5
tp31
a(I8
I2
tp32
a(I8
I5
tp33
a(I9
I0
tp34
a(I10
I0
tp35
a(I11
I0
tp36
a(I12
I0
tp37
a(I13
I0
tp38
a(I14
I0
tp39
a(I15
I0
tp40
a(I16
I1
tp41
a(I17
I0
tp42
asg11
(lp43
(I0
I0
tp44
a(I1
I0
tp45
a(I2
I17
tp46
a(I3
I11
tp47
a(I4
I17
tp48
a(I5
I11
tp49
a(I6
I11
tp50
a(I7
I17
tp51
a(I8
I11
tp52
a(I9
I0
tp53
a(I10
I0
tp54
a(I11
I2
tp55
a(I12
I0
tp56
a(I13
I2
tp57
a(I14
I2
tp58
a(I15
I0
tp59
a(I16
I3
tp60
a(I17
I0
tp61
asg13
(lp62
(I0
I0
tp63
a(I1
I0
tp64
a(I2
I5
tp65
a(I3
I5
tp66
a(I4
I5
tp67
a(I5
I5
tp68
a(I6
I5
tp69
a(I7
I5
tp70
a(I8
I5
tp71
a(I9
I0
tp72
a(I10
I0
tp73
a(I11
I0
tp74
a(I12
I0
tp75
a(I13
I0
tp76
a(I14
I0
tp77
a(I15
I0
tp78
a(I16
I1
tp79
a(I17
I0
tp80
assbsS'checksums'
p81
S'06000   347\n'
p82
s.