(dp0
S'content'
p1
(imystruct
Struct
p2
(dp3
S'omitmicro'
p4
(lp5
(I24
I25
tp6
a(I47
I48
tp7
a(I47
I49
tp8
a(I47
I50
tp9
a(I47
I51
tp10
a(I47
I52
tp11
asS'omit_one'
p12
(dp13
S'aligned'
p14
(lp15
sS'three'
p16
(lp17
sS'one'
p18
(lp19
ssS'prefix'
p20
(dp21
g14
(lp22
(I0
I0
tp23
a(I1
I0
tp24
a(I2
I0
tp25
a(I3
I2
tp26
a(I3
I5
tp27
a(I4
I2
tp28
a(I4
I5
tp29
a(I5
I2
tp30
a(I5
I5
tp31
a(I6
I2
tp32
a(I6
I5
tp33
a(I7
I2
tp34
a(I7
I5
tp35
a(I8
I2
tp36
a(I8
I5
tp37
a(I9
I0
tp38
a(I10
I0
tp39
a(I11
I0
tp40
a(I12
I0
tp41
a(I13
I0
tp42
a(I14
I2
tp43
a(I14
I5
tp44
a(I15
I2
tp45
a(I15
I5
tp46
a(I16
I2
tp47
a(I16
I5
tp48
a(I17
I2
tp49
a(I17
I5
tp50
a(I18
I2
tp51
a(I18
I5
tp52
a(I19
I2
tp53
a(I19
I5
tp54
a(I20
I0
tp55
a(I21
I0
tp56
a(I22
I0
tp57
a(I23
I2
tp58
a(I23
I5
tp59
a(I24
I7
tp60
a(I25
I0
tp61
a(I26
I0
tp62
a(I27
I0
tp63
a(I28
I0
tp64
a(I29
I2
tp65
a(I29
I5
tp66
a(I30
I0
tp67
a(I31
I0
tp68
a(I32
I2
tp69
a(I32
I5
tp70
a(I33
I0
tp71
a(I34
I0
tp72
a(I35
I0
tp73
a(I36
I0
tp74
a(I37
I0
tp75
a(I38
I2
tp76
a(I38
I5
tp77
a(I39
I0
tp78
a(I40
I0
tp79
a(I41
I0
tp80
a(I42
I0
tp81
a(I43
I2
tp82
a(I43
I5
tp83
a(I44
I2
tp84
a(I44
I5
tp85
a(I45
I2
tp86
a(I45
I5
tp87
a(I46
I2
tp88
a(I46
I5
tp89
a(I47
I7
tp90
a(I48
I0
tp91
a(I49
I0
tp92
a(I50
I0
tp93
a(I51
I0
tp94
a(I52
I0
tp95
asg16
(lp96
(I0
I0
tp97
a(I1
I0
tp98
a(I2
I0
tp99
a(I3
I17
tp100
a(I4
I17
tp101
a(I5
I17
tp102
a(I6
I17
tp103
a(I7
I17
tp104
a(I8
I17
tp105
a(I9
I0
tp106
a(I10
I0
tp107
a(I11
I0
tp108
a(I12
I0
tp109
a(I13
I0
tp110
a(I14
I17
tp111
a(I15
I17
tp112
a(I16
I17
tp113
a(I17
I17
tp114
a(I18
I17
tp115
a(I19
I17
tp116
a(I20
I0
tp117
a(I21
I0
tp118
a(I22
I0
tp119
a(I23
I17
tp120
a(I24
I9
tp121
a(I25
I0
tp122
a(I26
I0
tp123
a(I27
I0
tp124
a(I28
I2
tp125
a(I29
I17
tp126
a(I30
I0
tp127
a(I31
I0
tp128
a(I32
I17
tp129
a(I33
I0
tp130
a(I34
I0
tp131
a(I35
I0
tp132
a(I36
I0
tp133
a(I37
I0
tp134
a(I38
I17
tp135
a(I39
I0
tp136
a(I40
I0
tp137
a(I41
I0
tp138
a(I42
I0
tp139
a(I43
I17
tp140
a(I44
I5
tp141
a(I45
I17
tp142
a(I46
I17
tp143
a(I47
I9
tp144
a(I48
I0
tp145
a(I49
I0
tp146
a(I50
I0
tp147
a(I51
I0
tp148
a(I52
I0
tp149
asg18
(lp150
(I0
I0
tp151
a(I1
I0
tp152
a(I2
I0
tp153
a(I3
I5
tp154
a(I4
I5
tp155
a(I5
I5
tp156
a(I6
I5
tp157
a(I7
I5
tp158
a(I8
I5
tp159
a(I9
I0
tp160
a(I10
I0
tp161
a(I11
I0
tp162
a(I12
I0
tp163
a(I13
I0
tp164
a(I14
I5
tp165
a(I15
I5
tp166
a(I16
I5
tp167
a(I17
I5
tp168
a(I18
I5
tp169
a(I19
I5
tp170
a(I20
I0
tp171
a(I21
I0
tp172
a(I22
I0
tp173
a(I23
I5
tp174
a(I24
I7
tp175
a(I25
I0
tp176
a(I26
I0
tp177
a(I27
I0
tp178
a(I28
I0
tp179
a(I29
I5
tp180
a(I30
I0
tp181
a(I31
I0
tp182
a(I32
I5
tp183
a(I33
I0
tp184
a(I34
I0
tp185
a(I35
I0
tp186
a(I36
I0
tp187
a(I37
I0
tp188
a(I38
I5
tp189
a(I39
I0
tp190
a(I40
I0
tp191
a(I41
I0
tp192
a(I42
I0
tp193
a(I43
I5
tp194
a(I44
I5
tp195
a(I45
I5
tp196
a(I46
I5
tp197
a(I47
I7
tp198
a(I48
I0
tp199
a(I49
I0
tp200
a(I50
I0
tp201
a(I51
I0
tp202
a(I52
I0
tp203
assbsS'checksums'
p204
S'33966  1246\n'
p205
s.