(dp0
S'content'
p1
(imystruct
Struct
p2
(dp3
S'omitmicro'
p4
(lp5
(I0
I1
tp6
a(I0
I2
tp7
a(I0
I3
tp8
a(I0
I4
tp9
a(I0
I5
tp10
a(I0
I6
tp11
a(I0
I7
tp12
a(I0
I8
tp13
a(I0
I10
tp14
a(I0
I11
tp15
a(I0
I12
tp16
a(I0
I13
tp17
a(I0
I14
tp18
a(I0
I15
tp19
a(I0
I16
tp20
a(I0
I17
tp21
a(I0
I18
tp22
a(I0
I19
tp23
a(I0
I21
tp24
a(I0
I22
tp25
a(I0
I23
tp26
a(I0
I24
tp27
a(I0
I25
tp28
a(I0
I26
tp29
a(I0
I27
tp30
a(I0
I28
tp31
a(I0
I29
tp32
a(I0
I30
tp33
a(I0
I31
tp34
a(I0
I32
tp35
a(I0
I34
tp36
a(I0
I35
tp37
a(I0
I36
tp38
a(I0
I37
tp39
a(I0
I38
tp40
a(I0
I40
tp41
a(I0
I41
tp42
a(I0
I42
tp43
a(I0
I43
tp44
a(I0
I44
tp45
a(I0
I45
tp46
a(I0
I46
tp47
a(I0
I47
tp48
a(I0
I48
tp49
a(I0
I49
tp50
a(I0
I50
tp51
a(I0
I51
tp52
a(I0
I52
tp53
a(I1
I2
tp54
a(I1
I3
tp55
a(I1
I4
tp56
a(I1
I5
tp57
a(I1
I6
tp58
a(I1
I7
tp59
a(I1
I8
tp60
a(I1
I10
tp61
a(I1
I11
tp62
a(I1
I12
tp63
a(I1
I13
tp64
a(I1
I14
tp65
a(I1
I15
tp66
a(I1
I16
tp67
a(I1
I17
tp68
a(I1
I18
tp69
a(I1
I19
tp70
a(I1
I21
tp71
a(I1
I22
tp72
a(I1
I23
tp73
a(I1
I24
tp74
a(I1
I25
tp75
a(I1
I26
tp76
a(I1
I27
tp77
a(I1
I28
tp78
a(I1
I29
tp79
a(I1
I30
tp80
a(I1
I31
tp81
a(I1
I32
tp82
a(I1
I34
tp83
a(I1
I35
tp84
a(I1
I36
tp85
a(I1
I37
tp86
a(I1
I38
tp87
a(I1
I40
tp88
a(I1
I41
tp89
a(I1
I42
tp90
a(I1
I43
tp91
a(I1
I44
tp92
a(I1
I45
tp93
a(I1
I46
tp94
a(I1
I47
tp95
a(I1
I48
tp96
a(I1
I49
tp97
a(I1
I50
tp98
a(I1
I51
tp99
a(I1
I52
tp100
a(I2
I3
tp101
a(I2
I4
tp102
a(I2
I5
tp103
a(I2
I6
tp104
a(I2
I7
tp105
a(I2
I8
tp106
a(I2
I10
tp107
a(I2
I11
tp108
a(I2
I12
tp109
a(I2
I13
tp110
a(I2
I14
tp111
a(I2
I15
tp112
a(I2
I16
tp113
a(I2
I17
tp114
a(I2
I18
tp115
a(I2
I19
tp116
a(I2
I21
tp117
a(I2
I22
tp118
a(I2
I23
tp119
a(I2
I24
tp120
a(I2
I25
tp121
a(I2
I26
tp122
a(I2
I27
tp123
a(I2
I28
tp124
a(I2
I29
tp125
a(I2
I30
tp126
a(I2
I31
tp127
a(I2
I32
tp128
a(I2
I34
tp129
a(I2
I35
tp130
a(I2
I36
tp131
a(I2
I37
tp132
a(I2
I38
tp133
a(I2
I40
tp134
a(I2
I41
tp135
a(I2
I42
tp136
a(I2
I43
tp137
a(I2
I44
tp138
a(I2
I45
tp139
a(I2
I46
tp140
a(I2
I47
tp141
a(I2
I48
tp142
a(I2
I49
tp143
a(I2
I50
tp144
a(I2
I51
tp145
a(I2
I52
tp146
a(I3
I4
tp147
a(I3
I5
tp148
a(I3
I6
tp149
a(I3
I7
tp150
a(I3
I8
tp151
a(I4
I5
tp152
a(I4
I6
tp153
a(I4
I7
tp154
a(I4
I8
tp155
a(I5
I6
tp156
a(I5
I7
tp157
a(I5
I8
tp158
a(I6
I7
tp159
a(I6
I8
tp160
a(I7
I8
tp161
a(I10
I11
tp162
a(I10
I12
tp163
a(I10
I13
tp164
a(I10
I14
tp165
a(I10
I15
tp166
a(I10
I16
tp167
a(I10
I17
tp168
a(I10
I18
tp169
a(I10
I19
tp170
a(I10
I21
tp171
a(I10
I22
tp172
a(I10
I23
tp173
a(I10
I24
tp174
a(I10
I25
tp175
a(I10
I26
tp176
a(I10
I27
tp177
a(I10
I28
tp178
a(I10
I29
tp179
a(I10
I30
tp180
a(I10
I31
tp181
a(I10
I32
tp182
a(I10
I34
tp183
a(I10
I35
tp184
a(I10
I36
tp185
a(I10
I37
tp186
a(I10
I38
tp187
a(I10
I40
tp188
a(I10
I41
tp189
a(I10
I42
tp190
a(I10
I43
tp191
a(I10
I44
tp192
a(I10
I45
tp193
a(I10
I46
tp194
a(I10
I47
tp195
a(I10
I48
tp196
a(I10
I49
tp197
a(I10
I50
tp198
a(I10
I51
tp199
a(I10
I52
tp200
a(I11
I12
tp201
a(I11
I13
tp202
a(I11
I14
tp203
a(I11
I15
tp204
a(I11
I16
tp205
a(I11
I17
tp206
a(I11
I18
tp207
a(I11
I19
tp208
a(I11
I21
tp209
a(I11
I22
tp210
a(I11
I23
tp211
a(I11
I24
tp212
a(I11
I25
tp213
a(I11
I26
tp214
a(I11
I27
tp215
a(I11
I28
tp216
a(I11
I29
tp217
a(I11
I30
tp218
a(I11
I31
tp219
a(I11
I32
tp220
a(I11
I34
tp221
a(I11
I35
tp222
a(I11
I36
tp223
a(I11
I37
tp224
a(I11
I38
tp225
a(I11
I40
tp226
a(I11
I41
tp227
a(I11
I42
tp228
a(I11
I43
tp229
a(I11
I44
tp230
a(I11
I45
tp231
a(I11
I46
tp232
a(I11
I47
tp233
a(I11
I48
tp234
a(I11
I49
tp235
a(I11
I50
tp236
a(I11
I51
tp237
a(I11
I52
tp238
a(I12
I13
tp239
a(I12
I14
tp240
a(I12
I15
tp241
a(I12
I16
tp242
a(I12
I17
tp243
a(I12
I18
tp244
a(I12
I19
tp245
a(I12
I21
tp246
a(I12
I22
tp247
a(I12
I23
tp248
a(I12
I24
tp249
a(I12
I25
tp250
a(I12
I26
tp251
a(I12
I27
tp252
a(I12
I28
tp253
a(I12
I29
tp254
a(I12
I30
tp255
a(I12
I31
tp256
a(I12
I32
tp257
a(I12
I34
tp258
a(I12
I35
tp259
a(I12
I36
tp260
a(I12
I37
tp261
a(I12
I38
tp262
a(I12
I40
tp263
a(I12
I41
tp264
a(I12
I42
tp265
a(I12
I43
tp266
a(I12
I44
tp267
a(I12
I45
tp268
a(I12
I46
tp269
a(I12
I47
tp270
a(I12
I48
tp271
a(I12
I49
tp272
a(I12
I50
tp273
a(I12
I51
tp274
a(I12
I52
tp275
a(I13
I14
tp276
a(I13
I15
tp277
a(I13
I16
tp278
a(I13
I17
tp279
a(I13
I18
tp280
a(I13
I19
tp281
a(I13
I21
tp282
a(I13
I22
tp283
a(I13
I23
tp284
a(I13
I24
tp285
a(I13
I25
tp286
a(I13
I26
tp287
a(I13
I27
tp288
a(I13
I28
tp289
a(I13
I29
tp290
a(I13
I30
tp291
a(I13
I31
tp292
a(I13
I32
tp293
a(I13
I34
tp294
a(I13
I35
tp295
a(I13
I36
tp296
a(I13
I37
tp297
a(I13
I38
tp298
a(I13
I40
tp299
a(I13
I41
tp300
a(I13
I42
tp301
a(I13
I43
tp302
a(I13
I44
tp303
a(I13
I45
tp304
a(I13
I46
tp305
a(I13
I47
tp306
a(I13
I48
tp307
a(I13
I49
tp308
a(I13
I50
tp309
a(I13
I51
tp310
a(I13
I52
tp311
a(I14
I15
tp312
a(I14
I16
tp313
a(I14
I17
tp314
a(I14
I18
tp315
a(I14
I19
tp316
a(I15
I16
tp317
a(I15
I17
tp318
a(I15
I18
tp319
a(I15
I19
tp320
a(I16
I17
tp321
a(I16
I18
tp322
a(I16
I19
tp323
a(I17
I18
tp324
a(I17
I19
tp325
a(I18
I19
tp326
a(I21
I22
tp327
a(I21
I23
tp328
a(I21
I24
tp329
a(I21
I25
tp330
a(I21
I26
tp331
a(I21
I27
tp332
a(I21
I28
tp333
a(I21
I29
tp334
a(I21
I30
tp335
a(I21
I31
tp336
a(I21
I32
tp337
a(I21
I34
tp338
a(I21
I35
tp339
a(I21
I36
tp340
a(I21
I37
tp341
a(I21
I38
tp342
a(I21
I40
tp343
a(I21
I41
tp344
a(I21
I42
tp345
a(I21
I43
tp346
a(I21
I44
tp347
a(I21
I45
tp348
a(I21
I46
tp349
a(I21
I47
tp350
a(I21
I48
tp351
a(I21
I49
tp352
a(I21
I50
tp353
a(I21
I51
tp354
a(I21
I52
tp355
a(I22
I23
tp356
a(I22
I24
tp357
a(I22
I25
tp358
a(I22
I26
tp359
a(I22
I27
tp360
a(I22
I28
tp361
a(I22
I29
tp362
a(I22
I30
tp363
a(I22
I31
tp364
a(I22
I32
tp365
a(I22
I34
tp366
a(I22
I35
tp367
a(I22
I36
tp368
a(I22
I37
tp369
a(I22
I38
tp370
a(I22
I40
tp371
a(I22
I41
tp372
a(I22
I42
tp373
a(I22
I43
tp374
a(I22
I44
tp375
a(I22
I45
tp376
a(I22
I46
tp377
a(I22
I47
tp378
a(I22
I48
tp379
a(I22
I49
tp380
a(I22
I50
tp381
a(I22
I51
tp382
a(I22
I52
tp383
a(I24
I25
tp384
a(I24
I26
tp385
a(I24
I27
tp386
a(I24
I28
tp387
a(I24
I29
tp388
a(I24
I30
tp389
a(I24
I31
tp390
a(I24
I32
tp391
a(I24
I34
tp392
a(I24
I35
tp393
a(I24
I36
tp394
a(I24
I37
tp395
a(I24
I38
tp396
a(I24
I40
tp397
a(I24
I41
tp398
a(I24
I42
tp399
a(I24
I43
tp400
a(I24
I44
tp401
a(I24
I45
tp402
a(I24
I46
tp403
a(I24
I47
tp404
a(I24
I48
tp405
a(I24
I49
tp406
a(I24
I50
tp407
a(I24
I51
tp408
a(I24
I52
tp409
a(I26
I27
tp410
a(I26
I28
tp411
a(I26
I29
tp412
a(I26
I30
tp413
a(I26
I31
tp414
a(I26
I32
tp415
a(I26
I34
tp416
a(I26
I35
tp417
a(I26
I36
tp418
a(I26
I37
tp419
a(I26
I38
tp420
a(I26
I40
tp421
a(I26
I41
tp422
a(I26
I42
tp423
a(I26
I43
tp424
a(I26
I44
tp425
a(I26
I45
tp426
a(I26
I46
tp427
a(I26
I47
tp428
a(I26
I48
tp429
a(I26
I49
tp430
a(I26
I50
tp431
a(I26
I51
tp432
a(I26
I52
tp433
a(I27
I28
tp434
a(I27
I29
tp435
a(I27
I30
tp436
a(I27
I31
tp437
a(I27
I32
tp438
a(I27
I34
tp439
a(I27
I35
tp440
a(I27
I36
tp441
a(I27
I37
tp442
a(I27
I38
tp443
a(I27
I40
tp444
a(I27
I41
tp445
a(I27
I42
tp446
a(I27
I43
tp447
a(I27
I44
tp448
a(I27
I45
tp449
a(I27
I46
tp450
a(I27
I47
tp451
a(I27
I48
tp452
a(I27
I49
tp453
a(I27
I50
tp454
a(I27
I51
tp455
a(I27
I52
tp456
a(I28
I29
tp457
a(I28
I30
tp458
a(I28
I31
tp459
a(I28
I32
tp460
a(I28
I34
tp461
a(I28
I35
tp462
a(I28
I36
tp463
a(I28
I37
tp464
a(I28
I38
tp465
a(I28
I40
tp466
a(I28
I41
tp467
a(I28
I42
tp468
a(I28
I43
tp469
a(I28
I44
tp470
a(I28
I45
tp471
a(I28
I46
tp472
a(I28
I47
tp473
a(I28
I48
tp474
a(I28
I49
tp475
a(I28
I50
tp476
a(I28
I51
tp477
a(I28
I52
tp478
a(I29
I30
tp479
a(I29
I31
tp480
a(I29
I32
tp481
a(I29
I34
tp482
a(I29
I35
tp483
a(I29
I36
tp484
a(I29
I37
tp485
a(I29
I38
tp486
a(I29
I40
tp487
a(I29
I41
tp488
a(I29
I42
tp489
a(I29
I43
tp490
a(I29
I44
tp491
a(I29
I45
tp492
a(I29
I46
tp493
a(I29
I47
tp494
a(I29
I48
tp495
a(I29
I49
tp496
a(I29
I50
tp497
a(I29
I51
tp498
a(I29
I52
tp499
a(I30
I31
tp500
a(I30
I32
tp501
a(I30
I34
tp502
a(I30
I35
tp503
a(I30
I36
tp504
a(I30
I37
tp505
a(I30
I38
tp506
a(I30
I40
tp507
a(I30
I41
tp508
a(I30
I42
tp509
a(I30
I43
tp510
a(I30
I44
tp511
a(I30
I45
tp512
a(I30
I46
tp513
a(I30
I47
tp514
a(I30
I48
tp515
a(I30
I49
tp516
a(I30
I50
tp517
a(I30
I51
tp518
a(I30
I52
tp519
a(I31
I32
tp520
a(I31
I34
tp521
a(I31
I35
tp522
a(I31
I36
tp523
a(I31
I37
tp524
a(I31
I38
tp525
a(I31
I40
tp526
a(I31
I41
tp527
a(I31
I42
tp528
a(I31
I43
tp529
a(I31
I44
tp530
a(I31
I45
tp531
a(I31
I46
tp532
a(I31
I47
tp533
a(I31
I48
tp534
a(I31
I49
tp535
a(I31
I50
tp536
a(I31
I51
tp537
a(I31
I52
tp538
a(I34
I35
tp539
a(I34
I36
tp540
a(I34
I37
tp541
a(I34
I38
tp542
a(I34
I40
tp543
a(I34
I41
tp544
a(I34
I42
tp545
a(I34
I43
tp546
a(I34
I44
tp547
a(I34
I45
tp548
a(I34
I46
tp549
a(I34
I47
tp550
a(I34
I48
tp551
a(I34
I49
tp552
a(I34
I50
tp553
a(I34
I51
tp554
a(I34
I52
tp555
a(I35
I36
tp556
a(I35
I37
tp557
a(I35
I38
tp558
a(I35
I40
tp559
a(I35
I41
tp560
a(I35
I42
tp561
a(I35
I43
tp562
a(I35
I44
tp563
a(I35
I45
tp564
a(I35
I46
tp565
a(I35
I47
tp566
a(I35
I48
tp567
a(I35
I49
tp568
a(I35
I50
tp569
a(I35
I51
tp570
a(I35
I52
tp571
a(I36
I37
tp572
a(I36
I38
tp573
a(I36
I40
tp574
a(I36
I41
tp575
a(I36
I42
tp576
a(I36
I43
tp577
a(I36
I44
tp578
a(I36
I45
tp579
a(I36
I46
tp580
a(I36
I47
tp581
a(I36
I48
tp582
a(I36
I49
tp583
a(I36
I50
tp584
a(I36
I51
tp585
a(I36
I52
tp586
a(I37
I38
tp587
a(I37
I40
tp588
a(I37
I41
tp589
a(I37
I42
tp590
a(I37
I43
tp591
a(I37
I44
tp592
a(I37
I45
tp593
a(I37
I46
tp594
a(I37
I47
tp595
a(I37
I48
tp596
a(I37
I49
tp597
a(I37
I50
tp598
a(I37
I51
tp599
a(I37
I52
tp600
a(I40
I41
tp601
a(I40
I42
tp602
a(I40
I43
tp603
a(I40
I44
tp604
a(I40
I45
tp605
a(I40
I46
tp606
a(I40
I47
tp607
a(I40
I48
tp608
a(I40
I49
tp609
a(I40
I50
tp610
a(I40
I51
tp611
a(I40
I52
tp612
a(I41
I42
tp613
a(I41
I43
tp614
a(I41
I44
tp615
a(I41
I45
tp616
a(I41
I46
tp617
a(I41
I47
tp618
a(I41
I48
tp619
a(I41
I49
tp620
a(I41
I50
tp621
a(I41
I51
tp622
a(I41
I52
tp623
a(I42
I43
tp624
a(I42
I44
tp625
a(I42
I45
tp626
a(I42
I46
tp627
a(I42
I47
tp628
a(I42
I48
tp629
a(I42
I49
tp630
a(I42
I50
tp631
a(I42
I51
tp632
a(I42
I52
tp633
a(I43
I44
tp634
a(I43
I45
tp635
a(I43
I46
tp636
a(I44
I45
tp637
a(I44
I46
tp638
a(I45
I46
tp639
a(I45
I47
tp640
a(I45
I48
tp641
a(I45
I49
tp642
a(I45
I50
tp643
a(I45
I51
tp644
a(I45
I52
tp645
a(I46
I47
tp646
a(I46
I48
tp647
a(I46
I49
tp648
a(I46
I50
tp649
a(I46
I51
tp650
a(I46
I52
tp651
a(I47
I48
tp652
a(I47
I49
tp653
a(I47
I50
tp654
a(I47
I51
tp655
a(I47
I52
tp656
asS'omit_one'
p657
(dp658
S'aligned'
p659
(lp660
((I24
I0
tp661
(I24
I1
tp662
tp663
a(g661
(I24
I2
tp664
tp665
a(g661
(I24
I3
tp666
tp667
a((I24
I1
tp668
(I24
I2
tp669
tp670
a(g668
(I24
I3
tp671
tp672
a((I24
I2
tp673
(I24
I3
tp674
tp675
a((I47
I0
tp676
(I47
I1
tp677
tp678
a(g676
(I47
I2
tp679
tp680
a(g676
(I47
I3
tp681
tp682
a((I47
I1
tp683
(I47
I2
tp684
tp685
a(g683
(I47
I3
tp686
tp687
a((I47
I2
tp688
(I47
I3
tp689
tp690
asS'three'
p691
(lp692
((I3
I2
tp693
(I3
I3
tp694
tp695
a(g693
(I3
I4
tp696
tp697
a(g693
(I3
I5
tp698
tp699
a(g693
(I3
I6
tp700
tp701
a(g693
(I3
I7
tp702
tp703
a(g693
(I3
I8
tp704
tp705
a((I3
I5
tp706
(I3
I6
tp707
tp708
a(g706
(I3
I7
tp709
tp710
a(g706
(I3
I8
tp711
tp712
a((I4
I2
tp713
(I4
I3
tp714
tp715
a(g713
(I4
I4
tp716
tp717
a(g713
(I4
I5
tp718
tp719
a(g713
(I4
I6
tp720
tp721
a(g713
(I4
I7
tp722
tp723
a(g713
(I4
I8
tp724
tp725
a((I4
I5
tp726
(I4
I6
tp727
tp728
a(g726
(I4
I7
tp729
tp730
a(g726
(I4
I8
tp731
tp732
a((I5
I2
tp733
(I5
I3
tp734
tp735
a(g733
(I5
I4
tp736
tp737
a(g733
(I5
I5
tp738
tp739
a(g733
(I5
I6
tp740
tp741
a(g733
(I5
I7
tp742
tp743
a(g733
(I5
I8
tp744
tp745
a((I5
I5
tp746
(I5
I6
tp747
tp748
a(g746
(I5
I7
tp749
tp750
a(g746
(I5
I8
tp751
tp752
a((I6
I2
tp753
(I6
I3
tp754
tp755
a(g753
(I6
I4
tp756
tp757
a(g753
(I6
I5
tp758
tp759
a(g753
(I6
I6
tp760
tp761
a(g753
(I6
I7
tp762
tp763
a(g753
(I6
I8
tp764
tp765
a((I6
I5
tp766
(I6
I6
tp767
tp768
a(g766
(I6
I7
tp769
tp770
a(g766
(I6
I8
tp771
tp772
a((I7
I2
tp773
(I7
I3
tp774
tp775
a(g773
(I7
I4
tp776
tp777
a(g773
(I7
I5
tp778
tp779
a(g773
(I7
I6
tp780
tp781
a(g773
(I7
I7
tp782
tp783
a(g773
(I7
I8
tp784
tp785
a((I7
I5
tp786
(I7
I6
tp787
tp788
a(g786
(I7
I7
tp789
tp790
a(g786
(I7
I8
tp791
tp792
a((I8
I2
tp793
(I8
I3
tp794
tp795
a(g793
(I8
I4
tp796
tp797
a(g793
(I8
I5
tp798
tp799
a(g793
(I8
I6
tp800
tp801
a(g793
(I8
I7
tp802
tp803
a(g793
(I8
I8
tp804
tp805
a((I8
I5
tp806
(I8
I6
tp807
tp808
a(g806
(I8
I7
tp809
tp810
a(g806
(I8
I8
tp811
tp812
a((I14
I2
tp813
(I14
I3
tp814
tp815
a(g813
(I14
I4
tp816
tp817
a(g813
(I14
I5
tp818
tp819
a(g813
(I14
I6
tp820
tp821
a(g813
(I14
I7
tp822
tp823
a(g813
(I14
I8
tp824
tp825
a((I14
I5
tp826
(I14
I6
tp827
tp828
a(g826
(I14
I7
tp829
tp830
a(g826
(I14
I8
tp831
tp832
a((I15
I2
tp833
(I15
I3
tp834
tp835
a(g833
(I15
I4
tp836
tp837
a(g833
(I15
I5
tp838
tp839
a(g833
(I15
I6
tp840
tp841
a(g833
(I15
I7
tp842
tp843
a(g833
(I15
I8
tp844
tp845
a((I15
I5
tp846
(I15
I6
tp847
tp848
a(g846
(I15
I7
tp849
tp850
a(g846
(I15
I8
tp851
tp852
a((I16
I2
tp853
(I16
I3
tp854
tp855
a(g853
(I16
I4
tp856
tp857
a(g853
(I16
I5
tp858
tp859
a(g853
(I16
I6
tp860
tp861
a(g853
(I16
I7
tp862
tp863
a(g853
(I16
I8
tp864
tp865
a((I16
I5
tp866
(I16
I6
tp867
tp868
a(g866
(I16
I7
tp869
tp870
a(g866
(I16
I8
tp871
tp872
a((I17
I2
tp873
(I17
I3
tp874
tp875
a(g873
(I17
I4
tp876
tp877
a(g873
(I17
I5
tp878
tp879
a(g873
(I17
I6
tp880
tp881
a(g873
(I17
I7
tp882
tp883
a(g873
(I17
I8
tp884
tp885
a((I17
I5
tp886
(I17
I6
tp887
tp888
a(g886
(I17
I7
tp889
tp890
a(g886
(I17
I8
tp891
tp892
a((I18
I2
tp893
(I18
I3
tp894
tp895
a(g893
(I18
I4
tp896
tp897
a(g893
(I18
I5
tp898
tp899
a(g893
(I18
I6
tp900
tp901
a(g893
(I18
I7
tp902
tp903
a(g893
(I18
I8
tp904
tp905
a((I18
I5
tp906
(I18
I6
tp907
tp908
a(g906
(I18
I7
tp909
tp910
a(g906
(I18
I8
tp911
tp912
a((I19
I2
tp913
(I19
I3
tp914
tp915
a(g913
(I19
I4
tp916
tp917
a(g913
(I19
I5
tp918
tp919
a(g913
(I19
I6
tp920
tp921
a(g913
(I19
I7
tp922
tp923
a(g913
(I19
I8
tp924
tp925
a((I19
I5
tp926
(I19
I6
tp927
tp928
a(g926
(I19
I7
tp929
tp930
a(g926
(I19
I8
tp931
tp932
a((I23
I2
tp933
(I23
I3
tp934
tp935
a(g933
(I23
I4
tp936
tp937
a(g933
(I23
I5
tp938
tp939
a(g933
(I23
I6
tp940
tp941
a(g933
(I23
I7
tp942
tp943
a(g933
(I23
I8
tp944
tp945
a((I23
I5
tp946
(I23
I6
tp947
tp948
a(g946
(I23
I7
tp949
tp950
a(g946
(I23
I8
tp951
tp952
a((I24
I0
tp953
(I24
I1
tp954
tp955
a(g953
(I24
I2
tp956
tp957
a(g953
(I24
I3
tp958
tp959
a(g953
(I24
I4
tp960
tp961
a(g953
(I24
I5
tp962
tp963
a((I24
I1
tp964
(I24
I2
tp965
tp966
a(g964
(I24
I3
tp967
tp968
a(g964
(I24
I4
tp969
tp970
a(g964
(I24
I5
tp971
tp972
a((I24
I2
tp973
(I24
I3
tp974
tp975
a(g973
(I24
I4
tp976
tp977
a(g973
(I24
I5
tp978
tp979
a((I24
I3
tp980
(I24
I4
tp981
tp982
a(g980
(I24
I5
tp983
tp984
a((I24
I4
tp985
(I24
I5
tp986
tp987
a((I29
I2
tp988
(I29
I3
tp989
tp990
a(g988
(I29
I4
tp991
tp992
a(g988
(I29
I5
tp993
tp994
a(g988
(I29
I6
tp995
tp996
a(g988
(I29
I7
tp997
tp998
a(g988
(I29
I8
tp999
tp1000
a((I29
I5
tp1001
(I29
I6
tp1002
tp1003
a(g1001
(I29
I7
tp1004
tp1005
a(g1001
(I29
I8
tp1006
tp1007
a((I32
I2
tp1008
(I32
I3
tp1009
tp1010
a(g1008
(I32
I4
tp1011
tp1012
a(g1008
(I32
I5
tp1013
tp1014
a(g1008
(I32
I6
tp1015
tp1016
a(g1008
(I32
I7
tp1017
tp1018
a(g1008
(I32
I8
tp1019
tp1020
a((I32
I5
tp1021
(I32
I6
tp1022
tp1023
a(g1021
(I32
I7
tp1024
tp1025
a(g1021
(I32
I8
tp1026
tp1027
a((I38
I2
tp1028
(I38
I3
tp1029
tp1030
a(g1028
(I38
I4
tp1031
tp1032
a(g1028
(I38
I5
tp1033
tp1034
a(g1028
(I38
I6
tp1035
tp1036
a(g1028
(I38
I7
tp1037
tp1038
a(g1028
(I38
I8
tp1039
tp1040
a((I38
I5
tp1041
(I38
I6
tp1042
tp1043
a(g1041
(I38
I7
tp1044
tp1045
a(g1041
(I38
I8
tp1046
tp1047
a((I43
I2
tp1048
(I43
I3
tp1049
tp1050
a(g1048
(I43
I4
tp1051
tp1052
a(g1048
(I43
I5
tp1053
tp1054
a(g1048
(I43
I6
tp1055
tp1056
a(g1048
(I43
I7
tp1057
tp1058
a(g1048
(I43
I8
tp1059
tp1060
a((I43
I5
tp1061
(I43
I6
tp1062
tp1063
a(g1061
(I43
I7
tp1064
tp1065
a(g1061
(I43
I8
tp1066
tp1067
a((I45
I2
tp1068
(I45
I3
tp1069
tp1070
a(g1068
(I45
I4
tp1071
tp1072
a(g1068
(I45
I5
tp1073
tp1074
a(g1068
(I45
I6
tp1075
tp1076
a(g1068
(I45
I7
tp1077
tp1078
a(g1068
(I45
I8
tp1079
tp1080
a((I45
I5
tp1081
(I45
I6
tp1082
tp1083
a(g1081
(I45
I7
tp1084
tp1085
a(g1081
(I45
I8
tp1086
tp1087
a((I46
I2
tp1088
(I46
I3
tp1089
tp1090
a(g1088
(I46
I4
tp1091
tp1092
a(g1088
(I46
I5
tp1093
tp1094
a(g1088
(I46
I6
tp1095
tp1096
a(g1088
(I46
I7
tp1097
tp1098
a(g1088
(I46
I8
tp1099
tp1100
a((I46
I5
tp1101
(I46
I6
tp1102
tp1103
a(g1101
(I46
I7
tp1104
tp1105
a(g1101
(I46
I8
tp1106
tp1107
a((I47
I0
tp1108
(I47
I1
tp1109
tp1110
a(g1108
(I47
I2
tp1111
tp1112
a(g1108
(I47
I3
tp1113
tp1114
a(g1108
(I47
I4
tp1115
tp1116
a(g1108
(I47
I5
tp1117
tp1118
a((I47
I1
tp1119
(I47
I2
tp1120
tp1121
a(g1119
(I47
I3
tp1122
tp1123
a(g1119
(I47
I4
tp1124
tp1125
a(g1119
(I47
I5
tp1126
tp1127
a((I47
I2
tp1128
(I47
I3
tp1129
tp1130
a(g1128
(I47
I4
tp1131
tp1132
a(g1128
(I47
I5
tp1133
tp1134
a((I47
I3
tp1135
(I47
I4
tp1136
tp1137
a(g1135
(I47
I5
tp1138
tp1139
a((I47
I4
tp1140
(I47
I5
tp1141
tp1142
asS'one'
p1143
(lp1144
((I24
I0
tp1145
(I24
I1
tp1146
tp1147
a(g1145
(I24
I2
tp1148
tp1149
a(g1145
(I24
I3
tp1150
tp1151
a((I24
I1
tp1152
(I24
I2
tp1153
tp1154
a(g1152
(I24
I3
tp1155
tp1156
a((I24
I2
tp1157
(I24
I3
tp1158
tp1159
a((I47
I0
tp1160
(I47
I1
tp1161
tp1162
a(g1160
(I47
I2
tp1163
tp1164
a(g1160
(I47
I3
tp1165
tp1166
a((I47
I1
tp1167
(I47
I2
tp1168
tp1169
a(g1167
(I47
I3
tp1170
tp1171
a((I47
I2
tp1172
(I47
I3
tp1173
tp1174
assS'prefix'
p1175
(dp1176
g659
(lp1177
(I0
I0
tp1178
a(I1
I0
tp1179
a(I2
I0
tp1180
a(I3
I0
tp1181
a(I3
I1
tp1182
a(I3
I2
tp1183
a(I3
I3
tp1184
a(I3
I4
tp1185
a(I3
I5
tp1186
a(I4
I0
tp1187
a(I4
I1
tp1188
a(I4
I2
tp1189
a(I4
I3
tp1190
a(I4
I4
tp1191
a(I4
I5
tp1192
a(I5
I0
tp1193
a(I5
I1
tp1194
a(I5
I2
tp1195
a(I5
I3
tp1196
a(I5
I4
tp1197
a(I5
I5
tp1198
a(I6
I0
tp1199
a(I6
I1
tp1200
a(I6
I2
tp1201
a(I6
I3
tp1202
a(I6
I4
tp1203
a(I6
I5
tp1204
a(I7
I0
tp1205
a(I7
I1
tp1206
a(I7
I2
tp1207
a(I7
I3
tp1208
a(I7
I4
tp1209
a(I7
I5
tp1210
a(I8
I0
tp1211
a(I8
I1
tp1212
a(I8
I2
tp1213
a(I8
I3
tp1214
a(I8
I4
tp1215
a(I8
I5
tp1216
a(I9
I0
tp1217
a(I10
I0
tp1218
a(I11
I0
tp1219
a(I12
I0
tp1220
a(I13
I0
tp1221
a(I14
I0
tp1222
a(I14
I1
tp1223
a(I14
I2
tp1224
a(I14
I3
tp1225
a(I14
I4
tp1226
a(I14
I5
tp1227
a(I15
I0
tp1228
a(I15
I1
tp1229
a(I15
I2
tp1230
a(I15
I3
tp1231
a(I15
I4
tp1232
a(I15
I5
tp1233
a(I16
I0
tp1234
a(I16
I1
tp1235
a(I16
I2
tp1236
a(I16
I3
tp1237
a(I16
I4
tp1238
a(I16
I5
tp1239
a(I17
I0
tp1240
a(I17
I1
tp1241
a(I17
I2
tp1242
a(I17
I3
tp1243
a(I17
I4
tp1244
a(I17
I5
tp1245
a(I18
I0
tp1246
a(I18
I1
tp1247
a(I18
I2
tp1248
a(I18
I3
tp1249
a(I18
I4
tp1250
a(I18
I5
tp1251
a(I19
I0
tp1252
a(I19
I1
tp1253
a(I19
I2
tp1254
a(I19
I3
tp1255
a(I19
I4
tp1256
a(I19
I5
tp1257
a(I20
I0
tp1258
a(I21
I0
tp1259
a(I22
I0
tp1260
a(I23
I0
tp1261
a(I23
I1
tp1262
a(I23
I2
tp1263
a(I23
I3
tp1264
a(I23
I4
tp1265
a(I23
I5
tp1266
a(I24
I0
tp1267
a(I24
I1
tp1268
a(I24
I2
tp1269
a(I24
I3
tp1270
a(I24
I4
tp1271
a(I24
I5
tp1272
a(I24
I6
tp1273
a(I24
I7
tp1274
a(I25
I0
tp1275
a(I26
I0
tp1276
a(I27
I0
tp1277
a(I28
I0
tp1278
a(I29
I0
tp1279
a(I29
I1
tp1280
a(I29
I2
tp1281
a(I29
I3
tp1282
a(I29
I4
tp1283
a(I29
I5
tp1284
a(I30
I0
tp1285
a(I31
I0
tp1286
a(I32
I0
tp1287
a(I32
I1
tp1288
a(I32
I2
tp1289
a(I32
I3
tp1290
a(I32
I4
tp1291
a(I32
I5
tp1292
a(I33
I0
tp1293
a(I34
I0
tp1294
a(I35
I0
tp1295
a(I36
I0
tp1296
a(I37
I0
tp1297
a(I38
I0
tp1298
a(I38
I1
tp1299
a(I38
I2
tp1300
a(I38
I3
tp1301
a(I38
I4
tp1302
a(I38
I5
tp1303
a(I39
I0
tp1304
a(I40
I0
tp1305
a(I41
I0
tp1306
a(I42
I0
tp1307
a(I43
I0
tp1308
a(I43
I1
tp1309
a(I43
I2
tp1310
a(I43
I3
tp1311
a(I43
I4
tp1312
a(I43
I5
tp1313
a(I44
I0
tp1314
a(I44
I1
tp1315
a(I44
I2
tp1316
a(I44
I3
tp1317
a(I44
I4
tp1318
a(I44
I5
tp1319
a(I45
I0
tp1320
a(I45
I1
tp1321
a(I45
I2
tp1322
a(I45
I3
tp1323
a(I45
I4
tp1324
a(I45
I5
tp1325
a(I46
I0
tp1326
a(I46
I1
tp1327
a(I46
I2
tp1328
a(I46
I3
tp1329
a(I46
I4
tp1330
a(I46
I5
tp1331
a(I47
I0
tp1332
a(I47
I1
tp1333
a(I47
I2
tp1334
a(I47
I3
tp1335
a(I47
I4
tp1336
a(I47
I5
tp1337
a(I47
I6
tp1338
a(I47
I7
tp1339
a(I48
I0
tp1340
a(I49
I0
tp1341
a(I50
I0
tp1342
a(I51
I0
tp1343
a(I52
I0
tp1344
asg691
(lp1345
(I0
I0
tp1346
a(I1
I0
tp1347
a(I2
I0
tp1348
a(I3
I0
tp1349
a(I3
I1
tp1350
a(I3
I2
tp1351
a(I3
I3
tp1352
a(I3
I4
tp1353
a(I3
I5
tp1354
a(I3
I6
tp1355
a(I3
I7
tp1356
a(I3
I8
tp1357
a(I3
I9
tp1358
a(I3
I10
tp1359
a(I3
I11
tp1360
a(I3
I12
tp1361
a(I3
I13
tp1362
a(I3
I14
tp1363
a(I3
I15
tp1364
a(I3
I16
tp1365
a(I3
I17
tp1366
a(I4
I0
tp1367
a(I4
I1
tp1368
a(I4
I2
tp1369
a(I4
I3
tp1370
a(I4
I4
tp1371
a(I4
I5
tp1372
a(I4
I6
tp1373
a(I4
I7
tp1374
a(I4
I8
tp1375
a(I4
I9
tp1376
a(I4
I10
tp1377
a(I4
I11
tp1378
a(I4
I12
tp1379
a(I4
I13
tp1380
a(I4
I14
tp1381
a(I4
I15
tp1382
a(I4
I16
tp1383
a(I4
I17
tp1384
a(I5
I0
tp1385
a(I5
I1
tp1386
a(I5
I2
tp1387
a(I5
I3
tp1388
a(I5
I4
tp1389
a(I5
I5
tp1390
a(I5
I6
tp1391
a(I5
I7
tp1392
a(I5
I8
tp1393
a(I5
I9
tp1394
a(I5
I10
tp1395
a(I5
I11
tp1396
a(I5
I12
tp1397
a(I5
I13
tp1398
a(I5
I14
tp1399
a(I5
I15
tp1400
a(I5
I16
tp1401
a(I5
I17
tp1402
a(I6
I0
tp1403
a(I6
I1
tp1404
a(I6
I2
tp1405
a(I6
I3
tp1406
a(I6
I4
tp1407
a(I6
I5
tp1408
a(I6
I6
tp1409
a(I6
I7
tp1410
a(I6
I8
tp1411
a(I6
I9
tp1412
a(I6
I10
tp1413
a(I6
I11
tp1414
a(I6
I12
tp1415
a(I6
I13
tp1416
a(I6
I14
tp1417
a(I6
I15
tp1418
a(I6
I16
tp1419
a(I6
I17
tp1420
a(I7
I0
tp1421
a(I7
I1
tp1422
a(I7
I2
tp1423
a(I7
I3
tp1424
a(I7
I4
tp1425
a(I7
I5
tp1426
a(I7
I6
tp1427
a(I7
I7
tp1428
a(I7
I8
tp1429
a(I7
I9
tp1430
a(I7
I10
tp1431
a(I7
I11
tp1432
a(I7
I12
tp1433
a(I7
I13
tp1434
a(I7
I14
tp1435
a(I7
I15
tp1436
a(I7
I16
tp1437
a(I7
I17
tp1438
a(I8
I0
tp1439
a(I8
I1
tp1440
a(I8
I2
tp1441
a(I8
I3
tp1442
a(I8
I4
tp1443
a(I8
I5
tp1444
a(I8
I6
tp1445
a(I8
I7
tp1446
a(I8
I8
tp1447
a(I8
I9
tp1448
a(I8
I10
tp1449
a(I8
I11
tp1450
a(I8
I12
tp1451
a(I8
I13
tp1452
a(I8
I14
tp1453
a(I8
I15
tp1454
a(I8
I16
tp1455
a(I8
I17
tp1456
a(I9
I0
tp1457
a(I10
I0
tp1458
a(I11
I0
tp1459
a(I12
I0
tp1460
a(I13
I0
tp1461
a(I14
I0
tp1462
a(I14
I1
tp1463
a(I14
I2
tp1464
a(I14
I3
tp1465
a(I14
I4
tp1466
a(I14
I5
tp1467
a(I14
I6
tp1468
a(I14
I7
tp1469
a(I14
I8
tp1470
a(I14
I9
tp1471
a(I14
I10
tp1472
a(I14
I11
tp1473
a(I14
I12
tp1474
a(I14
I13
tp1475
a(I14
I14
tp1476
a(I14
I15
tp1477
a(I14
I16
tp1478
a(I14
I17
tp1479
a(I15
I0
tp1480
a(I15
I1
tp1481
a(I15
I2
tp1482
a(I15
I3
tp1483
a(I15
I4
tp1484
a(I15
I5
tp1485
a(I15
I6
tp1486
a(I15
I7
tp1487
a(I15
I8
tp1488
a(I15
I9
tp1489
a(I15
I10
tp1490
a(I15
I11
tp1491
a(I15
I12
tp1492
a(I15
I13
tp1493
a(I15
I14
tp1494
a(I15
I15
tp1495
a(I15
I16
tp1496
a(I15
I17
tp1497
a(I16
I0
tp1498
a(I16
I1
tp1499
a(I16
I2
tp1500
a(I16
I3
tp1501
a(I16
I4
tp1502
a(I16
I5
tp1503
a(I16
I6
tp1504
a(I16
I7
tp1505
a(I16
I8
tp1506
a(I16
I9
tp1507
a(I16
I10
tp1508
a(I16
I11
tp1509
a(I16
I12
tp1510
a(I16
I13
tp1511
a(I16
I14
tp1512
a(I16
I15
tp1513
a(I16
I16
tp1514
a(I16
I17
tp1515
a(I17
I0
tp1516
a(I17
I1
tp1517
a(I17
I2
tp1518
a(I17
I3
tp1519
a(I17
I4
tp1520
a(I17
I5
tp1521
a(I17
I6
tp1522
a(I17
I7
tp1523
a(I17
I8
tp1524
a(I17
I9
tp1525
a(I17
I10
tp1526
a(I17
I11
tp1527
a(I17
I12
tp1528
a(I17
I13
tp1529
a(I17
I14
tp1530
a(I17
I15
tp1531
a(I17
I16
tp1532
a(I17
I17
tp1533
a(I18
I0
tp1534
a(I18
I1
tp1535
a(I18
I2
tp1536
a(I18
I3
tp1537
a(I18
I4
tp1538
a(I18
I5
tp1539
a(I18
I6
tp1540
a(I18
I7
tp1541
a(I18
I8
tp1542
a(I18
I9
tp1543
a(I18
I10
tp1544
a(I18
I11
tp1545
a(I18
I12
tp1546
a(I18
I13
tp1547
a(I18
I14
tp1548
a(I18
I15
tp1549
a(I18
I16
tp1550
a(I18
I17
tp1551
a(I19
I0
tp1552
a(I19
I1
tp1553
a(I19
I2
tp1554
a(I19
I3
tp1555
a(I19
I4
tp1556
a(I19
I5
tp1557
a(I19
I6
tp1558
a(I19
I7
tp1559
a(I19
I8
tp1560
a(I19
I9
tp1561
a(I19
I10
tp1562
a(I19
I11
tp1563
a(I19
I12
tp1564
a(I19
I13
tp1565
a(I19
I14
tp1566
a(I19
I15
tp1567
a(I19
I16
tp1568
a(I19
I17
tp1569
a(I20
I0
tp1570
a(I21
I0
tp1571
a(I22
I0
tp1572
a(I23
I0
tp1573
a(I23
I1
tp1574
a(I23
I2
tp1575
a(I23
I3
tp1576
a(I23
I4
tp1577
a(I23
I5
tp1578
a(I23
I6
tp1579
a(I23
I7
tp1580
a(I23
I8
tp1581
a(I23
I9
tp1582
a(I23
I10
tp1583
a(I23
I11
tp1584
a(I23
I12
tp1585
a(I23
I13
tp1586
a(I23
I14
tp1587
a(I23
I15
tp1588
a(I23
I16
tp1589
a(I23
I17
tp1590
a(I24
I0
tp1591
a(I24
I1
tp1592
a(I24
I2
tp1593
a(I24
I3
tp1594
a(I24
I4
tp1595
a(I24
I5
tp1596
a(I24
I6
tp1597
a(I24
I7
tp1598
a(I24
I8
tp1599
a(I24
I9
tp1600
a(I25
I0
tp1601
a(I26
I0
tp1602
a(I27
I0
tp1603
a(I28
I0
tp1604
a(I28
I1
tp1605
a(I28
I2
tp1606
a(I29
I0
tp1607
a(I29
I1
tp1608
a(I29
I2
tp1609
a(I29
I3
tp1610
a(I29
I4
tp1611
a(I29
I5
tp1612
a(I29
I6
tp1613
a(I29
I7
tp1614
a(I29
I8
tp1615
a(I29
I9
tp1616
a(I29
I10
tp1617
a(I29
I11
tp1618
a(I29
I12
tp1619
a(I29
I13
tp1620
a(I29
I14
tp1621
a(I29
I15
tp1622
a(I29
I16
tp1623
a(I29
I17
tp1624
a(I30
I0
tp1625
a(I31
I0
tp1626
a(I32
I0
tp1627
a(I32
I1
tp1628
a(I32
I2
tp1629
a(I32
I3
tp1630
a(I32
I4
tp1631
a(I32
I5
tp1632
a(I32
I6
tp1633
a(I32
I7
tp1634
a(I32
I8
tp1635
a(I32
I9
tp1636
a(I32
I10
tp1637
a(I32
I11
tp1638
a(I32
I12
tp1639
a(I32
I13
tp1640
a(I32
I14
tp1641
a(I32
I15
tp1642
a(I32
I16
tp1643
a(I32
I17
tp1644
a(I33
I0
tp1645
a(I34
I0
tp1646
a(I35
I0
tp1647
a(I36
I0
tp1648
a(I37
I0
tp1649
a(I38
I0
tp1650
a(I38
I1
tp1651
a(I38
I2
tp1652
a(I38
I3
tp1653
a(I38
I4
tp1654
a(I38
I5
tp1655
a(I38
I6
tp1656
a(I38
I7
tp1657
a(I38
I8
tp1658
a(I38
I9
tp1659
a(I38
I10
tp1660
a(I38
I11
tp1661
a(I38
I12
tp1662
a(I38
I13
tp1663
a(I38
I14
tp1664
a(I38
I15
tp1665
a(I38
I16
tp1666
a(I38
I17
tp1667
a(I39
I0
tp1668
a(I40
I0
tp1669
a(I41
I0
tp1670
a(I42
I0
tp1671
a(I43
I0
tp1672
a(I43
I1
tp1673
a(I43
I2
tp1674
a(I43
I3
tp1675
a(I43
I4
tp1676
a(I43
I5
tp1677
a(I43
I6
tp1678
a(I43
I7
tp1679
a(I43
I8
tp1680
a(I43
I9
tp1681
a(I43
I10
tp1682
a(I43
I11
tp1683
a(I43
I12
tp1684
a(I43
I13
tp1685
a(I43
I14
tp1686
a(I43
I15
tp1687
a(I43
I16
tp1688
a(I43
I17
tp1689
a(I44
I0
tp1690
a(I44
I1
tp1691
a(I44
I2
tp1692
a(I44
I3
tp1693
a(I44
I4
tp1694
a(I44
I5
tp1695
a(I45
I0
tp1696
a(I45
I1
tp1697
a(I45
I2
tp1698
a(I45
I3
tp1699
a(I45
I4
tp1700
a(I45
I5
tp1701
a(I45
I6
tp1702
a(I45
I7
tp1703
a(I45
I8
tp1704
a(I45
I9
tp1705
a(I45
I10
tp1706
a(I45
I11
tp1707
a(I45
I12
tp1708
a(I45
I13
tp1709
a(I45
I14
tp1710
a(I45
I15
tp1711
a(I45
I16
tp1712
a(I45
I17
tp1713
a(I46
I0
tp1714
a(I46
I1
tp1715
a(I46
I2
tp1716
a(I46
I3
tp1717
a(I46
I4
tp1718
a(I46
I5
tp1719
a(I46
I6
tp1720
a(I46
I7
tp1721
a(I46
I8
tp1722
a(I46
I9
tp1723
a(I46
I10
tp1724
a(I46
I11
tp1725
a(I46
I12
tp1726
a(I46
I13
tp1727
a(I46
I14
tp1728
a(I46
I15
tp1729
a(I46
I16
tp1730
a(I46
I17
tp1731
a(I47
I0
tp1732
a(I47
I1
tp1733
a(I47
I2
tp1734
a(I47
I3
tp1735
a(I47
I4
tp1736
a(I47
I5
tp1737
a(I47
I6
tp1738
a(I47
I7
tp1739
a(I47
I8
tp1740
a(I47
I9
tp1741
a(I48
I0
tp1742
a(I49
I0
tp1743
a(I50
I0
tp1744
a(I51
I0
tp1745
a(I52
I0
tp1746
asg1143
(lp1747
(I0
I0
tp1748
a(I1
I0
tp1749
a(I2
I0
tp1750
a(I3
I0
tp1751
a(I3
I1
tp1752
a(I3
I2
tp1753
a(I3
I3
tp1754
a(I3
I4
tp1755
a(I3
I5
tp1756
a(I4
I0
tp1757
a(I4
I1
tp1758
a(I4
I2
tp1759
a(I4
I3
tp1760
a(I4
I4
tp1761
a(I4
I5
tp1762
a(I5
I0
tp1763
a(I5
I1
tp1764
a(I5
I2
tp1765
a(I5
I3
tp1766
a(I5
I4
tp1767
a(I5
I5
tp1768
a(I6
I0
tp1769
a(I6
I1
tp1770
a(I6
I2
tp1771
a(I6
I3
tp1772
a(I6
I4
tp1773
a(I6
I5
tp1774
a(I7
I0
tp1775
a(I7
I1
tp1776
a(I7
I2
tp1777
a(I7
I3
tp1778
a(I7
I4
tp1779
a(I7
I5
tp1780
a(I8
I0
tp1781
a(I8
I1
tp1782
a(I8
I2
tp1783
a(I8
I3
tp1784
a(I8
I4
tp1785
a(I8
I5
tp1786
a(I9
I0
tp1787
a(I10
I0
tp1788
a(I11
I0
tp1789
a(I12
I0
tp1790
a(I13
I0
tp1791
a(I14
I0
tp1792
a(I14
I1
tp1793
a(I14
I2
tp1794
a(I14
I3
tp1795
a(I14
I4
tp1796
a(I14
I5
tp1797
a(I15
I0
tp1798
a(I15
I1
tp1799
a(I15
I2
tp1800
a(I15
I3
tp1801
a(I15
I4
tp1802
a(I15
I5
tp1803
a(I16
I0
tp1804
a(I16
I1
tp1805
a(I16
I2
tp1806
a(I16
I3
tp1807
a(I16
I4
tp1808
a(I16
I5
tp1809
a(I17
I0
tp1810
a(I17
I1
tp1811
a(I17
I2
tp1812
a(I17
I3
tp1813
a(I17
I4
tp1814
a(I17
I5
tp1815
a(I18
I0
tp1816
a(I18
I1
tp1817
a(I18
I2
tp1818
a(I18
I3
tp1819
a(I18
I4
tp1820
a(I18
I5
tp1821
a(I19
I0
tp1822
a(I19
I1
tp1823
a(I19
I2
tp1824
a(I19
I3
tp1825
a(I19
I4
tp1826
a(I19
I5
tp1827
a(I20
I0
tp1828
a(I21
I0
tp1829
a(I22
I0
tp1830
a(I23
I0
tp1831
a(I23
I1
tp1832
a(I23
I2
tp1833
a(I23
I3
tp1834
a(I23
I4
tp1835
a(I23
I5
tp1836
a(I24
I0
tp1837
a(I24
I1
tp1838
a(I24
I2
tp1839
a(I24
I3
tp1840
a(I24
I4
tp1841
a(I24
I5
tp1842
a(I24
I6
tp1843
a(I24
I7
tp1844
a(I25
I0
tp1845
a(I26
I0
tp1846
a(I27
I0
tp1847
a(I28
I0
tp1848
a(I29
I0
tp1849
a(I29
I1
tp1850
a(I29
I2
tp1851
a(I29
I3
tp1852
a(I29
I4
tp1853
a(I29
I5
tp1854
a(I30
I0
tp1855
a(I31
I0
tp1856
a(I32
I0
tp1857
a(I32
I1
tp1858
a(I32
I2
tp1859
a(I32
I3
tp1860
a(I32
I4
tp1861
a(I32
I5
tp1862
a(I33
I0
tp1863
a(I34
I0
tp1864
a(I35
I0
tp1865
a(I36
I0
tp1866
a(I37
I0
tp1867
a(I38
I0
tp1868
a(I38
I1
tp1869
a(I38
I2
tp1870
a(I38
I3
tp1871
a(I38
I4
tp1872
a(I38
I5
tp1873
a(I39
I0
tp1874
a(I40
I0
tp1875
a(I41
I0
tp1876
a(I42
I0
tp1877
a(I43
I0
tp1878
a(I43
I1
tp1879
a(I43
I2
tp1880
a(I43
I3
tp1881
a(I43
I4
tp1882
a(I43
I5
tp1883
a(I44
I0
tp1884
a(I44
I1
tp1885
a(I44
I2
tp1886
a(I44
I3
tp1887
a(I44
I4
tp1888
a(I44
I5
tp1889
a(I45
I0
tp1890
a(I45
I1
tp1891
a(I45
I2
tp1892
a(I45
I3
tp1893
a(I45
I4
tp1894
a(I45
I5
tp1895
a(I46
I0
tp1896
a(I46
I1
tp1897
a(I46
I2
tp1898
a(I46
I3
tp1899
a(I46
I4
tp1900
a(I46
I5
tp1901
a(I47
I0
tp1902
a(I47
I1
tp1903
a(I47
I2
tp1904
a(I47
I3
tp1905
a(I47
I4
tp1906
a(I47
I5
tp1907
a(I47
I6
tp1908
a(I47
I7
tp1909
a(I48
I0
tp1910
a(I49
I0
tp1911
a(I50
I0
tp1912
a(I51
I0
tp1913
a(I52
I0
tp1914
assbsS'checksums'
p1915
S'33966  1246\n'
p1916
s.