(dp0
S'content'
p1
(imystruct
Struct
p2
(dp3
S'omitmicro'
p4
(lp5
(I0
I1
tp6
a(I0
I2
tp7
a(I0
I3
tp8
a(I0
I4
tp9
a(I0
I5
tp10
a(I0
I6
tp11
a(I0
I7
tp12
a(I0
I8
tp13
a(I1
I2
tp14
a(I1
I3
tp15
a(I1
I4
tp16
a(I1
I5
tp17
a(I1
I6
tp18
a(I1
I7
tp19
a(I1
I8
tp20
a(I2
I3
tp21
a(I2
I4
tp22
a(I2
I5
tp23
a(I2
I6
tp24
a(I2
I7
tp25
a(I2
I8
tp26
a(I11
I12
tp27
a(I11
I13
tp28
a(I11
I14
tp29
a(I11
I15
tp30
a(I11
I16
tp31
a(I11
I17
tp32
a(I11
I18
tp33
a(I11
I19
tp34
a(I12
I13
tp35
a(I12
I14
tp36
a(I12
I15
tp37
a(I12
I16
tp38
a(I12
I17
tp39
a(I12
I18
tp40
a(I12
I19
tp41
a(I13
I14
tp42
a(I13
I15
tp43
a(I13
I16
tp44
a(I13
I17
tp45
a(I13
I18
tp46
a(I13
I19
tp47
a(I24
I25
tp48
a(I29
I30
tp49
a(I29
I31
tp50
a(I29
I32
tp51
a(I30
I31
tp52
a(I30
I32
tp53
a(I31
I32
tp54
a(I35
I36
tp55
a(I35
I37
tp56
a(I35
I38
tp57
a(I36
I37
tp58
a(I36
I38
tp59
a(I37
I38
tp60
a(I47
I48
tp61
a(I47
I49
tp62
a(I47
I50
tp63
a(I47
I51
tp64
a(I47
I52
tp65
asS'omit_one'
p66
(dp67
S'aligned'
p68
(lp69
sS'three'
p70
(lp71
sS'one'
p72
(lp73
ssS'prefix'
p74
(dp75
g68
(lp76
(I0
I0
tp77
a(I1
I0
tp78
a(I2
I0
tp79
a(I3
I2
tp80
a(I3
I5
tp81
a(I4
I2
tp82
a(I4
I5
tp83
a(I5
I2
tp84
a(I5
I5
tp85
a(I6
I2
tp86
a(I6
I5
tp87
a(I7
I2
tp88
a(I7
I5
tp89
a(I8
I2
tp90
a(I8
I5
tp91
a(I9
I0
tp92
a(I10
I0
tp93
a(I11
I0
tp94
a(I12
I0
tp95
a(I13
I0
tp96
a(I14
I2
tp97
a(I14
I5
tp98
a(I15
I2
tp99
a(I15
I5
tp100
a(I16
I2
tp101
a(I16
I5
tp102
a(I17
I2
tp103
a(I17
I5
tp104
a(I18
I2
tp105
a(I18
I5
tp106
a(I19
I2
tp107
a(I19
I5
tp108
a(I20
I0
tp109
a(I21
I0
tp110
a(I22
I0
tp111
a(I23
I2
tp112
a(I23
I5
tp113
a(I24
I7
tp114
a(I25
I0
tp115
a(I26
I0
tp116
a(I27
I0
tp117
a(I28
I0
tp118
a(I29
I2
tp119
a(I29
I5
tp120
a(I30
I0
tp121
a(I31
I0
tp122
a(I32
I2
tp123
a(I32
I5
tp124
a(I33
I0
tp125
a(I34
I0
tp126
a(I35
I0
tp127
a(I36
I0
tp128
a(I37
I0
tp129
a(I38
I2
tp130
a(I38
I5
tp131
a(I39
I0
tp132
a(I40
I0
tp133
a(I41
I0
tp134
a(I42
I0
tp135
a(I43
I2
tp136
a(I43
I5
tp137
a(I44
I2
tp138
a(I44
I5
tp139
a(I45
I2
tp140
a(I45
I5
tp141
a(I46
I2
tp142
a(I46
I5
tp143
a(I47
I7
tp144
a(I48
I0
tp145
a(I49
I0
tp146
a(I50
I0
tp147
a(I51
I0
tp148
a(I52
I0
tp149
asg70
(lp150
(I0
I0
tp151
a(I1
I0
tp152
a(I2
I0
tp153
a(I3
I17
tp154
a(I4
I17
tp155
a(I5
I17
tp156
a(I6
I17
tp157
a(I7
I17
tp158
a(I8
I17
tp159
a(I9
I0
tp160
a(I10
I0
tp161
a(I11
I0
tp162
a(I12
I0
tp163
a(I13
I0
tp164
a(I14
I17
tp165
a(I15
I17
tp166
a(I16
I17
tp167
a(I17
I17
tp168
a(I18
I17
tp169
a(I19
I17
tp170
a(I20
I0
tp171
a(I21
I0
tp172
a(I22
I0
tp173
a(I23
I17
tp174
a(I24
I9
tp175
a(I25
I0
tp176
a(I26
I0
tp177
a(I27
I0
tp178
a(I28
I2
tp179
a(I29
I17
tp180
a(I30
I0
tp181
a(I31
I0
tp182
a(I32
I17
tp183
a(I33
I0
tp184
a(I34
I0
tp185
a(I35
I0
tp186
a(I36
I0
tp187
a(I37
I0
tp188
a(I38
I17
tp189
a(I39
I0
tp190
a(I40
I0
tp191
a(I41
I0
tp192
a(I42
I0
tp193
a(I43
I17
tp194
a(I44
I5
tp195
a(I45
I17
tp196
a(I46
I17
tp197
a(I47
I9
tp198
a(I48
I0
tp199
a(I49
I0
tp200
a(I50
I0
tp201
a(I51
I0
tp202
a(I52
I0
tp203
asg72
(lp204
(I0
I0
tp205
a(I1
I0
tp206
a(I2
I0
tp207
a(I3
I5
tp208
a(I4
I5
tp209
a(I5
I5
tp210
a(I6
I5
tp211
a(I7
I5
tp212
a(I8
I5
tp213
a(I9
I0
tp214
a(I10
I0
tp215
a(I11
I0
tp216
a(I12
I0
tp217
a(I13
I0
tp218
a(I14
I5
tp219
a(I15
I5
tp220
a(I16
I5
tp221
a(I17
I5
tp222
a(I18
I5
tp223
a(I19
I5
tp224
a(I20
I0
tp225
a(I21
I0
tp226
a(I22
I0
tp227
a(I23
I5
tp228
a(I24
I7
tp229
a(I25
I0
tp230
a(I26
I0
tp231
a(I27
I0
tp232
a(I28
I0
tp233
a(I29
I5
tp234
a(I30
I0
tp235
a(I31
I0
tp236
a(I32
I5
tp237
a(I33
I0
tp238
a(I34
I0
tp239
a(I35
I0
tp240
a(I36
I0
tp241
a(I37
I0
tp242
a(I38
I5
tp243
a(I39
I0
tp244
a(I40
I0
tp245
a(I41
I0
tp246
a(I42
I0
tp247
a(I43
I5
tp248
a(I44
I5
tp249
a(I45
I5
tp250
a(I46
I5
tp251
a(I47
I7
tp252
a(I48
I0
tp253
a(I49
I0
tp254
a(I50
I0
tp255
a(I51
I0
tp256
a(I52
I0
tp257
assbsS'checksums'
p258
S'33966  1246\n'
p259
s.