(dp0
S'content'
p1
(imystruct
Struct
p2
(dp3
S'omitmicro'
p4
(lp5
(I2
I3
tp6
a(I2
I4
tp7
a(I2
I5
tp8
a(I2
I6
tp9
a(I2
I7
tp10
a(I2
I8
tp11
a(I3
I4
tp12
a(I3
I5
tp13
a(I3
I6
tp14
a(I3
I7
tp15
a(I3
I8
tp16
a(I4
I5
tp17
a(I4
I6
tp18
a(I4
I7
tp19
a(I4
I8
tp20
a(I5
I6
tp21
a(I5
I7
tp22
a(I5
I8
tp23
a(I6
I7
tp24
a(I6
I8
tp25
a(I7
I8
tp26
a(I13
I14
tp27
a(I13
I15
tp28
a(I13
I16
tp29
a(I13
I17
tp30
a(I13
I18
tp31
a(I13
I19
tp32
a(I14
I15
tp33
a(I14
I16
tp34
a(I14
I17
tp35
a(I14
I18
tp36
a(I14
I19
tp37
a(I15
I16
tp38
a(I15
I17
tp39
a(I15
I18
tp40
a(I15
I19
tp41
a(I16
I17
tp42
a(I16
I18
tp43
a(I16
I19
tp44
a(I17
I18
tp45
a(I17
I19
tp46
a(I18
I19
tp47
a(I24
I25
tp48
a(I31
I32
tp49
a(I37
I38
tp50
a(I47
I48
tp51
a(I47
I49
tp52
a(I47
I50
tp53
a(I47
I51
tp54
a(I47
I52
tp55
asS'omit_one'
p56
(dp57
S'aligned'
p58
(lp59
sS'three'
p60
(lp61
sS'one'
p62
(lp63
ssS'prefix'
p64
(dp65
g58
(lp66
(I0
I0
tp67
a(I1
I0
tp68
a(I2
I0
tp69
a(I3
I2
tp70
a(I3
I5
tp71
a(I4
I2
tp72
a(I4
I5
tp73
a(I5
I2
tp74
a(I5
I5
tp75
a(I6
I2
tp76
a(I6
I5
tp77
a(I7
I2
tp78
a(I7
I5
tp79
a(I8
I2
tp80
a(I8
I5
tp81
a(I9
I0
tp82
a(I10
I0
tp83
a(I11
I0
tp84
a(I12
I0
tp85
a(I13
I0
tp86
a(I14
I2
tp87
a(I14
I5
tp88
a(I15
I2
tp89
a(I15
I5
tp90
a(I16
I2
tp91
a(I16
I5
tp92
a(I17
I2
tp93
a(I17
I5
tp94
a(I18
I2
tp95
a(I18
I5
tp96
a(I19
I2
tp97
a(I19
I5
tp98
a(I20
I0
tp99
a(I21
I0
tp100
a(I22
I0
tp101
a(I23
I2
tp102
a(I23
I5
tp103
a(I24
I7
tp104
a(I25
I0
tp105
a(I26
I0
tp106
a(I27
I0
tp107
a(I28
I0
tp108
a(I29
I2
tp109
a(I29
I5
tp110
a(I30
I0
tp111
a(I31
I0
tp112
a(I32
I2
tp113
a(I32
I5
tp114
a(I33
I0
tp115
a(I34
I0
tp116
a(I35
I0
tp117
a(I36
I0
tp118
a(I37
I0
tp119
a(I38
I2
tp120
a(I38
I5
tp121
a(I39
I0
tp122
a(I40
I0
tp123
a(I41
I0
tp124
a(I42
I0
tp125
a(I43
I2
tp126
a(I43
I5
tp127
a(I44
I2
tp128
a(I44
I5
tp129
a(I45
I2
tp130
a(I45
I5
tp131
a(I46
I2
tp132
a(I46
I5
tp133
a(I47
I7
tp134
a(I48
I0
tp135
a(I49
I0
tp136
a(I50
I0
tp137
a(I51
I0
tp138
a(I52
I0
tp139
asg60
(lp140
(I0
I0
tp141
a(I1
I0
tp142
a(I2
I0
tp143
a(I3
I17
tp144
a(I4
I17
tp145
a(I5
I17
tp146
a(I6
I17
tp147
a(I7
I17
tp148
a(I8
I17
tp149
a(I9
I0
tp150
a(I10
I0
tp151
a(I11
I0
tp152
a(I12
I0
tp153
a(I13
I0
tp154
a(I14
I17
tp155
a(I15
I17
tp156
a(I16
I17
tp157
a(I17
I17
tp158
a(I18
I17
tp159
a(I19
I17
tp160
a(I20
I0
tp161
a(I21
I0
tp162
a(I22
I0
tp163
a(I23
I17
tp164
a(I24
I9
tp165
a(I25
I0
tp166
a(I26
I0
tp167
a(I27
I0
tp168
a(I28
I2
tp169
a(I29
I17
tp170
a(I30
I0
tp171
a(I31
I0
tp172
a(I32
I17
tp173
a(I33
I0
tp174
a(I34
I0
tp175
a(I35
I0
tp176
a(I36
I0
tp177
a(I37
I0
tp178
a(I38
I17
tp179
a(I39
I0
tp180
a(I40
I0
tp181
a(I41
I0
tp182
a(I42
I0
tp183
a(I43
I17
tp184
a(I44
I5
tp185
a(I45
I17
tp186
a(I46
I17
tp187
a(I47
I9
tp188
a(I48
I0
tp189
a(I49
I0
tp190
a(I50
I0
tp191
a(I51
I0
tp192
a(I52
I0
tp193
asg62
(lp194
(I0
I0
tp195
a(I1
I0
tp196
a(I2
I0
tp197
a(I3
I5
tp198
a(I4
I5
tp199
a(I5
I5
tp200
a(I6
I5
tp201
a(I7
I5
tp202
a(I8
I5
tp203
a(I9
I0
tp204
a(I10
I0
tp205
a(I11
I0
tp206
a(I12
I0
tp207
a(I13
I0
tp208
a(I14
I5
tp209
a(I15
I5
tp210
a(I16
I5
tp211
a(I17
I5
tp212
a(I18
I5
tp213
a(I19
I5
tp214
a(I20
I0
tp215
a(I21
I0
tp216
a(I22
I0
tp217
a(I23
I5
tp218
a(I24
I7
tp219
a(I25
I0
tp220
a(I26
I0
tp221
a(I27
I0
tp222
a(I28
I0
tp223
a(I29
I5
tp224
a(I30
I0
tp225
a(I31
I0
tp226
a(I32
I5
tp227
a(I33
I0
tp228
a(I34
I0
tp229
a(I35
I0
tp230
a(I36
I0
tp231
a(I37
I0
tp232
a(I38
I5
tp233
a(I39
I0
tp234
a(I40
I0
tp235
a(I41
I0
tp236
a(I42
I0
tp237
a(I43
I5
tp238
a(I44
I5
tp239
a(I45
I5
tp240
a(I46
I5
tp241
a(I47
I7
tp242
a(I48
I0
tp243
a(I49
I0
tp244
a(I50
I0
tp245
a(I51
I0
tp246
a(I52
I0
tp247
assbsS'checksums'
p248
S'33966  1246\n'
p249
s.