(dp0
S'content'
p1
(imystruct
Struct
p2
(dp3
S'omitmicro'
p4
(lp5
(I2
I3
tp6
a(I2
I4
tp7
a(I2
I5
tp8
a(I2
I6
tp9
a(I2
I7
tp10
a(I2
I8
tp11
a(I13
I14
tp12
a(I13
I15
tp13
a(I13
I16
tp14
a(I13
I17
tp15
a(I13
I18
tp16
a(I13
I19
tp17
a(I24
I25
tp18
a(I31
I32
tp19
a(I37
I38
tp20
a(I47
I48
tp21
a(I47
I49
tp22
a(I47
I50
tp23
a(I47
I51
tp24
a(I47
I52
tp25
asS'omit_one'
p26
(dp27
S'aligned'
p28
(lp29
sS'three'
p30
(lp31
sS'one'
p32
(lp33
ssS'prefix'
p34
(dp35
g28
(lp36
(I0
I0
tp37
a(I1
I0
tp38
a(I2
I0
tp39
a(I3
I2
tp40
a(I3
I5
tp41
a(I4
I2
tp42
a(I4
I5
tp43
a(I5
I2
tp44
a(I5
I5
tp45
a(I6
I2
tp46
a(I6
I5
tp47
a(I7
I2
tp48
a(I7
I5
tp49
a(I8
I2
tp50
a(I8
I5
tp51
a(I9
I0
tp52
a(I10
I0
tp53
a(I11
I0
tp54
a(I12
I0
tp55
a(I13
I0
tp56
a(I14
I2
tp57
a(I14
I5
tp58
a(I15
I2
tp59
a(I15
I5
tp60
a(I16
I2
tp61
a(I16
I5
tp62
a(I17
I2
tp63
a(I17
I5
tp64
a(I18
I2
tp65
a(I18
I5
tp66
a(I19
I2
tp67
a(I19
I5
tp68
a(I20
I0
tp69
a(I21
I0
tp70
a(I22
I0
tp71
a(I23
I2
tp72
a(I23
I5
tp73
a(I24
I7
tp74
a(I25
I0
tp75
a(I26
I0
tp76
a(I27
I0
tp77
a(I28
I0
tp78
a(I29
I2
tp79
a(I29
I5
tp80
a(I30
I0
tp81
a(I31
I0
tp82
a(I32
I2
tp83
a(I32
I5
tp84
a(I33
I0
tp85
a(I34
I0
tp86
a(I35
I0
tp87
a(I36
I0
tp88
a(I37
I0
tp89
a(I38
I2
tp90
a(I38
I5
tp91
a(I39
I0
tp92
a(I40
I0
tp93
a(I41
I0
tp94
a(I42
I0
tp95
a(I43
I2
tp96
a(I43
I5
tp97
a(I44
I2
tp98
a(I44
I5
tp99
a(I45
I2
tp100
a(I45
I5
tp101
a(I46
I2
tp102
a(I46
I5
tp103
a(I47
I7
tp104
a(I48
I0
tp105
a(I49
I0
tp106
a(I50
I0
tp107
a(I51
I0
tp108
a(I52
I0
tp109
asg30
(lp110
(I0
I0
tp111
a(I1
I0
tp112
a(I2
I0
tp113
a(I3
I17
tp114
a(I4
I17
tp115
a(I5
I17
tp116
a(I6
I17
tp117
a(I7
I17
tp118
a(I8
I17
tp119
a(I9
I0
tp120
a(I10
I0
tp121
a(I11
I0
tp122
a(I12
I0
tp123
a(I13
I0
tp124
a(I14
I17
tp125
a(I15
I17
tp126
a(I16
I17
tp127
a(I17
I17
tp128
a(I18
I17
tp129
a(I19
I17
tp130
a(I20
I0
tp131
a(I21
I0
tp132
a(I22
I0
tp133
a(I23
I17
tp134
a(I24
I9
tp135
a(I25
I0
tp136
a(I26
I0
tp137
a(I27
I0
tp138
a(I28
I2
tp139
a(I29
I17
tp140
a(I30
I0
tp141
a(I31
I0
tp142
a(I32
I17
tp143
a(I33
I0
tp144
a(I34
I0
tp145
a(I35
I0
tp146
a(I36
I0
tp147
a(I37
I0
tp148
a(I38
I17
tp149
a(I39
I0
tp150
a(I40
I0
tp151
a(I41
I0
tp152
a(I42
I0
tp153
a(I43
I17
tp154
a(I44
I5
tp155
a(I45
I17
tp156
a(I46
I17
tp157
a(I47
I9
tp158
a(I48
I0
tp159
a(I49
I0
tp160
a(I50
I0
tp161
a(I51
I0
tp162
a(I52
I0
tp163
asg32
(lp164
(I0
I0
tp165
a(I1
I0
tp166
a(I2
I0
tp167
a(I3
I5
tp168
a(I4
I5
tp169
a(I5
I5
tp170
a(I6
I5
tp171
a(I7
I5
tp172
a(I8
I5
tp173
a(I9
I0
tp174
a(I10
I0
tp175
a(I11
I0
tp176
a(I12
I0
tp177
a(I13
I0
tp178
a(I14
I5
tp179
a(I15
I5
tp180
a(I16
I5
tp181
a(I17
I5
tp182
a(I18
I5
tp183
a(I19
I5
tp184
a(I20
I0
tp185
a(I21
I0
tp186
a(I22
I0
tp187
a(I23
I5
tp188
a(I24
I7
tp189
a(I25
I0
tp190
a(I26
I0
tp191
a(I27
I0
tp192
a(I28
I0
tp193
a(I29
I5
tp194
a(I30
I0
tp195
a(I31
I0
tp196
a(I32
I5
tp197
a(I33
I0
tp198
a(I34
I0
tp199
a(I35
I0
tp200
a(I36
I0
tp201
a(I37
I0
tp202
a(I38
I5
tp203
a(I39
I0
tp204
a(I40
I0
tp205
a(I41
I0
tp206
a(I42
I0
tp207
a(I43
I5
tp208
a(I44
I5
tp209
a(I45
I5
tp210
a(I46
I5
tp211
a(I47
I7
tp212
a(I48
I0
tp213
a(I49
I0
tp214
a(I50
I0
tp215
a(I51
I0
tp216
a(I52
I0
tp217
assbsS'checksums'
p218
S'33966  1246\n'
p219
s.